
/home/piper/ics2019/nexus-am/apps/litenes/build/litenes-x86-nemu.elf:     file format elf32-i386


Disassembly of section .text:

00100000 <_start>:
  100000:	bd 00 00 00 00       	mov    $0x0,%ebp
  100005:	bc 00 10 2e 00       	mov    $0x2e1000,%esp
  10000a:	e8 f5 45 00 00       	call   104604 <_trm_init>
  10000f:	90                   	nop

00100010 <____FE____>:
  100010:	c3                   	ret    
  100011:	8d 76 00             	lea    0x0(%esi),%esi

00100014 <cpu_op_and>:
  100014:	8a 15 2e 09 2c 00    	mov    0x2c092e,%dl
  10001a:	83 e2 7d             	and    $0x7d,%edx
  10001d:	a1 20 09 2c 00       	mov    0x2c0920,%eax
  100022:	22 05 2b 09 2c 00    	and    0x2c092b,%al
  100028:	a2 2b 09 2c 00       	mov    %al,0x2c092b
  10002d:	0f b6 c0             	movzbl %al,%eax
  100030:	0a 90 a0 4b 10 00    	or     0x104ba0(%eax),%dl
  100036:	88 15 2e 09 2c 00    	mov    %dl,0x2c092e
  10003c:	c3                   	ret    
  10003d:	8d 76 00             	lea    0x0(%esi),%esi

00100040 <cpu_op_eor>:
  100040:	8a 15 2e 09 2c 00    	mov    0x2c092e,%dl
  100046:	83 e2 7d             	and    $0x7d,%edx
  100049:	a1 20 09 2c 00       	mov    0x2c0920,%eax
  10004e:	32 05 2b 09 2c 00    	xor    0x2c092b,%al
  100054:	a2 2b 09 2c 00       	mov    %al,0x2c092b
  100059:	0f b6 c0             	movzbl %al,%eax
  10005c:	0a 90 a0 4b 10 00    	or     0x104ba0(%eax),%dl
  100062:	88 15 2e 09 2c 00    	mov    %dl,0x2c092e
  100068:	c3                   	ret    
  100069:	8d 76 00             	lea    0x0(%esi),%esi

0010006c <cpu_op_ora>:
  10006c:	8a 15 2e 09 2c 00    	mov    0x2c092e,%dl
  100072:	83 e2 7d             	and    $0x7d,%edx
  100075:	a1 20 09 2c 00       	mov    0x2c0920,%eax
  10007a:	0a 05 2b 09 2c 00    	or     0x2c092b,%al
  100080:	a2 2b 09 2c 00       	mov    %al,0x2c092b
  100085:	0f b6 c0             	movzbl %al,%eax
  100088:	0a 90 a0 4b 10 00    	or     0x104ba0(%eax),%dl
  10008e:	88 15 2e 09 2c 00    	mov    %dl,0x2c092e
  100094:	c3                   	ret    
  100095:	8d 76 00             	lea    0x0(%esi),%esi

00100098 <cpu_op_lda>:
  100098:	a0 2e 09 2c 00       	mov    0x2c092e,%al
  10009d:	83 e0 7d             	and    $0x7d,%eax
  1000a0:	8b 15 20 09 2c 00    	mov    0x2c0920,%edx
  1000a6:	88 15 2b 09 2c 00    	mov    %dl,0x2c092b
  1000ac:	0f b6 d2             	movzbl %dl,%edx
  1000af:	0a 82 a0 4b 10 00    	or     0x104ba0(%edx),%al
  1000b5:	a2 2e 09 2c 00       	mov    %al,0x2c092e
  1000ba:	c3                   	ret    
  1000bb:	90                   	nop

001000bc <cpu_op_ldx>:
  1000bc:	a0 2e 09 2c 00       	mov    0x2c092e,%al
  1000c1:	83 e0 7d             	and    $0x7d,%eax
  1000c4:	8b 15 20 09 2c 00    	mov    0x2c0920,%edx
  1000ca:	88 15 2c 09 2c 00    	mov    %dl,0x2c092c
  1000d0:	0f b6 d2             	movzbl %dl,%edx
  1000d3:	0a 82 a0 4b 10 00    	or     0x104ba0(%edx),%al
  1000d9:	a2 2e 09 2c 00       	mov    %al,0x2c092e
  1000de:	c3                   	ret    
  1000df:	90                   	nop

001000e0 <cpu_op_ldy>:
  1000e0:	a0 2e 09 2c 00       	mov    0x2c092e,%al
  1000e5:	83 e0 7d             	and    $0x7d,%eax
  1000e8:	8b 15 20 09 2c 00    	mov    0x2c0920,%edx
  1000ee:	88 15 2d 09 2c 00    	mov    %dl,0x2c092d
  1000f4:	0f b6 d2             	movzbl %dl,%edx
  1000f7:	0a 82 a0 4b 10 00    	or     0x104ba0(%edx),%al
  1000fd:	a2 2e 09 2c 00       	mov    %al,0x2c092e
  100102:	c3                   	ret    
  100103:	90                   	nop

00100104 <cpu_op_tax>:
  100104:	a0 2e 09 2c 00       	mov    0x2c092e,%al
  100109:	83 e0 7d             	and    $0x7d,%eax
  10010c:	0f b6 15 2b 09 2c 00 	movzbl 0x2c092b,%edx
  100113:	88 15 2c 09 2c 00    	mov    %dl,0x2c092c
  100119:	0a 82 a0 4b 10 00    	or     0x104ba0(%edx),%al
  10011f:	a2 2e 09 2c 00       	mov    %al,0x2c092e
  100124:	c3                   	ret    
  100125:	8d 76 00             	lea    0x0(%esi),%esi

00100128 <cpu_op_txa>:
  100128:	a0 2e 09 2c 00       	mov    0x2c092e,%al
  10012d:	83 e0 7d             	and    $0x7d,%eax
  100130:	0f b6 15 2c 09 2c 00 	movzbl 0x2c092c,%edx
  100137:	88 15 2b 09 2c 00    	mov    %dl,0x2c092b
  10013d:	0a 82 a0 4b 10 00    	or     0x104ba0(%edx),%al
  100143:	a2 2e 09 2c 00       	mov    %al,0x2c092e
  100148:	c3                   	ret    
  100149:	8d 76 00             	lea    0x0(%esi),%esi

0010014c <cpu_op_tay>:
  10014c:	a0 2e 09 2c 00       	mov    0x2c092e,%al
  100151:	83 e0 7d             	and    $0x7d,%eax
  100154:	0f b6 15 2b 09 2c 00 	movzbl 0x2c092b,%edx
  10015b:	88 15 2d 09 2c 00    	mov    %dl,0x2c092d
  100161:	0a 82 a0 4b 10 00    	or     0x104ba0(%edx),%al
  100167:	a2 2e 09 2c 00       	mov    %al,0x2c092e
  10016c:	c3                   	ret    
  10016d:	8d 76 00             	lea    0x0(%esi),%esi

00100170 <cpu_op_tya>:
  100170:	a0 2e 09 2c 00       	mov    0x2c092e,%al
  100175:	83 e0 7d             	and    $0x7d,%eax
  100178:	0f b6 15 2d 09 2c 00 	movzbl 0x2c092d,%edx
  10017f:	88 15 2b 09 2c 00    	mov    %dl,0x2c092b
  100185:	0a 82 a0 4b 10 00    	or     0x104ba0(%edx),%al
  10018b:	a2 2e 09 2c 00       	mov    %al,0x2c092e
  100190:	c3                   	ret    
  100191:	8d 76 00             	lea    0x0(%esi),%esi

00100194 <cpu_op_tsx>:
  100194:	a0 2e 09 2c 00       	mov    0x2c092e,%al
  100199:	83 e0 7d             	and    $0x7d,%eax
  10019c:	0f b6 15 2a 09 2c 00 	movzbl 0x2c092a,%edx
  1001a3:	88 15 2c 09 2c 00    	mov    %dl,0x2c092c
  1001a9:	0a 82 a0 4b 10 00    	or     0x104ba0(%edx),%al
  1001af:	a2 2e 09 2c 00       	mov    %al,0x2c092e
  1001b4:	c3                   	ret    
  1001b5:	8d 76 00             	lea    0x0(%esi),%esi

001001b8 <cpu_op_txs>:
  1001b8:	a0 2c 09 2c 00       	mov    0x2c092c,%al
  1001bd:	a2 2a 09 2c 00       	mov    %al,0x2c092a
  1001c2:	c3                   	ret    
  1001c3:	90                   	nop

001001c4 <cpu_op_jmp>:
  1001c4:	a1 24 09 2c 00       	mov    0x2c0924,%eax
  1001c9:	66 a3 28 09 2c 00    	mov    %ax,0x2c0928
  1001cf:	c3                   	ret    

001001d0 <cpu_op_inx>:
  1001d0:	8a 15 2e 09 2c 00    	mov    0x2c092e,%dl
  1001d6:	83 e2 7d             	and    $0x7d,%edx
  1001d9:	a0 2c 09 2c 00       	mov    0x2c092c,%al
  1001de:	40                   	inc    %eax
  1001df:	a2 2c 09 2c 00       	mov    %al,0x2c092c
  1001e4:	0f b6 c0             	movzbl %al,%eax
  1001e7:	0a 90 a0 4b 10 00    	or     0x104ba0(%eax),%dl
  1001ed:	88 15 2e 09 2c 00    	mov    %dl,0x2c092e
  1001f3:	c3                   	ret    

001001f4 <cpu_op_iny>:
  1001f4:	8a 15 2e 09 2c 00    	mov    0x2c092e,%dl
  1001fa:	83 e2 7d             	and    $0x7d,%edx
  1001fd:	a0 2d 09 2c 00       	mov    0x2c092d,%al
  100202:	40                   	inc    %eax
  100203:	a2 2d 09 2c 00       	mov    %al,0x2c092d
  100208:	0f b6 c0             	movzbl %al,%eax
  10020b:	0a 90 a0 4b 10 00    	or     0x104ba0(%eax),%dl
  100211:	88 15 2e 09 2c 00    	mov    %dl,0x2c092e
  100217:	c3                   	ret    

00100218 <cpu_op_dex>:
  100218:	8a 15 2e 09 2c 00    	mov    0x2c092e,%dl
  10021e:	83 e2 7d             	and    $0x7d,%edx
  100221:	a0 2c 09 2c 00       	mov    0x2c092c,%al
  100226:	48                   	dec    %eax
  100227:	a2 2c 09 2c 00       	mov    %al,0x2c092c
  10022c:	0f b6 c0             	movzbl %al,%eax
  10022f:	0a 90 a0 4b 10 00    	or     0x104ba0(%eax),%dl
  100235:	88 15 2e 09 2c 00    	mov    %dl,0x2c092e
  10023b:	c3                   	ret    

0010023c <cpu_op_dey>:
  10023c:	8a 15 2e 09 2c 00    	mov    0x2c092e,%dl
  100242:	83 e2 7d             	and    $0x7d,%edx
  100245:	a0 2d 09 2c 00       	mov    0x2c092d,%al
  10024a:	48                   	dec    %eax
  10024b:	a2 2d 09 2c 00       	mov    %al,0x2c092d
  100250:	0f b6 c0             	movzbl %al,%eax
  100253:	0a 90 a0 4b 10 00    	or     0x104ba0(%eax),%dl
  100259:	88 15 2e 09 2c 00    	mov    %dl,0x2c092e
  10025f:	c3                   	ret    

00100260 <cpu_op_lax>:
  100260:	a0 2e 09 2c 00       	mov    0x2c092e,%al
  100265:	83 e0 7d             	and    $0x7d,%eax
  100268:	8b 15 20 09 2c 00    	mov    0x2c0920,%edx
  10026e:	88 15 2c 09 2c 00    	mov    %dl,0x2c092c
  100274:	88 15 2b 09 2c 00    	mov    %dl,0x2c092b
  10027a:	0f b6 d2             	movzbl %dl,%edx
  10027d:	0a 82 a0 4b 10 00    	or     0x104ba0(%edx),%al
  100283:	a2 2e 09 2c 00       	mov    %al,0x2c092e
  100288:	c3                   	ret    
  100289:	8d 76 00             	lea    0x0(%esi),%esi

0010028c <cpu_op_rts>:
  10028c:	55                   	push   %ebp
  10028d:	89 e5                	mov    %esp,%ebp
  10028f:	83 ec 14             	sub    $0x14,%esp
  100292:	a0 2a 09 2c 00       	mov    0x2c092a,%al
  100297:	83 c0 02             	add    $0x2,%eax
  10029a:	a2 2a 09 2c 00       	mov    %al,0x2c092a
  10029f:	0f b6 c0             	movzbl %al,%eax
  1002a2:	05 ff 00 00 00       	add    $0xff,%eax
  1002a7:	50                   	push   %eax
  1002a8:	e8 bb 30 00 00       	call   103368 <memory_readw>
  1002ad:	40                   	inc    %eax
  1002ae:	66 a3 28 09 2c 00    	mov    %ax,0x2c0928
  1002b4:	83 c4 10             	add    $0x10,%esp
  1002b7:	c9                   	leave  
  1002b8:	c3                   	ret    
  1002b9:	8d 76 00             	lea    0x0(%esi),%esi

001002bc <cpu_op_sta>:
  1002bc:	55                   	push   %ebp
  1002bd:	89 e5                	mov    %esp,%ebp
  1002bf:	83 ec 10             	sub    $0x10,%esp
  1002c2:	0f b6 05 2b 09 2c 00 	movzbl 0x2c092b,%eax
  1002c9:	50                   	push   %eax
  1002ca:	0f b7 05 24 09 2c 00 	movzwl 0x2c0924,%eax
  1002d1:	50                   	push   %eax
  1002d2:	e8 c1 2f 00 00       	call   103298 <memory_writeb>
  1002d7:	83 c4 10             	add    $0x10,%esp
  1002da:	c9                   	leave  
  1002db:	c3                   	ret    

001002dc <cpu_op_stx>:
  1002dc:	55                   	push   %ebp
  1002dd:	89 e5                	mov    %esp,%ebp
  1002df:	83 ec 10             	sub    $0x10,%esp
  1002e2:	0f b6 05 2c 09 2c 00 	movzbl 0x2c092c,%eax
  1002e9:	50                   	push   %eax
  1002ea:	0f b7 05 24 09 2c 00 	movzwl 0x2c0924,%eax
  1002f1:	50                   	push   %eax
  1002f2:	e8 a1 2f 00 00       	call   103298 <memory_writeb>
  1002f7:	83 c4 10             	add    $0x10,%esp
  1002fa:	c9                   	leave  
  1002fb:	c3                   	ret    

001002fc <cpu_op_sty>:
  1002fc:	55                   	push   %ebp
  1002fd:	89 e5                	mov    %esp,%ebp
  1002ff:	83 ec 10             	sub    $0x10,%esp
  100302:	0f b6 05 2d 09 2c 00 	movzbl 0x2c092d,%eax
  100309:	50                   	push   %eax
  10030a:	0f b7 05 24 09 2c 00 	movzwl 0x2c0924,%eax
  100311:	50                   	push   %eax
  100312:	e8 81 2f 00 00       	call   103298 <memory_writeb>
  100317:	83 c4 10             	add    $0x10,%esp
  10031a:	c9                   	leave  
  10031b:	c3                   	ret    

0010031c <cpu_op_inc>:
  10031c:	55                   	push   %ebp
  10031d:	89 e5                	mov    %esp,%ebp
  10031f:	53                   	push   %ebx
  100320:	83 ec 0c             	sub    $0xc,%esp
  100323:	a0 20 09 2c 00       	mov    0x2c0920,%al
  100328:	8d 58 01             	lea    0x1(%eax),%ebx
  10032b:	0f b6 db             	movzbl %bl,%ebx
  10032e:	53                   	push   %ebx
  10032f:	0f b7 05 24 09 2c 00 	movzwl 0x2c0924,%eax
  100336:	50                   	push   %eax
  100337:	e8 5c 2f 00 00       	call   103298 <memory_writeb>
  10033c:	a0 2e 09 2c 00       	mov    0x2c092e,%al
  100341:	83 e0 7d             	and    $0x7d,%eax
  100344:	0a 83 a0 4b 10 00    	or     0x104ba0(%ebx),%al
  10034a:	a2 2e 09 2c 00       	mov    %al,0x2c092e
  10034f:	83 c4 10             	add    $0x10,%esp
  100352:	8b 5d fc             	mov    -0x4(%ebp),%ebx
  100355:	c9                   	leave  
  100356:	c3                   	ret    
  100357:	90                   	nop

00100358 <cpu_op_dec>:
  100358:	55                   	push   %ebp
  100359:	89 e5                	mov    %esp,%ebp
  10035b:	53                   	push   %ebx
  10035c:	83 ec 0c             	sub    $0xc,%esp
  10035f:	a0 20 09 2c 00       	mov    0x2c0920,%al
  100364:	8d 58 ff             	lea    -0x1(%eax),%ebx
  100367:	0f b6 db             	movzbl %bl,%ebx
  10036a:	53                   	push   %ebx
  10036b:	0f b7 05 24 09 2c 00 	movzwl 0x2c0924,%eax
  100372:	50                   	push   %eax
  100373:	e8 20 2f 00 00       	call   103298 <memory_writeb>
  100378:	a0 2e 09 2c 00       	mov    0x2c092e,%al
  10037d:	83 e0 7d             	and    $0x7d,%eax
  100380:	0a 83 a0 4b 10 00    	or     0x104ba0(%ebx),%al
  100386:	a2 2e 09 2c 00       	mov    %al,0x2c092e
  10038b:	83 c4 10             	add    $0x10,%esp
  10038e:	8b 5d fc             	mov    -0x4(%ebp),%ebx
  100391:	c9                   	leave  
  100392:	c3                   	ret    
  100393:	90                   	nop

00100394 <cpu_op_axa>:
  100394:	55                   	push   %ebp
  100395:	89 e5                	mov    %esp,%ebp
  100397:	83 ec 10             	sub    $0x10,%esp
  10039a:	a0 2b 09 2c 00       	mov    0x2c092b,%al
  10039f:	22 05 2c 09 2c 00    	and    0x2c092c,%al
  1003a5:	22 05 25 09 2c 00    	and    0x2c0925,%al
  1003ab:	0f b6 c0             	movzbl %al,%eax
  1003ae:	50                   	push   %eax
  1003af:	0f b7 05 24 09 2c 00 	movzwl 0x2c0924,%eax
  1003b6:	50                   	push   %eax
  1003b7:	e8 dc 2e 00 00       	call   103298 <memory_writeb>
  1003bc:	83 c4 10             	add    $0x10,%esp
  1003bf:	c9                   	leave  
  1003c0:	c3                   	ret    
  1003c1:	8d 76 00             	lea    0x0(%esi),%esi

001003c4 <cpu_op_axs>:
  1003c4:	55                   	push   %ebp
  1003c5:	89 e5                	mov    %esp,%ebp
  1003c7:	83 ec 10             	sub    $0x10,%esp
  1003ca:	a0 2b 09 2c 00       	mov    0x2c092b,%al
  1003cf:	22 05 2c 09 2c 00    	and    0x2c092c,%al
  1003d5:	0f b6 c0             	movzbl %al,%eax
  1003d8:	50                   	push   %eax
  1003d9:	0f b7 05 24 09 2c 00 	movzwl 0x2c0924,%eax
  1003e0:	50                   	push   %eax
  1003e1:	e8 b2 2e 00 00       	call   103298 <memory_writeb>
  1003e6:	83 c4 10             	add    $0x10,%esp
  1003e9:	c9                   	leave  
  1003ea:	c3                   	ret    
  1003eb:	90                   	nop

001003ec <cpu_op_php>:
  1003ec:	55                   	push   %ebp
  1003ed:	89 e5                	mov    %esp,%ebp
  1003ef:	83 ec 10             	sub    $0x10,%esp
  1003f2:	a0 2e 09 2c 00       	mov    0x2c092e,%al
  1003f7:	83 c8 30             	or     $0x30,%eax
  1003fa:	0f b6 c0             	movzbl %al,%eax
  1003fd:	0f b6 15 2a 09 2c 00 	movzbl 0x2c092a,%edx
  100404:	8d 4a ff             	lea    -0x1(%edx),%ecx
  100407:	88 0d 2a 09 2c 00    	mov    %cl,0x2c092a
  10040d:	50                   	push   %eax
  10040e:	8d 82 00 01 00 00    	lea    0x100(%edx),%eax
  100414:	50                   	push   %eax
  100415:	e8 7e 2e 00 00       	call   103298 <memory_writeb>
  10041a:	83 c4 10             	add    $0x10,%esp
  10041d:	c9                   	leave  
  10041e:	c3                   	ret    
  10041f:	90                   	nop

00100420 <cpu_op_pha>:
  100420:	55                   	push   %ebp
  100421:	89 e5                	mov    %esp,%ebp
  100423:	83 ec 10             	sub    $0x10,%esp
  100426:	0f b6 15 2b 09 2c 00 	movzbl 0x2c092b,%edx
  10042d:	0f b6 05 2a 09 2c 00 	movzbl 0x2c092a,%eax
  100434:	8d 48 ff             	lea    -0x1(%eax),%ecx
  100437:	88 0d 2a 09 2c 00    	mov    %cl,0x2c092a
  10043d:	52                   	push   %edx
  10043e:	05 00 01 00 00       	add    $0x100,%eax
  100443:	50                   	push   %eax
  100444:	e8 4f 2e 00 00       	call   103298 <memory_writeb>
  100449:	83 c4 10             	add    $0x10,%esp
  10044c:	c9                   	leave  
  10044d:	c3                   	ret    
  10044e:	66 90                	xchg   %ax,%ax

00100450 <cpu_op_jsr>:
  100450:	55                   	push   %ebp
  100451:	89 e5                	mov    %esp,%ebp
  100453:	83 ec 10             	sub    $0x10,%esp
  100456:	66 a1 28 09 2c 00    	mov    0x2c0928,%ax
  10045c:	48                   	dec    %eax
  10045d:	0f b7 c0             	movzwl %ax,%eax
  100460:	50                   	push   %eax
  100461:	0f b6 05 2a 09 2c 00 	movzbl 0x2c092a,%eax
  100468:	05 ff 00 00 00       	add    $0xff,%eax
  10046d:	50                   	push   %eax
  10046e:	e8 29 2f 00 00       	call   10339c <memory_writew>
  100473:	80 2d 2a 09 2c 00 02 	subb   $0x2,0x2c092a
  10047a:	a1 24 09 2c 00       	mov    0x2c0924,%eax
  10047f:	66 a3 28 09 2c 00    	mov    %ax,0x2c0928
  100485:	83 c4 10             	add    $0x10,%esp
  100488:	c9                   	leave  
  100489:	c3                   	ret    
  10048a:	66 90                	xchg   %ax,%ax

0010048c <cpu_op_brk>:
  10048c:	55                   	push   %ebp
  10048d:	89 e5                	mov    %esp,%ebp
  10048f:	83 ec 10             	sub    $0x10,%esp
  100492:	66 a1 28 09 2c 00    	mov    0x2c0928,%ax
  100498:	48                   	dec    %eax
  100499:	0f b7 c0             	movzwl %ax,%eax
  10049c:	50                   	push   %eax
  10049d:	0f b6 05 2a 09 2c 00 	movzbl 0x2c092a,%eax
  1004a4:	05 ff 00 00 00       	add    $0xff,%eax
  1004a9:	50                   	push   %eax
  1004aa:	e8 ed 2e 00 00       	call   10339c <memory_writew>
  1004af:	a0 2a 09 2c 00       	mov    0x2c092a,%al
  1004b4:	0f b6 15 2e 09 2c 00 	movzbl 0x2c092e,%edx
  1004bb:	8d 48 fd             	lea    -0x3(%eax),%ecx
  1004be:	88 0d 2a 09 2c 00    	mov    %cl,0x2c092a
  1004c4:	83 c4 08             	add    $0x8,%esp
  1004c7:	52                   	push   %edx
  1004c8:	83 e8 02             	sub    $0x2,%eax
  1004cb:	0f b6 c0             	movzbl %al,%eax
  1004ce:	05 00 01 00 00       	add    $0x100,%eax
  1004d3:	50                   	push   %eax
  1004d4:	e8 bf 2d 00 00       	call   103298 <memory_writeb>
  1004d9:	80 0d 2e 09 2c 00 30 	orb    $0x30,0x2c092e
  1004e0:	c7 04 24 fa ff 00 00 	movl   $0xfffa,(%esp)
  1004e7:	e8 7c 2e 00 00       	call   103368 <memory_readw>
  1004ec:	66 a3 28 09 2c 00    	mov    %ax,0x2c0928
  1004f2:	83 c4 10             	add    $0x10,%esp
  1004f5:	c9                   	leave  
  1004f6:	c3                   	ret    
  1004f7:	90                   	nop

001004f8 <cpu_op_pla>:
  1004f8:	55                   	push   %ebp
  1004f9:	89 e5                	mov    %esp,%ebp
  1004fb:	83 ec 14             	sub    $0x14,%esp
  1004fe:	a0 2a 09 2c 00       	mov    0x2c092a,%al
  100503:	40                   	inc    %eax
  100504:	a2 2a 09 2c 00       	mov    %al,0x2c092a
  100509:	0f b6 c0             	movzbl %al,%eax
  10050c:	05 00 01 00 00       	add    $0x100,%eax
  100511:	50                   	push   %eax
  100512:	e8 19 2d 00 00       	call   103230 <memory_readb>
  100517:	a2 2b 09 2c 00       	mov    %al,0x2c092b
  10051c:	8a 15 2e 09 2c 00    	mov    0x2c092e,%dl
  100522:	83 e2 7d             	and    $0x7d,%edx
  100525:	0f b6 c0             	movzbl %al,%eax
  100528:	0a 90 a0 4b 10 00    	or     0x104ba0(%eax),%dl
  10052e:	88 15 2e 09 2c 00    	mov    %dl,0x2c092e
  100534:	83 c4 10             	add    $0x10,%esp
  100537:	c9                   	leave  
  100538:	c3                   	ret    
  100539:	8d 76 00             	lea    0x0(%esi),%esi

0010053c <cpu_op_plp>:
  10053c:	55                   	push   %ebp
  10053d:	89 e5                	mov    %esp,%ebp
  10053f:	83 ec 14             	sub    $0x14,%esp
  100542:	a0 2a 09 2c 00       	mov    0x2c092a,%al
  100547:	40                   	inc    %eax
  100548:	a2 2a 09 2c 00       	mov    %al,0x2c092a
  10054d:	0f b6 c0             	movzbl %al,%eax
  100550:	05 00 01 00 00       	add    $0x100,%eax
  100555:	50                   	push   %eax
  100556:	e8 d5 2c 00 00       	call   103230 <memory_readb>
  10055b:	83 e0 cf             	and    $0xffffffcf,%eax
  10055e:	83 c8 20             	or     $0x20,%eax
  100561:	a2 2e 09 2c 00       	mov    %al,0x2c092e
  100566:	83 c4 10             	add    $0x10,%esp
  100569:	c9                   	leave  
  10056a:	c3                   	ret    
  10056b:	90                   	nop

0010056c <cpu_op_rti>:
  10056c:	55                   	push   %ebp
  10056d:	89 e5                	mov    %esp,%ebp
  10056f:	83 ec 14             	sub    $0x14,%esp
  100572:	a0 2a 09 2c 00       	mov    0x2c092a,%al
  100577:	40                   	inc    %eax
  100578:	a2 2a 09 2c 00       	mov    %al,0x2c092a
  10057d:	0f b6 c0             	movzbl %al,%eax
  100580:	05 00 01 00 00       	add    $0x100,%eax
  100585:	50                   	push   %eax
  100586:	e8 a5 2c 00 00       	call   103230 <memory_readb>
  10058b:	83 c8 20             	or     $0x20,%eax
  10058e:	a2 2e 09 2c 00       	mov    %al,0x2c092e
  100593:	a0 2a 09 2c 00       	mov    0x2c092a,%al
  100598:	83 c0 02             	add    $0x2,%eax
  10059b:	a2 2a 09 2c 00       	mov    %al,0x2c092a
  1005a0:	0f b6 c0             	movzbl %al,%eax
  1005a3:	05 ff 00 00 00       	add    $0xff,%eax
  1005a8:	89 04 24             	mov    %eax,(%esp)
  1005ab:	e8 b8 2d 00 00       	call   103368 <memory_readw>
  1005b0:	66 a3 28 09 2c 00    	mov    %ax,0x2c0928
  1005b6:	83 c4 10             	add    $0x10,%esp
  1005b9:	c9                   	leave  
  1005ba:	c3                   	ret    
  1005bb:	90                   	nop

001005bc <cpu_op_bcs>:
  1005bc:	55                   	push   %ebp
  1005bd:	89 e5                	mov    %esp,%ebp
  1005bf:	83 ec 0c             	sub    $0xc,%esp
  1005c2:	6a 00                	push   $0x0
  1005c4:	0f b6 05 2e 09 2c 00 	movzbl 0x2c092e,%eax
  1005cb:	31 d2                	xor    %edx,%edx
  1005cd:	52                   	push   %edx
  1005ce:	50                   	push   %eax
  1005cf:	e8 e0 2a 00 00       	call   1030b4 <common_bit_set>
  1005d4:	83 c4 10             	add    $0x10,%esp
  1005d7:	85 c0                	test   %eax,%eax
  1005d9:	74 0b                	je     1005e6 <cpu_op_bcs+0x2a>
  1005db:	a1 24 09 2c 00       	mov    0x2c0924,%eax
  1005e0:	66 a3 28 09 2c 00    	mov    %ax,0x2c0928
  1005e6:	c9                   	leave  
  1005e7:	c3                   	ret    

001005e8 <cpu_op_beq>:
  1005e8:	55                   	push   %ebp
  1005e9:	89 e5                	mov    %esp,%ebp
  1005eb:	83 ec 0c             	sub    $0xc,%esp
  1005ee:	6a 01                	push   $0x1
  1005f0:	0f b6 05 2e 09 2c 00 	movzbl 0x2c092e,%eax
  1005f7:	31 d2                	xor    %edx,%edx
  1005f9:	52                   	push   %edx
  1005fa:	50                   	push   %eax
  1005fb:	e8 b4 2a 00 00       	call   1030b4 <common_bit_set>
  100600:	83 c4 10             	add    $0x10,%esp
  100603:	85 c0                	test   %eax,%eax
  100605:	74 0b                	je     100612 <cpu_op_beq+0x2a>
  100607:	a1 24 09 2c 00       	mov    0x2c0924,%eax
  10060c:	66 a3 28 09 2c 00    	mov    %ax,0x2c0928
  100612:	c9                   	leave  
  100613:	c3                   	ret    

00100614 <cpu_op_bmi>:
  100614:	55                   	push   %ebp
  100615:	89 e5                	mov    %esp,%ebp
  100617:	83 ec 0c             	sub    $0xc,%esp
  10061a:	6a 07                	push   $0x7
  10061c:	0f b6 05 2e 09 2c 00 	movzbl 0x2c092e,%eax
  100623:	31 d2                	xor    %edx,%edx
  100625:	52                   	push   %edx
  100626:	50                   	push   %eax
  100627:	e8 88 2a 00 00       	call   1030b4 <common_bit_set>
  10062c:	83 c4 10             	add    $0x10,%esp
  10062f:	85 c0                	test   %eax,%eax
  100631:	74 0b                	je     10063e <cpu_op_bmi+0x2a>
  100633:	a1 24 09 2c 00       	mov    0x2c0924,%eax
  100638:	66 a3 28 09 2c 00    	mov    %ax,0x2c0928
  10063e:	c9                   	leave  
  10063f:	c3                   	ret    

00100640 <cpu_op_bvs>:
  100640:	55                   	push   %ebp
  100641:	89 e5                	mov    %esp,%ebp
  100643:	83 ec 0c             	sub    $0xc,%esp
  100646:	6a 06                	push   $0x6
  100648:	0f b6 05 2e 09 2c 00 	movzbl 0x2c092e,%eax
  10064f:	31 d2                	xor    %edx,%edx
  100651:	52                   	push   %edx
  100652:	50                   	push   %eax
  100653:	e8 5c 2a 00 00       	call   1030b4 <common_bit_set>
  100658:	83 c4 10             	add    $0x10,%esp
  10065b:	85 c0                	test   %eax,%eax
  10065d:	74 0b                	je     10066a <cpu_op_bvs+0x2a>
  10065f:	a1 24 09 2c 00       	mov    0x2c0924,%eax
  100664:	66 a3 28 09 2c 00    	mov    %ax,0x2c0928
  10066a:	c9                   	leave  
  10066b:	c3                   	ret    

0010066c <cpu_op_bne>:
  10066c:	55                   	push   %ebp
  10066d:	89 e5                	mov    %esp,%ebp
  10066f:	83 ec 0c             	sub    $0xc,%esp
  100672:	6a 01                	push   $0x1
  100674:	0f b6 05 2e 09 2c 00 	movzbl 0x2c092e,%eax
  10067b:	31 d2                	xor    %edx,%edx
  10067d:	52                   	push   %edx
  10067e:	50                   	push   %eax
  10067f:	e8 30 2a 00 00       	call   1030b4 <common_bit_set>
  100684:	83 c4 10             	add    $0x10,%esp
  100687:	85 c0                	test   %eax,%eax
  100689:	75 0b                	jne    100696 <cpu_op_bne+0x2a>
  10068b:	a1 24 09 2c 00       	mov    0x2c0924,%eax
  100690:	66 a3 28 09 2c 00    	mov    %ax,0x2c0928
  100696:	c9                   	leave  
  100697:	c3                   	ret    

00100698 <cpu_op_bcc>:
  100698:	55                   	push   %ebp
  100699:	89 e5                	mov    %esp,%ebp
  10069b:	83 ec 0c             	sub    $0xc,%esp
  10069e:	6a 00                	push   $0x0
  1006a0:	0f b6 05 2e 09 2c 00 	movzbl 0x2c092e,%eax
  1006a7:	31 d2                	xor    %edx,%edx
  1006a9:	52                   	push   %edx
  1006aa:	50                   	push   %eax
  1006ab:	e8 04 2a 00 00       	call   1030b4 <common_bit_set>
  1006b0:	83 c4 10             	add    $0x10,%esp
  1006b3:	85 c0                	test   %eax,%eax
  1006b5:	75 0b                	jne    1006c2 <cpu_op_bcc+0x2a>
  1006b7:	a1 24 09 2c 00       	mov    0x2c0924,%eax
  1006bc:	66 a3 28 09 2c 00    	mov    %ax,0x2c0928
  1006c2:	c9                   	leave  
  1006c3:	c3                   	ret    

001006c4 <cpu_op_bpl>:
  1006c4:	55                   	push   %ebp
  1006c5:	89 e5                	mov    %esp,%ebp
  1006c7:	83 ec 0c             	sub    $0xc,%esp
  1006ca:	6a 07                	push   $0x7
  1006cc:	0f b6 05 2e 09 2c 00 	movzbl 0x2c092e,%eax
  1006d3:	31 d2                	xor    %edx,%edx
  1006d5:	52                   	push   %edx
  1006d6:	50                   	push   %eax
  1006d7:	e8 d8 29 00 00       	call   1030b4 <common_bit_set>
  1006dc:	83 c4 10             	add    $0x10,%esp
  1006df:	85 c0                	test   %eax,%eax
  1006e1:	75 0b                	jne    1006ee <cpu_op_bpl+0x2a>
  1006e3:	a1 24 09 2c 00       	mov    0x2c0924,%eax
  1006e8:	66 a3 28 09 2c 00    	mov    %ax,0x2c0928
  1006ee:	c9                   	leave  
  1006ef:	c3                   	ret    

001006f0 <cpu_op_bvc>:
  1006f0:	55                   	push   %ebp
  1006f1:	89 e5                	mov    %esp,%ebp
  1006f3:	83 ec 0c             	sub    $0xc,%esp
  1006f6:	6a 06                	push   $0x6
  1006f8:	0f b6 05 2e 09 2c 00 	movzbl 0x2c092e,%eax
  1006ff:	31 d2                	xor    %edx,%edx
  100701:	52                   	push   %edx
  100702:	50                   	push   %eax
  100703:	e8 ac 29 00 00       	call   1030b4 <common_bit_set>
  100708:	83 c4 10             	add    $0x10,%esp
  10070b:	85 c0                	test   %eax,%eax
  10070d:	75 0b                	jne    10071a <cpu_op_bvc+0x2a>
  10070f:	a1 24 09 2c 00       	mov    0x2c0924,%eax
  100714:	66 a3 28 09 2c 00    	mov    %ax,0x2c0928
  10071a:	c9                   	leave  
  10071b:	c3                   	ret    

0010071c <cpu_op_adc>:
  10071c:	55                   	push   %ebp
  10071d:	89 e5                	mov    %esp,%ebp
  10071f:	53                   	push   %ebx
  100720:	83 ec 08             	sub    $0x8,%esp
  100723:	0f b6 1d 2b 09 2c 00 	movzbl 0x2c092b,%ebx
  10072a:	03 1d 20 09 2c 00    	add    0x2c0920,%ebx
  100730:	6a 00                	push   $0x0
  100732:	0f b6 05 2e 09 2c 00 	movzbl 0x2c092e,%eax
  100739:	31 d2                	xor    %edx,%edx
  10073b:	52                   	push   %edx
  10073c:	50                   	push   %eax
  10073d:	e8 72 29 00 00       	call   1030b4 <common_bit_set>
  100742:	83 c4 0c             	add    $0xc,%esp
  100745:	85 c0                	test   %eax,%eax
  100747:	0f 95 c0             	setne  %al
  10074a:	0f b6 c0             	movzbl %al,%eax
  10074d:	01 c3                	add    %eax,%ebx
  10074f:	89 d8                	mov    %ebx,%eax
  100751:	c1 e8 08             	shr    $0x8,%eax
  100754:	83 e0 01             	and    $0x1,%eax
  100757:	50                   	push   %eax
  100758:	6a 00                	push   $0x0
  10075a:	68 2e 09 2c 00       	push   $0x2c092e
  10075f:	e8 ac 29 00 00       	call   103110 <common_modify_bitb>
  100764:	0f b6 15 2b 09 2c 00 	movzbl 0x2c092b,%edx
  10076b:	83 c4 0c             	add    $0xc,%esp
  10076e:	a1 20 09 2c 00       	mov    0x2c0920,%eax
  100773:	31 d0                	xor    %edx,%eax
  100775:	f7 d0                	not    %eax
  100777:	31 da                	xor    %ebx,%edx
  100779:	21 d0                	and    %edx,%eax
  10077b:	c1 e8 07             	shr    $0x7,%eax
  10077e:	83 e0 01             	and    $0x1,%eax
  100781:	50                   	push   %eax
  100782:	6a 06                	push   $0x6
  100784:	68 2e 09 2c 00       	push   $0x2c092e
  100789:	e8 82 29 00 00       	call   103110 <common_modify_bitb>
  10078e:	88 1d 2b 09 2c 00    	mov    %bl,0x2c092b
  100794:	a0 2e 09 2c 00       	mov    0x2c092e,%al
  100799:	83 e0 7d             	and    $0x7d,%eax
  10079c:	0f b6 db             	movzbl %bl,%ebx
  10079f:	0a 83 a0 4b 10 00    	or     0x104ba0(%ebx),%al
  1007a5:	a2 2e 09 2c 00       	mov    %al,0x2c092e
  1007aa:	83 c4 10             	add    $0x10,%esp
  1007ad:	8b 5d fc             	mov    -0x4(%ebp),%ebx
  1007b0:	c9                   	leave  
  1007b1:	c3                   	ret    
  1007b2:	66 90                	xchg   %ax,%ax

001007b4 <cpu_op_sbc>:
  1007b4:	55                   	push   %ebp
  1007b5:	89 e5                	mov    %esp,%ebp
  1007b7:	53                   	push   %ebx
  1007b8:	83 ec 08             	sub    $0x8,%esp
  1007bb:	0f b6 1d 2b 09 2c 00 	movzbl 0x2c092b,%ebx
  1007c2:	2b 1d 20 09 2c 00    	sub    0x2c0920,%ebx
  1007c8:	6a 00                	push   $0x0
  1007ca:	0f b6 05 2e 09 2c 00 	movzbl 0x2c092e,%eax
  1007d1:	31 d2                	xor    %edx,%edx
  1007d3:	52                   	push   %edx
  1007d4:	50                   	push   %eax
  1007d5:	e8 da 28 00 00       	call   1030b4 <common_bit_set>
  1007da:	83 c4 0c             	add    $0xc,%esp
  1007dd:	85 c0                	test   %eax,%eax
  1007df:	0f 94 c0             	sete   %al
  1007e2:	0f b6 c0             	movzbl %al,%eax
  1007e5:	29 c3                	sub    %eax,%ebx
  1007e7:	31 c0                	xor    %eax,%eax
  1007e9:	f6 c7 01             	test   $0x1,%bh
  1007ec:	0f 94 c0             	sete   %al
  1007ef:	50                   	push   %eax
  1007f0:	6a 00                	push   $0x0
  1007f2:	68 2e 09 2c 00       	push   $0x2c092e
  1007f7:	e8 14 29 00 00       	call   103110 <common_modify_bitb>
  1007fc:	0f b6 15 2b 09 2c 00 	movzbl 0x2c092b,%edx
  100803:	83 c4 0c             	add    $0xc,%esp
  100806:	a1 20 09 2c 00       	mov    0x2c0920,%eax
  10080b:	31 d0                	xor    %edx,%eax
  10080d:	31 da                	xor    %ebx,%edx
  10080f:	21 d0                	and    %edx,%eax
  100811:	c1 e8 07             	shr    $0x7,%eax
  100814:	83 e0 01             	and    $0x1,%eax
  100817:	50                   	push   %eax
  100818:	6a 06                	push   $0x6
  10081a:	68 2e 09 2c 00       	push   $0x2c092e
  10081f:	e8 ec 28 00 00       	call   103110 <common_modify_bitb>
  100824:	88 1d 2b 09 2c 00    	mov    %bl,0x2c092b
  10082a:	a0 2e 09 2c 00       	mov    0x2c092e,%al
  10082f:	83 e0 7d             	and    $0x7d,%eax
  100832:	0f b6 db             	movzbl %bl,%ebx
  100835:	0a 83 a0 4b 10 00    	or     0x104ba0(%ebx),%al
  10083b:	a2 2e 09 2c 00       	mov    %al,0x2c092e
  100840:	83 c4 10             	add    $0x10,%esp
  100843:	8b 5d fc             	mov    -0x4(%ebp),%ebx
  100846:	c9                   	leave  
  100847:	c3                   	ret    

00100848 <cpu_op_ins>:
  100848:	55                   	push   %ebp
  100849:	89 e5                	mov    %esp,%ebp
  10084b:	83 ec 10             	sub    $0x10,%esp
  10084e:	a1 20 09 2c 00       	mov    0x2c0920,%eax
  100853:	40                   	inc    %eax
  100854:	0f b6 c0             	movzbl %al,%eax
  100857:	a3 20 09 2c 00       	mov    %eax,0x2c0920
  10085c:	50                   	push   %eax
  10085d:	0f b7 05 24 09 2c 00 	movzwl 0x2c0924,%eax
  100864:	50                   	push   %eax
  100865:	e8 2e 2a 00 00       	call   103298 <memory_writeb>
  10086a:	83 c4 10             	add    $0x10,%esp
  10086d:	c9                   	leave  
  10086e:	e9 41 ff ff ff       	jmp    1007b4 <cpu_op_sbc>
  100873:	90                   	nop

00100874 <cpu_op_bit>:
  100874:	55                   	push   %ebp
  100875:	89 e5                	mov    %esp,%ebp
  100877:	83 ec 0c             	sub    $0xc,%esp
  10087a:	0f b6 05 2b 09 2c 00 	movzbl 0x2c092b,%eax
  100881:	85 05 20 09 2c 00    	test   %eax,0x2c0920
  100887:	0f 94 c0             	sete   %al
  10088a:	0f b6 c0             	movzbl %al,%eax
  10088d:	50                   	push   %eax
  10088e:	6a 01                	push   $0x1
  100890:	68 2e 09 2c 00       	push   $0x2c092e
  100895:	e8 76 28 00 00       	call   103110 <common_modify_bitb>
  10089a:	a0 2e 09 2c 00       	mov    0x2c092e,%al
  10089f:	83 e0 3f             	and    $0x3f,%eax
  1008a2:	8a 15 20 09 2c 00    	mov    0x2c0920,%dl
  1008a8:	83 e2 c0             	and    $0xffffffc0,%edx
  1008ab:	09 d0                	or     %edx,%eax
  1008ad:	a2 2e 09 2c 00       	mov    %al,0x2c092e
  1008b2:	83 c4 10             	add    $0x10,%esp
  1008b5:	c9                   	leave  
  1008b6:	c3                   	ret    
  1008b7:	90                   	nop

001008b8 <cpu_op_asla>:
  1008b8:	55                   	push   %ebp
  1008b9:	89 e5                	mov    %esp,%ebp
  1008bb:	83 ec 0c             	sub    $0xc,%esp
  1008be:	a0 2b 09 2c 00       	mov    0x2c092b,%al
  1008c3:	83 e0 80             	and    $0xffffff80,%eax
  1008c6:	0f b6 c0             	movzbl %al,%eax
  1008c9:	50                   	push   %eax
  1008ca:	6a 00                	push   $0x0
  1008cc:	68 2e 09 2c 00       	push   $0x2c092e
  1008d1:	e8 3a 28 00 00       	call   103110 <common_modify_bitb>
  1008d6:	a0 2b 09 2c 00       	mov    0x2c092b,%al
  1008db:	d1 e0                	shl    %eax
  1008dd:	a2 2b 09 2c 00       	mov    %al,0x2c092b
  1008e2:	8a 15 2e 09 2c 00    	mov    0x2c092e,%dl
  1008e8:	83 e2 7d             	and    $0x7d,%edx
  1008eb:	0f b6 c0             	movzbl %al,%eax
  1008ee:	0a 90 a0 4b 10 00    	or     0x104ba0(%eax),%dl
  1008f4:	88 15 2e 09 2c 00    	mov    %dl,0x2c092e
  1008fa:	83 c4 10             	add    $0x10,%esp
  1008fd:	c9                   	leave  
  1008fe:	c3                   	ret    
  1008ff:	90                   	nop

00100900 <cpu_op_asl>:
  100900:	55                   	push   %ebp
  100901:	89 e5                	mov    %esp,%ebp
  100903:	83 ec 0c             	sub    $0xc,%esp
  100906:	a1 20 09 2c 00       	mov    0x2c0920,%eax
  10090b:	25 80 00 00 00       	and    $0x80,%eax
  100910:	50                   	push   %eax
  100911:	6a 00                	push   $0x0
  100913:	68 2e 09 2c 00       	push   $0x2c092e
  100918:	e8 f3 27 00 00       	call   103110 <common_modify_bitb>
  10091d:	a1 20 09 2c 00       	mov    0x2c0920,%eax
  100922:	01 c0                	add    %eax,%eax
  100924:	0f b6 c0             	movzbl %al,%eax
  100927:	a3 20 09 2c 00       	mov    %eax,0x2c0920
  10092c:	8a 15 2e 09 2c 00    	mov    0x2c092e,%dl
  100932:	83 e2 7d             	and    $0x7d,%edx
  100935:	0a 90 a0 4b 10 00    	or     0x104ba0(%eax),%dl
  10093b:	88 15 2e 09 2c 00    	mov    %dl,0x2c092e
  100941:	5a                   	pop    %edx
  100942:	59                   	pop    %ecx
  100943:	50                   	push   %eax
  100944:	0f b7 05 24 09 2c 00 	movzwl 0x2c0924,%eax
  10094b:	50                   	push   %eax
  10094c:	e8 47 29 00 00       	call   103298 <memory_writeb>
  100951:	83 c4 10             	add    $0x10,%esp
  100954:	c9                   	leave  
  100955:	c3                   	ret    
  100956:	66 90                	xchg   %ax,%ax

00100958 <cpu_op_aso>:
  100958:	55                   	push   %ebp
  100959:	89 e5                	mov    %esp,%ebp
  10095b:	83 ec 08             	sub    $0x8,%esp
  10095e:	e8 9d ff ff ff       	call   100900 <cpu_op_asl>
  100963:	8a 15 2e 09 2c 00    	mov    0x2c092e,%dl
  100969:	83 e2 7d             	and    $0x7d,%edx
  10096c:	a1 20 09 2c 00       	mov    0x2c0920,%eax
  100971:	0a 05 2b 09 2c 00    	or     0x2c092b,%al
  100977:	a2 2b 09 2c 00       	mov    %al,0x2c092b
  10097c:	0f b6 c0             	movzbl %al,%eax
  10097f:	0a 90 a0 4b 10 00    	or     0x104ba0(%eax),%dl
  100985:	88 15 2e 09 2c 00    	mov    %dl,0x2c092e
  10098b:	c9                   	leave  
  10098c:	c3                   	ret    
  10098d:	8d 76 00             	lea    0x0(%esi),%esi

00100990 <cpu_op_lsra>:
  100990:	55                   	push   %ebp
  100991:	89 e5                	mov    %esp,%ebp
  100993:	53                   	push   %ebx
  100994:	83 ec 08             	sub    $0x8,%esp
  100997:	a0 2b 09 2c 00       	mov    0x2c092b,%al
  10099c:	88 c3                	mov    %al,%bl
  10099e:	d0 eb                	shr    %bl
  1009a0:	83 e0 01             	and    $0x1,%eax
  1009a3:	50                   	push   %eax
  1009a4:	6a 00                	push   $0x0
  1009a6:	68 2e 09 2c 00       	push   $0x2c092e
  1009ab:	e8 60 27 00 00       	call   103110 <common_modify_bitb>
  1009b0:	88 1d 2b 09 2c 00    	mov    %bl,0x2c092b
  1009b6:	a0 2e 09 2c 00       	mov    0x2c092e,%al
  1009bb:	83 e0 7d             	and    $0x7d,%eax
  1009be:	0f b6 db             	movzbl %bl,%ebx
  1009c1:	0a 83 a0 4b 10 00    	or     0x104ba0(%ebx),%al
  1009c7:	a2 2e 09 2c 00       	mov    %al,0x2c092e
  1009cc:	83 c4 10             	add    $0x10,%esp
  1009cf:	8b 5d fc             	mov    -0x4(%ebp),%ebx
  1009d2:	c9                   	leave  
  1009d3:	c3                   	ret    

001009d4 <cpu_op_lsr>:
  1009d4:	55                   	push   %ebp
  1009d5:	89 e5                	mov    %esp,%ebp
  1009d7:	83 ec 0c             	sub    $0xc,%esp
  1009da:	a1 20 09 2c 00       	mov    0x2c0920,%eax
  1009df:	83 e0 01             	and    $0x1,%eax
  1009e2:	50                   	push   %eax
  1009e3:	6a 00                	push   $0x0
  1009e5:	68 2e 09 2c 00       	push   $0x2c092e
  1009ea:	e8 21 27 00 00       	call   103110 <common_modify_bitb>
  1009ef:	a1 20 09 2c 00       	mov    0x2c0920,%eax
  1009f4:	d1 f8                	sar    %eax
  1009f6:	0f b6 c0             	movzbl %al,%eax
  1009f9:	a3 20 09 2c 00       	mov    %eax,0x2c0920
  1009fe:	5a                   	pop    %edx
  1009ff:	59                   	pop    %ecx
  100a00:	50                   	push   %eax
  100a01:	0f b7 05 24 09 2c 00 	movzwl 0x2c0924,%eax
  100a08:	50                   	push   %eax
  100a09:	e8 8a 28 00 00       	call   103298 <memory_writeb>
  100a0e:	a0 2e 09 2c 00       	mov    0x2c092e,%al
  100a13:	83 e0 7d             	and    $0x7d,%eax
  100a16:	8b 15 20 09 2c 00    	mov    0x2c0920,%edx
  100a1c:	0a 82 a0 4b 10 00    	or     0x104ba0(%edx),%al
  100a22:	a2 2e 09 2c 00       	mov    %al,0x2c092e
  100a27:	83 c4 10             	add    $0x10,%esp
  100a2a:	c9                   	leave  
  100a2b:	c3                   	ret    

00100a2c <cpu_op_lse>:
  100a2c:	55                   	push   %ebp
  100a2d:	89 e5                	mov    %esp,%ebp
  100a2f:	83 ec 08             	sub    $0x8,%esp
  100a32:	e8 9d ff ff ff       	call   1009d4 <cpu_op_lsr>
  100a37:	8a 15 2e 09 2c 00    	mov    0x2c092e,%dl
  100a3d:	83 e2 7d             	and    $0x7d,%edx
  100a40:	a1 20 09 2c 00       	mov    0x2c0920,%eax
  100a45:	32 05 2b 09 2c 00    	xor    0x2c092b,%al
  100a4b:	a2 2b 09 2c 00       	mov    %al,0x2c092b
  100a50:	0f b6 c0             	movzbl %al,%eax
  100a53:	0a 90 a0 4b 10 00    	or     0x104ba0(%eax),%dl
  100a59:	88 15 2e 09 2c 00    	mov    %dl,0x2c092e
  100a5f:	c9                   	leave  
  100a60:	c3                   	ret    
  100a61:	8d 76 00             	lea    0x0(%esi),%esi

00100a64 <cpu_op_rola>:
  100a64:	55                   	push   %ebp
  100a65:	89 e5                	mov    %esp,%ebp
  100a67:	56                   	push   %esi
  100a68:	53                   	push   %ebx
  100a69:	0f b6 1d 2b 09 2c 00 	movzbl 0x2c092b,%ebx
  100a70:	8d 34 1b             	lea    (%ebx,%ebx,1),%esi
  100a73:	50                   	push   %eax
  100a74:	6a 00                	push   $0x0
  100a76:	0f b6 05 2e 09 2c 00 	movzbl 0x2c092e,%eax
  100a7d:	31 d2                	xor    %edx,%edx
  100a7f:	52                   	push   %edx
  100a80:	50                   	push   %eax
  100a81:	e8 2e 26 00 00       	call   1030b4 <common_bit_set>
  100a86:	83 c4 0c             	add    $0xc,%esp
  100a89:	31 db                	xor    %ebx,%ebx
  100a8b:	85 c0                	test   %eax,%eax
  100a8d:	0f 95 c3             	setne  %bl
  100a90:	09 f3                	or     %esi,%ebx
  100a92:	31 c0                	xor    %eax,%eax
  100a94:	81 fb ff 00 00 00    	cmp    $0xff,%ebx
  100a9a:	0f 9f c0             	setg   %al
  100a9d:	50                   	push   %eax
  100a9e:	6a 00                	push   $0x0
  100aa0:	68 2e 09 2c 00       	push   $0x2c092e
  100aa5:	e8 66 26 00 00       	call   103110 <common_modify_bitb>
  100aaa:	88 1d 2b 09 2c 00    	mov    %bl,0x2c092b
  100ab0:	a0 2e 09 2c 00       	mov    0x2c092e,%al
  100ab5:	83 e0 7d             	and    $0x7d,%eax
  100ab8:	0f b6 db             	movzbl %bl,%ebx
  100abb:	0a 83 a0 4b 10 00    	or     0x104ba0(%ebx),%al
  100ac1:	a2 2e 09 2c 00       	mov    %al,0x2c092e
  100ac6:	83 c4 10             	add    $0x10,%esp
  100ac9:	8d 65 f8             	lea    -0x8(%ebp),%esp
  100acc:	5b                   	pop    %ebx
  100acd:	5e                   	pop    %esi
  100ace:	5d                   	pop    %ebp
  100acf:	c3                   	ret    

00100ad0 <cpu_op_rol>:
  100ad0:	55                   	push   %ebp
  100ad1:	89 e5                	mov    %esp,%ebp
  100ad3:	83 ec 0c             	sub    $0xc,%esp
  100ad6:	d1 25 20 09 2c 00    	shll   0x2c0920
  100adc:	6a 00                	push   $0x0
  100ade:	0f b6 05 2e 09 2c 00 	movzbl 0x2c092e,%eax
  100ae5:	31 d2                	xor    %edx,%edx
  100ae7:	52                   	push   %edx
  100ae8:	50                   	push   %eax
  100ae9:	e8 c6 25 00 00       	call   1030b4 <common_bit_set>
  100aee:	83 c4 0c             	add    $0xc,%esp
  100af1:	85 c0                	test   %eax,%eax
  100af3:	0f 95 c0             	setne  %al
  100af6:	0f b6 c0             	movzbl %al,%eax
  100af9:	0b 05 20 09 2c 00    	or     0x2c0920,%eax
  100aff:	a3 20 09 2c 00       	mov    %eax,0x2c0920
  100b04:	3d ff 00 00 00       	cmp    $0xff,%eax
  100b09:	0f 9f c0             	setg   %al
  100b0c:	0f b6 c0             	movzbl %al,%eax
  100b0f:	50                   	push   %eax
  100b10:	6a 00                	push   $0x0
  100b12:	68 2e 09 2c 00       	push   $0x2c092e
  100b17:	e8 f4 25 00 00       	call   103110 <common_modify_bitb>
  100b1c:	0f b6 05 20 09 2c 00 	movzbl 0x2c0920,%eax
  100b23:	a3 20 09 2c 00       	mov    %eax,0x2c0920
  100b28:	5a                   	pop    %edx
  100b29:	59                   	pop    %ecx
  100b2a:	50                   	push   %eax
  100b2b:	0f b7 05 24 09 2c 00 	movzwl 0x2c0924,%eax
  100b32:	50                   	push   %eax
  100b33:	e8 60 27 00 00       	call   103298 <memory_writeb>
  100b38:	a0 2e 09 2c 00       	mov    0x2c092e,%al
  100b3d:	83 e0 7d             	and    $0x7d,%eax
  100b40:	8b 15 20 09 2c 00    	mov    0x2c0920,%edx
  100b46:	0a 82 a0 4b 10 00    	or     0x104ba0(%edx),%al
  100b4c:	a2 2e 09 2c 00       	mov    %al,0x2c092e
  100b51:	83 c4 10             	add    $0x10,%esp
  100b54:	c9                   	leave  
  100b55:	c3                   	ret    
  100b56:	66 90                	xchg   %ax,%ax

00100b58 <cpu_op_rla>:
  100b58:	55                   	push   %ebp
  100b59:	89 e5                	mov    %esp,%ebp
  100b5b:	83 ec 08             	sub    $0x8,%esp
  100b5e:	e8 6d ff ff ff       	call   100ad0 <cpu_op_rol>
  100b63:	8a 15 2e 09 2c 00    	mov    0x2c092e,%dl
  100b69:	83 e2 7d             	and    $0x7d,%edx
  100b6c:	a1 20 09 2c 00       	mov    0x2c0920,%eax
  100b71:	22 05 2b 09 2c 00    	and    0x2c092b,%al
  100b77:	a2 2b 09 2c 00       	mov    %al,0x2c092b
  100b7c:	0f b6 c0             	movzbl %al,%eax
  100b7f:	0a 90 a0 4b 10 00    	or     0x104ba0(%eax),%dl
  100b85:	88 15 2e 09 2c 00    	mov    %dl,0x2c092e
  100b8b:	c9                   	leave  
  100b8c:	c3                   	ret    
  100b8d:	8d 76 00             	lea    0x0(%esi),%esi

00100b90 <cpu_op_rora>:
  100b90:	55                   	push   %ebp
  100b91:	89 e5                	mov    %esp,%ebp
  100b93:	53                   	push   %ebx
  100b94:	83 ec 08             	sub    $0x8,%esp
  100b97:	6a 00                	push   $0x0
  100b99:	0f b6 05 2e 09 2c 00 	movzbl 0x2c092e,%eax
  100ba0:	31 d2                	xor    %edx,%edx
  100ba2:	52                   	push   %edx
  100ba3:	50                   	push   %eax
  100ba4:	e8 0b 25 00 00       	call   1030b4 <common_bit_set>
  100ba9:	89 c3                	mov    %eax,%ebx
  100bab:	83 c4 0c             	add    $0xc,%esp
  100bae:	8a 15 2b 09 2c 00    	mov    0x2c092b,%dl
  100bb4:	83 e2 01             	and    $0x1,%edx
  100bb7:	52                   	push   %edx
  100bb8:	6a 00                	push   $0x0
  100bba:	68 2e 09 2c 00       	push   $0x2c092e
  100bbf:	e8 4c 25 00 00       	call   103110 <common_modify_bitb>
  100bc4:	8a 15 2b 09 2c 00    	mov    0x2c092b,%dl
  100bca:	d0 ea                	shr    %dl
  100bcc:	89 d8                	mov    %ebx,%eax
  100bce:	c1 e0 07             	shl    $0x7,%eax
  100bd1:	09 c2                	or     %eax,%edx
  100bd3:	88 15 2b 09 2c 00    	mov    %dl,0x2c092b
  100bd9:	83 c4 0c             	add    $0xc,%esp
  100bdc:	31 c0                	xor    %eax,%eax
  100bde:	84 d2                	test   %dl,%dl
  100be0:	0f 94 c0             	sete   %al
  100be3:	50                   	push   %eax
  100be4:	6a 01                	push   $0x1
  100be6:	68 2e 09 2c 00       	push   $0x2c092e
  100beb:	e8 20 25 00 00       	call   103110 <common_modify_bitb>
  100bf0:	83 c4 0c             	add    $0xc,%esp
  100bf3:	31 c0                	xor    %eax,%eax
  100bf5:	84 db                	test   %bl,%bl
  100bf7:	0f 95 c0             	setne  %al
  100bfa:	50                   	push   %eax
  100bfb:	6a 07                	push   $0x7
  100bfd:	68 2e 09 2c 00       	push   $0x2c092e
  100c02:	e8 09 25 00 00       	call   103110 <common_modify_bitb>
  100c07:	83 c4 10             	add    $0x10,%esp
  100c0a:	8b 5d fc             	mov    -0x4(%ebp),%ebx
  100c0d:	c9                   	leave  
  100c0e:	c3                   	ret    
  100c0f:	90                   	nop

00100c10 <cpu_op_ror>:
  100c10:	55                   	push   %ebp
  100c11:	89 e5                	mov    %esp,%ebp
  100c13:	53                   	push   %ebx
  100c14:	83 ec 08             	sub    $0x8,%esp
  100c17:	6a 00                	push   $0x0
  100c19:	0f b6 05 2e 09 2c 00 	movzbl 0x2c092e,%eax
  100c20:	31 d2                	xor    %edx,%edx
  100c22:	52                   	push   %edx
  100c23:	50                   	push   %eax
  100c24:	e8 8b 24 00 00       	call   1030b4 <common_bit_set>
  100c29:	89 c3                	mov    %eax,%ebx
  100c2b:	83 c4 0c             	add    $0xc,%esp
  100c2e:	a1 20 09 2c 00       	mov    0x2c0920,%eax
  100c33:	83 e0 01             	and    $0x1,%eax
  100c36:	50                   	push   %eax
  100c37:	6a 00                	push   $0x0
  100c39:	68 2e 09 2c 00       	push   $0x2c092e
  100c3e:	e8 cd 24 00 00       	call   103110 <common_modify_bitb>
  100c43:	8b 15 20 09 2c 00    	mov    0x2c0920,%edx
  100c49:	d1 fa                	sar    %edx
  100c4b:	89 d8                	mov    %ebx,%eax
  100c4d:	c1 e0 07             	shl    $0x7,%eax
  100c50:	25 80 7f 00 00       	and    $0x7f80,%eax
  100c55:	09 c2                	or     %eax,%edx
  100c57:	0f b6 d2             	movzbl %dl,%edx
  100c5a:	89 15 20 09 2c 00    	mov    %edx,0x2c0920
  100c60:	83 c4 0c             	add    $0xc,%esp
  100c63:	31 c0                	xor    %eax,%eax
  100c65:	85 d2                	test   %edx,%edx
  100c67:	0f 94 c0             	sete   %al
  100c6a:	50                   	push   %eax
  100c6b:	6a 01                	push   $0x1
  100c6d:	68 2e 09 2c 00       	push   $0x2c092e
  100c72:	e8 99 24 00 00       	call   103110 <common_modify_bitb>
  100c77:	83 c4 0c             	add    $0xc,%esp
  100c7a:	31 c0                	xor    %eax,%eax
  100c7c:	84 db                	test   %bl,%bl
  100c7e:	0f 95 c0             	setne  %al
  100c81:	50                   	push   %eax
  100c82:	6a 07                	push   $0x7
  100c84:	68 2e 09 2c 00       	push   $0x2c092e
  100c89:	e8 82 24 00 00       	call   103110 <common_modify_bitb>
  100c8e:	58                   	pop    %eax
  100c8f:	5a                   	pop    %edx
  100c90:	0f b6 05 20 09 2c 00 	movzbl 0x2c0920,%eax
  100c97:	50                   	push   %eax
  100c98:	0f b7 05 24 09 2c 00 	movzwl 0x2c0924,%eax
  100c9f:	50                   	push   %eax
  100ca0:	e8 f3 25 00 00       	call   103298 <memory_writeb>
  100ca5:	83 c4 10             	add    $0x10,%esp
  100ca8:	8b 5d fc             	mov    -0x4(%ebp),%ebx
  100cab:	c9                   	leave  
  100cac:	c3                   	ret    
  100cad:	8d 76 00             	lea    0x0(%esi),%esi

00100cb0 <cpu_op_rra>:
  100cb0:	55                   	push   %ebp
  100cb1:	89 e5                	mov    %esp,%ebp
  100cb3:	83 ec 08             	sub    $0x8,%esp
  100cb6:	e8 55 ff ff ff       	call   100c10 <cpu_op_ror>
  100cbb:	c9                   	leave  
  100cbc:	e9 5b fa ff ff       	jmp    10071c <cpu_op_adc>
  100cc1:	8d 76 00             	lea    0x0(%esi),%esi

00100cc4 <cpu_op_cmp>:
  100cc4:	55                   	push   %ebp
  100cc5:	89 e5                	mov    %esp,%ebp
  100cc7:	53                   	push   %ebx
  100cc8:	83 ec 08             	sub    $0x8,%esp
  100ccb:	0f b6 1d 2b 09 2c 00 	movzbl 0x2c092b,%ebx
  100cd2:	2b 1d 20 09 2c 00    	sub    0x2c0920,%ebx
  100cd8:	89 d8                	mov    %ebx,%eax
  100cda:	f7 d0                	not    %eax
  100cdc:	c1 e8 1f             	shr    $0x1f,%eax
  100cdf:	50                   	push   %eax
  100ce0:	6a 00                	push   $0x0
  100ce2:	68 2e 09 2c 00       	push   $0x2c092e
  100ce7:	e8 24 24 00 00       	call   103110 <common_modify_bitb>
  100cec:	83 c4 0c             	add    $0xc,%esp
  100cef:	31 c0                	xor    %eax,%eax
  100cf1:	85 db                	test   %ebx,%ebx
  100cf3:	0f 94 c0             	sete   %al
  100cf6:	50                   	push   %eax
  100cf7:	6a 01                	push   $0x1
  100cf9:	68 2e 09 2c 00       	push   $0x2c092e
  100cfe:	e8 0d 24 00 00       	call   103110 <common_modify_bitb>
  100d03:	83 c4 0c             	add    $0xc,%esp
  100d06:	c1 fb 07             	sar    $0x7,%ebx
  100d09:	83 e3 01             	and    $0x1,%ebx
  100d0c:	53                   	push   %ebx
  100d0d:	6a 07                	push   $0x7
  100d0f:	68 2e 09 2c 00       	push   $0x2c092e
  100d14:	e8 f7 23 00 00       	call   103110 <common_modify_bitb>
  100d19:	83 c4 10             	add    $0x10,%esp
  100d1c:	8b 5d fc             	mov    -0x4(%ebp),%ebx
  100d1f:	c9                   	leave  
  100d20:	c3                   	ret    
  100d21:	8d 76 00             	lea    0x0(%esi),%esi

00100d24 <cpu_op_dcm>:
  100d24:	55                   	push   %ebp
  100d25:	89 e5                	mov    %esp,%ebp
  100d27:	83 ec 10             	sub    $0x10,%esp
  100d2a:	a1 20 09 2c 00       	mov    0x2c0920,%eax
  100d2f:	48                   	dec    %eax
  100d30:	0f b6 c0             	movzbl %al,%eax
  100d33:	a3 20 09 2c 00       	mov    %eax,0x2c0920
  100d38:	50                   	push   %eax
  100d39:	0f b7 05 24 09 2c 00 	movzwl 0x2c0924,%eax
  100d40:	50                   	push   %eax
  100d41:	e8 52 25 00 00       	call   103298 <memory_writeb>
  100d46:	83 c4 10             	add    $0x10,%esp
  100d49:	c9                   	leave  
  100d4a:	e9 75 ff ff ff       	jmp    100cc4 <cpu_op_cmp>
  100d4f:	90                   	nop

00100d50 <cpu_op_cpx>:
  100d50:	55                   	push   %ebp
  100d51:	89 e5                	mov    %esp,%ebp
  100d53:	53                   	push   %ebx
  100d54:	83 ec 08             	sub    $0x8,%esp
  100d57:	0f b6 1d 2c 09 2c 00 	movzbl 0x2c092c,%ebx
  100d5e:	2b 1d 20 09 2c 00    	sub    0x2c0920,%ebx
  100d64:	89 d8                	mov    %ebx,%eax
  100d66:	f7 d0                	not    %eax
  100d68:	c1 e8 1f             	shr    $0x1f,%eax
  100d6b:	50                   	push   %eax
  100d6c:	6a 00                	push   $0x0
  100d6e:	68 2e 09 2c 00       	push   $0x2c092e
  100d73:	e8 98 23 00 00       	call   103110 <common_modify_bitb>
  100d78:	83 c4 0c             	add    $0xc,%esp
  100d7b:	31 c0                	xor    %eax,%eax
  100d7d:	85 db                	test   %ebx,%ebx
  100d7f:	0f 94 c0             	sete   %al
  100d82:	50                   	push   %eax
  100d83:	6a 01                	push   $0x1
  100d85:	68 2e 09 2c 00       	push   $0x2c092e
  100d8a:	e8 81 23 00 00       	call   103110 <common_modify_bitb>
  100d8f:	83 c4 0c             	add    $0xc,%esp
  100d92:	c1 fb 07             	sar    $0x7,%ebx
  100d95:	83 e3 01             	and    $0x1,%ebx
  100d98:	53                   	push   %ebx
  100d99:	6a 07                	push   $0x7
  100d9b:	68 2e 09 2c 00       	push   $0x2c092e
  100da0:	e8 6b 23 00 00       	call   103110 <common_modify_bitb>
  100da5:	83 c4 10             	add    $0x10,%esp
  100da8:	8b 5d fc             	mov    -0x4(%ebp),%ebx
  100dab:	c9                   	leave  
  100dac:	c3                   	ret    
  100dad:	8d 76 00             	lea    0x0(%esi),%esi

00100db0 <cpu_op_cpy>:
  100db0:	55                   	push   %ebp
  100db1:	89 e5                	mov    %esp,%ebp
  100db3:	53                   	push   %ebx
  100db4:	83 ec 08             	sub    $0x8,%esp
  100db7:	0f b6 1d 2d 09 2c 00 	movzbl 0x2c092d,%ebx
  100dbe:	2b 1d 20 09 2c 00    	sub    0x2c0920,%ebx
  100dc4:	89 d8                	mov    %ebx,%eax
  100dc6:	f7 d0                	not    %eax
  100dc8:	c1 e8 1f             	shr    $0x1f,%eax
  100dcb:	50                   	push   %eax
  100dcc:	6a 00                	push   $0x0
  100dce:	68 2e 09 2c 00       	push   $0x2c092e
  100dd3:	e8 38 23 00 00       	call   103110 <common_modify_bitb>
  100dd8:	83 c4 0c             	add    $0xc,%esp
  100ddb:	31 c0                	xor    %eax,%eax
  100ddd:	85 db                	test   %ebx,%ebx
  100ddf:	0f 94 c0             	sete   %al
  100de2:	50                   	push   %eax
  100de3:	6a 01                	push   $0x1
  100de5:	68 2e 09 2c 00       	push   $0x2c092e
  100dea:	e8 21 23 00 00       	call   103110 <common_modify_bitb>
  100def:	83 c4 0c             	add    $0xc,%esp
  100df2:	c1 fb 07             	sar    $0x7,%ebx
  100df5:	83 e3 01             	and    $0x1,%ebx
  100df8:	53                   	push   %ebx
  100df9:	6a 07                	push   $0x7
  100dfb:	68 2e 09 2c 00       	push   $0x2c092e
  100e00:	e8 0b 23 00 00       	call   103110 <common_modify_bitb>
  100e05:	83 c4 10             	add    $0x10,%esp
  100e08:	8b 5d fc             	mov    -0x4(%ebp),%ebx
  100e0b:	c9                   	leave  
  100e0c:	c3                   	ret    
  100e0d:	8d 76 00             	lea    0x0(%esi),%esi

00100e10 <cpu_op_clc>:
  100e10:	55                   	push   %ebp
  100e11:	89 e5                	mov    %esp,%ebp
  100e13:	83 ec 10             	sub    $0x10,%esp
  100e16:	6a 00                	push   $0x0
  100e18:	68 2e 09 2c 00       	push   $0x2c092e
  100e1d:	e8 be 22 00 00       	call   1030e0 <common_unset_bitb>
  100e22:	83 c4 10             	add    $0x10,%esp
  100e25:	c9                   	leave  
  100e26:	c3                   	ret    
  100e27:	90                   	nop

00100e28 <cpu_op_cld>:
  100e28:	55                   	push   %ebp
  100e29:	89 e5                	mov    %esp,%ebp
  100e2b:	83 ec 10             	sub    $0x10,%esp
  100e2e:	6a 03                	push   $0x3
  100e30:	68 2e 09 2c 00       	push   $0x2c092e
  100e35:	e8 a6 22 00 00       	call   1030e0 <common_unset_bitb>
  100e3a:	83 c4 10             	add    $0x10,%esp
  100e3d:	c9                   	leave  
  100e3e:	c3                   	ret    
  100e3f:	90                   	nop

00100e40 <cpu_op_cli>:
  100e40:	55                   	push   %ebp
  100e41:	89 e5                	mov    %esp,%ebp
  100e43:	83 ec 10             	sub    $0x10,%esp
  100e46:	6a 02                	push   $0x2
  100e48:	68 2e 09 2c 00       	push   $0x2c092e
  100e4d:	e8 8e 22 00 00       	call   1030e0 <common_unset_bitb>
  100e52:	83 c4 10             	add    $0x10,%esp
  100e55:	c9                   	leave  
  100e56:	c3                   	ret    
  100e57:	90                   	nop

00100e58 <cpu_op_clv>:
  100e58:	55                   	push   %ebp
  100e59:	89 e5                	mov    %esp,%ebp
  100e5b:	83 ec 10             	sub    $0x10,%esp
  100e5e:	6a 06                	push   $0x6
  100e60:	68 2e 09 2c 00       	push   $0x2c092e
  100e65:	e8 76 22 00 00       	call   1030e0 <common_unset_bitb>
  100e6a:	83 c4 10             	add    $0x10,%esp
  100e6d:	c9                   	leave  
  100e6e:	c3                   	ret    
  100e6f:	90                   	nop

00100e70 <cpu_op_sec>:
  100e70:	55                   	push   %ebp
  100e71:	89 e5                	mov    %esp,%ebp
  100e73:	83 ec 10             	sub    $0x10,%esp
  100e76:	6a 00                	push   $0x0
  100e78:	68 2e 09 2c 00       	push   $0x2c092e
  100e7d:	e8 46 22 00 00       	call   1030c8 <common_set_bitb>
  100e82:	83 c4 10             	add    $0x10,%esp
  100e85:	c9                   	leave  
  100e86:	c3                   	ret    
  100e87:	90                   	nop

00100e88 <cpu_op_sed>:
  100e88:	55                   	push   %ebp
  100e89:	89 e5                	mov    %esp,%ebp
  100e8b:	83 ec 10             	sub    $0x10,%esp
  100e8e:	6a 03                	push   $0x3
  100e90:	68 2e 09 2c 00       	push   $0x2c092e
  100e95:	e8 2e 22 00 00       	call   1030c8 <common_set_bitb>
  100e9a:	83 c4 10             	add    $0x10,%esp
  100e9d:	c9                   	leave  
  100e9e:	c3                   	ret    
  100e9f:	90                   	nop

00100ea0 <cpu_op_sei>:
  100ea0:	55                   	push   %ebp
  100ea1:	89 e5                	mov    %esp,%ebp
  100ea3:	83 ec 10             	sub    $0x10,%esp
  100ea6:	6a 02                	push   $0x2
  100ea8:	68 2e 09 2c 00       	push   $0x2c092e
  100ead:	e8 16 22 00 00       	call   1030c8 <common_set_bitb>
  100eb2:	83 c4 10             	add    $0x10,%esp
  100eb5:	c9                   	leave  
  100eb6:	c3                   	ret    
  100eb7:	90                   	nop

00100eb8 <cpu_op_nop>:
  100eb8:	c3                   	ret    
  100eb9:	8d 76 00             	lea    0x0(%esi),%esi

00100ebc <cpu_ram_read>:
  100ebc:	55                   	push   %ebp
  100ebd:	89 e5                	mov    %esp,%ebp
  100ebf:	8b 45 08             	mov    0x8(%ebp),%eax
  100ec2:	25 ff 07 00 00       	and    $0x7ff,%eax
  100ec7:	8a 80 40 09 2c 00    	mov    0x2c0940(%eax),%al
  100ecd:	5d                   	pop    %ebp
  100ece:	c3                   	ret    
  100ecf:	90                   	nop

00100ed0 <cpu_ram_write>:
  100ed0:	55                   	push   %ebp
  100ed1:	89 e5                	mov    %esp,%ebp
  100ed3:	8b 45 08             	mov    0x8(%ebp),%eax
  100ed6:	25 ff 07 00 00       	and    $0x7ff,%eax
  100edb:	8b 55 0c             	mov    0xc(%ebp),%edx
  100ede:	88 90 40 09 2c 00    	mov    %dl,0x2c0940(%eax)
  100ee4:	5d                   	pop    %ebp
  100ee5:	c3                   	ret    
  100ee6:	66 90                	xchg   %ax,%ax

00100ee8 <cpu_nmi_interrupt_address>:
  100ee8:	55                   	push   %ebp
  100ee9:	89 e5                	mov    %esp,%ebp
  100eeb:	83 ec 14             	sub    $0x14,%esp
  100eee:	68 fa ff 00 00       	push   $0xfffa
  100ef3:	e8 70 24 00 00       	call   103368 <memory_readw>
  100ef8:	c9                   	leave  
  100ef9:	c3                   	ret    
  100efa:	66 90                	xchg   %ax,%ax

00100efc <cpu_reset_interrupt_address>:
  100efc:	55                   	push   %ebp
  100efd:	89 e5                	mov    %esp,%ebp
  100eff:	83 ec 14             	sub    $0x14,%esp
  100f02:	68 fc ff 00 00       	push   $0xfffc
  100f07:	e8 5c 24 00 00       	call   103368 <memory_readw>
  100f0c:	c9                   	leave  
  100f0d:	c3                   	ret    
  100f0e:	66 90                	xchg   %ax,%ax

00100f10 <cpu_irq_interrupt_address>:
  100f10:	55                   	push   %ebp
  100f11:	89 e5                	mov    %esp,%ebp
  100f13:	83 ec 14             	sub    $0x14,%esp
  100f16:	68 fe ff 00 00       	push   $0xfffe
  100f1b:	e8 48 24 00 00       	call   103368 <memory_readw>
  100f20:	c9                   	leave  
  100f21:	c3                   	ret    
  100f22:	66 90                	xchg   %ax,%ax

00100f24 <cpu_stack_pushb>:
  100f24:	55                   	push   %ebp
  100f25:	89 e5                	mov    %esp,%ebp
  100f27:	83 ec 10             	sub    $0x10,%esp
  100f2a:	0f b6 05 2a 09 2c 00 	movzbl 0x2c092a,%eax
  100f31:	8d 50 ff             	lea    -0x1(%eax),%edx
  100f34:	88 15 2a 09 2c 00    	mov    %dl,0x2c092a
  100f3a:	0f b6 55 08          	movzbl 0x8(%ebp),%edx
  100f3e:	52                   	push   %edx
  100f3f:	05 00 01 00 00       	add    $0x100,%eax
  100f44:	50                   	push   %eax
  100f45:	e8 4e 23 00 00       	call   103298 <memory_writeb>
  100f4a:	83 c4 10             	add    $0x10,%esp
  100f4d:	c9                   	leave  
  100f4e:	c3                   	ret    
  100f4f:	90                   	nop

00100f50 <cpu_stack_pushw>:
  100f50:	55                   	push   %ebp
  100f51:	89 e5                	mov    %esp,%ebp
  100f53:	83 ec 10             	sub    $0x10,%esp
  100f56:	0f b7 45 08          	movzwl 0x8(%ebp),%eax
  100f5a:	50                   	push   %eax
  100f5b:	0f b6 05 2a 09 2c 00 	movzbl 0x2c092a,%eax
  100f62:	05 ff 00 00 00       	add    $0xff,%eax
  100f67:	50                   	push   %eax
  100f68:	e8 2f 24 00 00       	call   10339c <memory_writew>
  100f6d:	80 2d 2a 09 2c 00 02 	subb   $0x2,0x2c092a
  100f74:	83 c4 10             	add    $0x10,%esp
  100f77:	c9                   	leave  
  100f78:	c3                   	ret    
  100f79:	8d 76 00             	lea    0x0(%esi),%esi

00100f7c <cpu_stack_popb>:
  100f7c:	55                   	push   %ebp
  100f7d:	89 e5                	mov    %esp,%ebp
  100f7f:	83 ec 14             	sub    $0x14,%esp
  100f82:	a0 2a 09 2c 00       	mov    0x2c092a,%al
  100f87:	40                   	inc    %eax
  100f88:	a2 2a 09 2c 00       	mov    %al,0x2c092a
  100f8d:	0f b6 c0             	movzbl %al,%eax
  100f90:	05 00 01 00 00       	add    $0x100,%eax
  100f95:	50                   	push   %eax
  100f96:	e8 95 22 00 00       	call   103230 <memory_readb>
  100f9b:	c9                   	leave  
  100f9c:	c3                   	ret    
  100f9d:	8d 76 00             	lea    0x0(%esi),%esi

00100fa0 <cpu_stack_popw>:
  100fa0:	55                   	push   %ebp
  100fa1:	89 e5                	mov    %esp,%ebp
  100fa3:	83 ec 14             	sub    $0x14,%esp
  100fa6:	a0 2a 09 2c 00       	mov    0x2c092a,%al
  100fab:	83 c0 02             	add    $0x2,%eax
  100fae:	a2 2a 09 2c 00       	mov    %al,0x2c092a
  100fb3:	0f b6 c0             	movzbl %al,%eax
  100fb6:	05 ff 00 00 00       	add    $0xff,%eax
  100fbb:	50                   	push   %eax
  100fbc:	e8 a7 23 00 00       	call   103368 <memory_readw>
  100fc1:	c9                   	leave  
  100fc2:	c3                   	ret    
  100fc3:	90                   	nop

00100fc4 <cpu_init>:
  100fc4:	c7 05 80 d7 16 00 07 	movl   $0x7,0x16d780
  100fcb:	00 00 00 
  100fce:	c7 05 80 db 16 00 8c 	movl   $0x10048c,0x16db80
  100fd5:	04 10 00 
  100fd8:	c7 05 80 df 16 00 3c 	movl   $0x10423c,0x16df80
  100fdf:	42 10 00 
  100fe2:	c7 05 84 d7 16 00 06 	movl   $0x6,0x16d784
  100fe9:	00 00 00 
  100fec:	c7 05 84 db 16 00 6c 	movl   $0x10006c,0x16db84
  100ff3:	00 10 00 
  100ff6:	c7 05 84 df 16 00 e4 	movl   $0x1044e4,0x16df84
  100ffd:	44 10 00 
  101000:	c7 05 94 d7 16 00 03 	movl   $0x3,0x16d794
  101007:	00 00 00 
  10100a:	c7 05 94 db 16 00 6c 	movl   $0x10006c,0x16db94
  101011:	00 10 00 
  101014:	c7 05 94 df 16 00 68 	movl   $0x104268,0x16df94
  10101b:	42 10 00 
  10101e:	c7 05 98 d7 16 00 05 	movl   $0x5,0x16d798
  101025:	00 00 00 
  101028:	c7 05 98 db 16 00 00 	movl   $0x100900,0x16db98
  10102f:	09 10 00 
  101032:	c7 05 98 df 16 00 68 	movl   $0x104268,0x16df98
  101039:	42 10 00 
  10103c:	c7 05 a0 d7 16 00 03 	movl   $0x3,0x16d7a0
  101043:	00 00 00 
  101046:	c7 05 a0 db 16 00 ec 	movl   $0x1003ec,0x16dba0
  10104d:	03 10 00 
  101050:	c7 05 a0 df 16 00 3c 	movl   $0x10423c,0x16dfa0
  101057:	42 10 00 
  10105a:	c7 05 a4 d7 16 00 02 	movl   $0x2,0x16d7a4
  101061:	00 00 00 
  101064:	c7 05 a4 db 16 00 6c 	movl   $0x10006c,0x16dba4
  10106b:	00 10 00 
  10106e:	c7 05 a4 df 16 00 40 	movl   $0x104240,0x16dfa4
  101075:	42 10 00 
  101078:	c7 05 a8 d7 16 00 02 	movl   $0x2,0x16d7a8
  10107f:	00 00 00 
  101082:	c7 05 a8 db 16 00 b8 	movl   $0x1008b8,0x16dba8
  101089:	08 10 00 
  10108c:	c7 05 a8 df 16 00 3c 	movl   $0x10423c,0x16dfa8
  101093:	42 10 00 
  101096:	c7 05 b4 d7 16 00 04 	movl   $0x4,0x16d7b4
  10109d:	00 00 00 
  1010a0:	c7 05 b4 db 16 00 6c 	movl   $0x10006c,0x16dbb4
  1010a7:	00 10 00 
  1010aa:	c7 05 b4 df 16 00 14 	movl   $0x104314,0x16dfb4
  1010b1:	43 10 00 
  1010b4:	c7 05 b8 d7 16 00 06 	movl   $0x6,0x16d7b8
  1010bb:	00 00 00 
  1010be:	c7 05 b8 db 16 00 00 	movl   $0x100900,0x16dbb8
  1010c5:	09 10 00 
  1010c8:	c7 05 b8 df 16 00 14 	movl   $0x104314,0x16dfb8
  1010cf:	43 10 00 
  1010d2:	c7 05 c0 d7 16 00 02 	movl   $0x2,0x16d7c0
  1010d9:	00 00 00 
  1010dc:	c7 05 c0 db 16 00 c4 	movl   $0x1006c4,0x16dbc0
  1010e3:	06 10 00 
  1010e6:	c7 05 c0 df 16 00 10 	movl   $0x104410,0x16dfc0
  1010ed:	44 10 00 
  1010f0:	c7 05 c4 d7 16 00 05 	movl   $0x5,0x16d7c4
  1010f7:	00 00 00 
  1010fa:	c7 05 c4 db 16 00 6c 	movl   $0x10006c,0x16dbc4
  101101:	00 10 00 
  101104:	c7 05 c4 df 16 00 5c 	movl   $0x10455c,0x16dfc4
  10110b:	45 10 00 
  10110e:	c7 05 d4 d7 16 00 04 	movl   $0x4,0x16d7d4
  101115:	00 00 00 
  101118:	c7 05 d4 db 16 00 6c 	movl   $0x10006c,0x16dbd4
  10111f:	00 10 00 
  101122:	c7 05 d4 df 16 00 9c 	movl   $0x10429c,0x16dfd4
  101129:	42 10 00 
  10112c:	c7 05 d8 d7 16 00 06 	movl   $0x6,0x16d7d8
  101133:	00 00 00 
  101136:	c7 05 d8 db 16 00 00 	movl   $0x100900,0x16dbd8
  10113d:	09 10 00 
  101140:	c7 05 d8 df 16 00 9c 	movl   $0x10429c,0x16dfd8
  101147:	42 10 00 
  10114a:	c7 05 e0 d7 16 00 02 	movl   $0x2,0x16d7e0
  101151:	00 00 00 
  101154:	c7 05 e0 db 16 00 10 	movl   $0x100e10,0x16dbe0
  10115b:	0e 10 00 
  10115e:	c7 05 e0 df 16 00 3c 	movl   $0x10423c,0x16dfe0
  101165:	42 10 00 
  101168:	c7 05 e4 d7 16 00 04 	movl   $0x4,0x16d7e4
  10116f:	00 00 00 
  101172:	c7 05 e4 db 16 00 6c 	movl   $0x10006c,0x16dbe4
  101179:	00 10 00 
  10117c:	c7 05 e4 df 16 00 b0 	movl   $0x1043b0,0x16dfe4
  101183:	43 10 00 
  101186:	c7 05 f4 d7 16 00 04 	movl   $0x4,0x16d7f4
  10118d:	00 00 00 
  101190:	c7 05 f4 db 16 00 6c 	movl   $0x10006c,0x16dbf4
  101197:	00 10 00 
  10119a:	c7 05 f4 df 16 00 4c 	movl   $0x10434c,0x16dff4
  1011a1:	43 10 00 
  1011a4:	c7 05 f8 d7 16 00 07 	movl   $0x7,0x16d7f8
  1011ab:	00 00 00 
  1011ae:	c7 05 f8 db 16 00 00 	movl   $0x100900,0x16dbf8
  1011b5:	09 10 00 
  1011b8:	c7 05 f8 df 16 00 4c 	movl   $0x10434c,0x16dff8
  1011bf:	43 10 00 
  1011c2:	c7 05 00 d8 16 00 06 	movl   $0x6,0x16d800
  1011c9:	00 00 00 
  1011cc:	c7 05 00 dc 16 00 50 	movl   $0x100450,0x16dc00
  1011d3:	04 10 00 
  1011d6:	c7 05 00 e0 16 00 14 	movl   $0x104314,0x16e000
  1011dd:	43 10 00 
  1011e0:	c7 05 04 d8 16 00 06 	movl   $0x6,0x16d804
  1011e7:	00 00 00 
  1011ea:	c7 05 04 dc 16 00 14 	movl   $0x100014,0x16dc04
  1011f1:	00 10 00 
  1011f4:	c7 05 04 e0 16 00 e4 	movl   $0x1044e4,0x16e004
  1011fb:	44 10 00 
  1011fe:	c7 05 10 d8 16 00 03 	movl   $0x3,0x16d810
  101205:	00 00 00 
  101208:	c7 05 10 dc 16 00 74 	movl   $0x100874,0x16dc10
  10120f:	08 10 00 
  101212:	c7 05 10 e0 16 00 68 	movl   $0x104268,0x16e010
  101219:	42 10 00 
  10121c:	c7 05 14 d8 16 00 03 	movl   $0x3,0x16d814
  101223:	00 00 00 
  101226:	c7 05 14 dc 16 00 14 	movl   $0x100014,0x16dc14
  10122d:	00 10 00 
  101230:	c7 05 14 e0 16 00 68 	movl   $0x104268,0x16e014
  101237:	42 10 00 
  10123a:	c7 05 18 d8 16 00 05 	movl   $0x5,0x16d818
  101241:	00 00 00 
  101244:	c7 05 18 dc 16 00 d0 	movl   $0x100ad0,0x16dc18
  10124b:	0a 10 00 
  10124e:	c7 05 18 e0 16 00 68 	movl   $0x104268,0x16e018
  101255:	42 10 00 
  101258:	c7 05 20 d8 16 00 04 	movl   $0x4,0x16d820
  10125f:	00 00 00 
  101262:	c7 05 20 dc 16 00 3c 	movl   $0x10053c,0x16dc20
  101269:	05 10 00 
  10126c:	c7 05 20 e0 16 00 3c 	movl   $0x10423c,0x16e020
  101273:	42 10 00 
  101276:	c7 05 24 d8 16 00 02 	movl   $0x2,0x16d824
  10127d:	00 00 00 
  101280:	c7 05 24 dc 16 00 14 	movl   $0x100014,0x16dc24
  101287:	00 10 00 
  10128a:	c7 05 24 e0 16 00 40 	movl   $0x104240,0x16e024
  101291:	42 10 00 
  101294:	c7 05 28 d8 16 00 02 	movl   $0x2,0x16d828
  10129b:	00 00 00 
  10129e:	c7 05 28 dc 16 00 64 	movl   $0x100a64,0x16dc28
  1012a5:	0a 10 00 
  1012a8:	c7 05 28 e0 16 00 3c 	movl   $0x10423c,0x16e028
  1012af:	42 10 00 
  1012b2:	c7 05 30 d8 16 00 04 	movl   $0x4,0x16d830
  1012b9:	00 00 00 
  1012bc:	c7 05 30 dc 16 00 74 	movl   $0x100874,0x16dc30
  1012c3:	08 10 00 
  1012c6:	c7 05 30 e0 16 00 14 	movl   $0x104314,0x16e030
  1012cd:	43 10 00 
  1012d0:	c7 05 34 d8 16 00 02 	movl   $0x2,0x16d834
  1012d7:	00 00 00 
  1012da:	c7 05 34 dc 16 00 14 	movl   $0x100014,0x16dc34
  1012e1:	00 10 00 
  1012e4:	c7 05 34 e0 16 00 14 	movl   $0x104314,0x16e034
  1012eb:	43 10 00 
  1012ee:	c7 05 38 d8 16 00 06 	movl   $0x6,0x16d838
  1012f5:	00 00 00 
  1012f8:	c7 05 38 dc 16 00 d0 	movl   $0x100ad0,0x16dc38
  1012ff:	0a 10 00 
  101302:	c7 05 38 e0 16 00 14 	movl   $0x104314,0x16e038
  101309:	43 10 00 
  10130c:	c7 05 40 d8 16 00 02 	movl   $0x2,0x16d840
  101313:	00 00 00 
  101316:	c7 05 40 dc 16 00 14 	movl   $0x100614,0x16dc40
  10131d:	06 10 00 
  101320:	c7 05 40 e0 16 00 10 	movl   $0x104410,0x16e040
  101327:	44 10 00 
  10132a:	c7 05 44 d8 16 00 05 	movl   $0x5,0x16d844
  101331:	00 00 00 
  101334:	c7 05 44 dc 16 00 14 	movl   $0x100014,0x16dc44
  10133b:	00 10 00 
  10133e:	c7 05 44 e0 16 00 5c 	movl   $0x10455c,0x16e044
  101345:	45 10 00 
  101348:	c7 05 54 d8 16 00 04 	movl   $0x4,0x16d854
  10134f:	00 00 00 
  101352:	c7 05 54 dc 16 00 14 	movl   $0x100014,0x16dc54
  101359:	00 10 00 
  10135c:	c7 05 54 e0 16 00 9c 	movl   $0x10429c,0x16e054
  101363:	42 10 00 
  101366:	c7 05 58 d8 16 00 06 	movl   $0x6,0x16d858
  10136d:	00 00 00 
  101370:	c7 05 58 dc 16 00 d0 	movl   $0x100ad0,0x16dc58
  101377:	0a 10 00 
  10137a:	c7 05 58 e0 16 00 9c 	movl   $0x10429c,0x16e058
  101381:	42 10 00 
  101384:	c7 05 60 d8 16 00 02 	movl   $0x2,0x16d860
  10138b:	00 00 00 
  10138e:	c7 05 60 dc 16 00 70 	movl   $0x100e70,0x16dc60
  101395:	0e 10 00 
  101398:	c7 05 60 e0 16 00 3c 	movl   $0x10423c,0x16e060
  10139f:	42 10 00 
  1013a2:	c7 05 64 d8 16 00 04 	movl   $0x4,0x16d864
  1013a9:	00 00 00 
  1013ac:	c7 05 64 dc 16 00 14 	movl   $0x100014,0x16dc64
  1013b3:	00 10 00 
  1013b6:	c7 05 64 e0 16 00 b0 	movl   $0x1043b0,0x16e064
  1013bd:	43 10 00 
  1013c0:	c7 05 74 d8 16 00 04 	movl   $0x4,0x16d874
  1013c7:	00 00 00 
  1013ca:	c7 05 74 dc 16 00 14 	movl   $0x100014,0x16dc74
  1013d1:	00 10 00 
  1013d4:	c7 05 74 e0 16 00 4c 	movl   $0x10434c,0x16e074
  1013db:	43 10 00 
  1013de:	c7 05 78 d8 16 00 07 	movl   $0x7,0x16d878
  1013e5:	00 00 00 
  1013e8:	c7 05 78 dc 16 00 d0 	movl   $0x100ad0,0x16dc78
  1013ef:	0a 10 00 
  1013f2:	c7 05 78 e0 16 00 4c 	movl   $0x10434c,0x16e078
  1013f9:	43 10 00 
  1013fc:	c7 05 80 d8 16 00 06 	movl   $0x6,0x16d880
  101403:	00 00 00 
  101406:	c7 05 80 dc 16 00 6c 	movl   $0x10056c,0x16dc80
  10140d:	05 10 00 
  101410:	c7 05 80 e0 16 00 3c 	movl   $0x10423c,0x16e080
  101417:	42 10 00 
  10141a:	c7 05 84 d8 16 00 06 	movl   $0x6,0x16d884
  101421:	00 00 00 
  101424:	c7 05 84 dc 16 00 40 	movl   $0x100040,0x16dc84
  10142b:	00 10 00 
  10142e:	c7 05 84 e0 16 00 e4 	movl   $0x1044e4,0x16e084
  101435:	44 10 00 
  101438:	c7 05 94 d8 16 00 03 	movl   $0x3,0x16d894
  10143f:	00 00 00 
  101442:	c7 05 94 dc 16 00 40 	movl   $0x100040,0x16dc94
  101449:	00 10 00 
  10144c:	c7 05 94 e0 16 00 68 	movl   $0x104268,0x16e094
  101453:	42 10 00 
  101456:	c7 05 98 d8 16 00 05 	movl   $0x5,0x16d898
  10145d:	00 00 00 
  101460:	c7 05 98 dc 16 00 d4 	movl   $0x1009d4,0x16dc98
  101467:	09 10 00 
  10146a:	c7 05 98 e0 16 00 68 	movl   $0x104268,0x16e098
  101471:	42 10 00 
  101474:	c7 05 a0 d8 16 00 03 	movl   $0x3,0x16d8a0
  10147b:	00 00 00 
  10147e:	c7 05 a0 dc 16 00 20 	movl   $0x100420,0x16dca0
  101485:	04 10 00 
  101488:	c7 05 a0 e0 16 00 3c 	movl   $0x10423c,0x16e0a0
  10148f:	42 10 00 
  101492:	c7 05 a4 d8 16 00 02 	movl   $0x2,0x16d8a4
  101499:	00 00 00 
  10149c:	c7 05 a4 dc 16 00 40 	movl   $0x100040,0x16dca4
  1014a3:	00 10 00 
  1014a6:	c7 05 a4 e0 16 00 40 	movl   $0x104240,0x16e0a4
  1014ad:	42 10 00 
  1014b0:	c7 05 a8 d8 16 00 02 	movl   $0x2,0x16d8a8
  1014b7:	00 00 00 
  1014ba:	c7 05 a8 dc 16 00 90 	movl   $0x100990,0x16dca8
  1014c1:	09 10 00 
  1014c4:	c7 05 a8 e0 16 00 3c 	movl   $0x10423c,0x16e0a8
  1014cb:	42 10 00 
  1014ce:	c7 05 b0 d8 16 00 03 	movl   $0x3,0x16d8b0
  1014d5:	00 00 00 
  1014d8:	c7 05 b0 dc 16 00 c4 	movl   $0x1001c4,0x16dcb0
  1014df:	01 10 00 
  1014e2:	c7 05 b0 e0 16 00 14 	movl   $0x104314,0x16e0b0
  1014e9:	43 10 00 
  1014ec:	c7 05 b4 d8 16 00 04 	movl   $0x4,0x16d8b4
  1014f3:	00 00 00 
  1014f6:	c7 05 b4 dc 16 00 40 	movl   $0x100040,0x16dcb4
  1014fd:	00 10 00 
  101500:	c7 05 b4 e0 16 00 14 	movl   $0x104314,0x16e0b4
  101507:	43 10 00 
  10150a:	c7 05 b8 d8 16 00 06 	movl   $0x6,0x16d8b8
  101511:	00 00 00 
  101514:	c7 05 b8 dc 16 00 d4 	movl   $0x1009d4,0x16dcb8
  10151b:	09 10 00 
  10151e:	c7 05 b8 e0 16 00 14 	movl   $0x104314,0x16e0b8
  101525:	43 10 00 
  101528:	c7 05 c0 d8 16 00 02 	movl   $0x2,0x16d8c0
  10152f:	00 00 00 
  101532:	c7 05 c0 dc 16 00 f0 	movl   $0x1006f0,0x16dcc0
  101539:	06 10 00 
  10153c:	c7 05 c0 e0 16 00 10 	movl   $0x104410,0x16e0c0
  101543:	44 10 00 
  101546:	c7 05 c4 d8 16 00 05 	movl   $0x5,0x16d8c4
  10154d:	00 00 00 
  101550:	c7 05 c4 dc 16 00 40 	movl   $0x100040,0x16dcc4
  101557:	00 10 00 
  10155a:	c7 05 c4 e0 16 00 5c 	movl   $0x10455c,0x16e0c4
  101561:	45 10 00 
  101564:	c7 05 d4 d8 16 00 04 	movl   $0x4,0x16d8d4
  10156b:	00 00 00 
  10156e:	c7 05 d4 dc 16 00 40 	movl   $0x100040,0x16dcd4
  101575:	00 10 00 
  101578:	c7 05 d4 e0 16 00 9c 	movl   $0x10429c,0x16e0d4
  10157f:	42 10 00 
  101582:	c7 05 d8 d8 16 00 06 	movl   $0x6,0x16d8d8
  101589:	00 00 00 
  10158c:	c7 05 d8 dc 16 00 d4 	movl   $0x1009d4,0x16dcd8
  101593:	09 10 00 
  101596:	c7 05 d8 e0 16 00 9c 	movl   $0x10429c,0x16e0d8
  10159d:	42 10 00 
  1015a0:	c7 05 e0 d8 16 00 02 	movl   $0x2,0x16d8e0
  1015a7:	00 00 00 
  1015aa:	c7 05 e0 dc 16 00 40 	movl   $0x100e40,0x16dce0
  1015b1:	0e 10 00 
  1015b4:	c7 05 e0 e0 16 00 3c 	movl   $0x10423c,0x16e0e0
  1015bb:	42 10 00 
  1015be:	c7 05 e4 d8 16 00 04 	movl   $0x4,0x16d8e4
  1015c5:	00 00 00 
  1015c8:	c7 05 e4 dc 16 00 40 	movl   $0x100040,0x16dce4
  1015cf:	00 10 00 
  1015d2:	c7 05 e4 e0 16 00 b0 	movl   $0x1043b0,0x16e0e4
  1015d9:	43 10 00 
  1015dc:	c7 05 f4 d8 16 00 04 	movl   $0x4,0x16d8f4
  1015e3:	00 00 00 
  1015e6:	c7 05 f4 dc 16 00 40 	movl   $0x100040,0x16dcf4
  1015ed:	00 10 00 
  1015f0:	c7 05 f4 e0 16 00 4c 	movl   $0x10434c,0x16e0f4
  1015f7:	43 10 00 
  1015fa:	c7 05 f8 d8 16 00 07 	movl   $0x7,0x16d8f8
  101601:	00 00 00 
  101604:	c7 05 f8 dc 16 00 d4 	movl   $0x1009d4,0x16dcf8
  10160b:	09 10 00 
  10160e:	c7 05 f8 e0 16 00 4c 	movl   $0x10434c,0x16e0f8
  101615:	43 10 00 
  101618:	c7 05 00 d9 16 00 06 	movl   $0x6,0x16d900
  10161f:	00 00 00 
  101622:	c7 05 00 dd 16 00 8c 	movl   $0x10028c,0x16dd00
  101629:	02 10 00 
  10162c:	c7 05 00 e1 16 00 3c 	movl   $0x10423c,0x16e100
  101633:	42 10 00 
  101636:	c7 05 04 d9 16 00 06 	movl   $0x6,0x16d904
  10163d:	00 00 00 
  101640:	c7 05 04 dd 16 00 1c 	movl   $0x10071c,0x16dd04
  101647:	07 10 00 
  10164a:	c7 05 04 e1 16 00 e4 	movl   $0x1044e4,0x16e104
  101651:	44 10 00 
  101654:	c7 05 14 d9 16 00 03 	movl   $0x3,0x16d914
  10165b:	00 00 00 
  10165e:	c7 05 14 dd 16 00 1c 	movl   $0x10071c,0x16dd14
  101665:	07 10 00 
  101668:	c7 05 14 e1 16 00 68 	movl   $0x104268,0x16e114
  10166f:	42 10 00 
  101672:	c7 05 18 d9 16 00 05 	movl   $0x5,0x16d918
  101679:	00 00 00 
  10167c:	c7 05 18 dd 16 00 10 	movl   $0x100c10,0x16dd18
  101683:	0c 10 00 
  101686:	c7 05 18 e1 16 00 68 	movl   $0x104268,0x16e118
  10168d:	42 10 00 
  101690:	c7 05 20 d9 16 00 04 	movl   $0x4,0x16d920
  101697:	00 00 00 
  10169a:	c7 05 20 dd 16 00 f8 	movl   $0x1004f8,0x16dd20
  1016a1:	04 10 00 
  1016a4:	c7 05 20 e1 16 00 3c 	movl   $0x10423c,0x16e120
  1016ab:	42 10 00 
  1016ae:	c7 05 24 d9 16 00 02 	movl   $0x2,0x16d924
  1016b5:	00 00 00 
  1016b8:	c7 05 24 dd 16 00 1c 	movl   $0x10071c,0x16dd24
  1016bf:	07 10 00 
  1016c2:	c7 05 24 e1 16 00 40 	movl   $0x104240,0x16e124
  1016c9:	42 10 00 
  1016cc:	c7 05 28 d9 16 00 02 	movl   $0x2,0x16d928
  1016d3:	00 00 00 
  1016d6:	c7 05 28 dd 16 00 90 	movl   $0x100b90,0x16dd28
  1016dd:	0b 10 00 
  1016e0:	c7 05 28 e1 16 00 3c 	movl   $0x10423c,0x16e128
  1016e7:	42 10 00 
  1016ea:	c7 05 30 d9 16 00 05 	movl   $0x5,0x16d930
  1016f1:	00 00 00 
  1016f4:	c7 05 30 dd 16 00 c4 	movl   $0x1001c4,0x16dd30
  1016fb:	01 10 00 
  1016fe:	c7 05 30 e1 16 00 60 	movl   $0x104460,0x16e130
  101705:	44 10 00 
  101708:	c7 05 34 d9 16 00 04 	movl   $0x4,0x16d934
  10170f:	00 00 00 
  101712:	c7 05 34 dd 16 00 1c 	movl   $0x10071c,0x16dd34
  101719:	07 10 00 
  10171c:	c7 05 34 e1 16 00 14 	movl   $0x104314,0x16e134
  101723:	43 10 00 
  101726:	c7 05 38 d9 16 00 06 	movl   $0x6,0x16d938
  10172d:	00 00 00 
  101730:	c7 05 38 dd 16 00 10 	movl   $0x100c10,0x16dd38
  101737:	0c 10 00 
  10173a:	c7 05 38 e1 16 00 14 	movl   $0x104314,0x16e138
  101741:	43 10 00 
  101744:	c7 05 40 d9 16 00 02 	movl   $0x2,0x16d940
  10174b:	00 00 00 
  10174e:	c7 05 40 dd 16 00 40 	movl   $0x100640,0x16dd40
  101755:	06 10 00 
  101758:	c7 05 40 e1 16 00 10 	movl   $0x104410,0x16e140
  10175f:	44 10 00 
  101762:	c7 05 44 d9 16 00 05 	movl   $0x5,0x16d944
  101769:	00 00 00 
  10176c:	c7 05 44 dd 16 00 1c 	movl   $0x10071c,0x16dd44
  101773:	07 10 00 
  101776:	c7 05 44 e1 16 00 5c 	movl   $0x10455c,0x16e144
  10177d:	45 10 00 
  101780:	c7 05 54 d9 16 00 04 	movl   $0x4,0x16d954
  101787:	00 00 00 
  10178a:	c7 05 54 dd 16 00 1c 	movl   $0x10071c,0x16dd54
  101791:	07 10 00 
  101794:	c7 05 54 e1 16 00 9c 	movl   $0x10429c,0x16e154
  10179b:	42 10 00 
  10179e:	c7 05 58 d9 16 00 06 	movl   $0x6,0x16d958
  1017a5:	00 00 00 
  1017a8:	c7 05 58 dd 16 00 10 	movl   $0x100c10,0x16dd58
  1017af:	0c 10 00 
  1017b2:	c7 05 58 e1 16 00 9c 	movl   $0x10429c,0x16e158
  1017b9:	42 10 00 
  1017bc:	c7 05 60 d9 16 00 02 	movl   $0x2,0x16d960
  1017c3:	00 00 00 
  1017c6:	c7 05 60 dd 16 00 a0 	movl   $0x100ea0,0x16dd60
  1017cd:	0e 10 00 
  1017d0:	c7 05 60 e1 16 00 3c 	movl   $0x10423c,0x16e160
  1017d7:	42 10 00 
  1017da:	c7 05 64 d9 16 00 04 	movl   $0x4,0x16d964
  1017e1:	00 00 00 
  1017e4:	c7 05 64 dd 16 00 1c 	movl   $0x10071c,0x16dd64
  1017eb:	07 10 00 
  1017ee:	c7 05 64 e1 16 00 b0 	movl   $0x1043b0,0x16e164
  1017f5:	43 10 00 
  1017f8:	c7 05 74 d9 16 00 04 	movl   $0x4,0x16d974
  1017ff:	00 00 00 
  101802:	c7 05 74 dd 16 00 1c 	movl   $0x10071c,0x16dd74
  101809:	07 10 00 
  10180c:	c7 05 74 e1 16 00 4c 	movl   $0x10434c,0x16e174
  101813:	43 10 00 
  101816:	c7 05 78 d9 16 00 07 	movl   $0x7,0x16d978
  10181d:	00 00 00 
  101820:	c7 05 78 dd 16 00 10 	movl   $0x100c10,0x16dd78
  101827:	0c 10 00 
  10182a:	c7 05 78 e1 16 00 4c 	movl   $0x10434c,0x16e178
  101831:	43 10 00 
  101834:	c7 05 84 d9 16 00 06 	movl   $0x6,0x16d984
  10183b:	00 00 00 
  10183e:	c7 05 84 dd 16 00 bc 	movl   $0x1002bc,0x16dd84
  101845:	02 10 00 
  101848:	c7 05 84 e1 16 00 e4 	movl   $0x1044e4,0x16e184
  10184f:	44 10 00 
  101852:	c7 05 90 d9 16 00 03 	movl   $0x3,0x16d990
  101859:	00 00 00 
  10185c:	c7 05 90 dd 16 00 fc 	movl   $0x1002fc,0x16dd90
  101863:	02 10 00 
  101866:	c7 05 90 e1 16 00 68 	movl   $0x104268,0x16e190
  10186d:	42 10 00 
  101870:	c7 05 94 d9 16 00 03 	movl   $0x3,0x16d994
  101877:	00 00 00 
  10187a:	c7 05 94 dd 16 00 bc 	movl   $0x1002bc,0x16dd94
  101881:	02 10 00 
  101884:	c7 05 94 e1 16 00 68 	movl   $0x104268,0x16e194
  10188b:	42 10 00 
  10188e:	c7 05 98 d9 16 00 03 	movl   $0x3,0x16d998
  101895:	00 00 00 
  101898:	c7 05 98 dd 16 00 dc 	movl   $0x1002dc,0x16dd98
  10189f:	02 10 00 
  1018a2:	c7 05 98 e1 16 00 68 	movl   $0x104268,0x16e198
  1018a9:	42 10 00 
  1018ac:	c7 05 a0 d9 16 00 02 	movl   $0x2,0x16d9a0
  1018b3:	00 00 00 
  1018b6:	c7 05 a0 dd 16 00 3c 	movl   $0x10023c,0x16dda0
  1018bd:	02 10 00 
  1018c0:	c7 05 a0 e1 16 00 3c 	movl   $0x10423c,0x16e1a0
  1018c7:	42 10 00 
  1018ca:	c7 05 a8 d9 16 00 02 	movl   $0x2,0x16d9a8
  1018d1:	00 00 00 
  1018d4:	c7 05 a8 dd 16 00 28 	movl   $0x100128,0x16dda8
  1018db:	01 10 00 
  1018de:	c7 05 a8 e1 16 00 3c 	movl   $0x10423c,0x16e1a8
  1018e5:	42 10 00 
  1018e8:	c7 05 b0 d9 16 00 04 	movl   $0x4,0x16d9b0
  1018ef:	00 00 00 
  1018f2:	c7 05 b0 dd 16 00 fc 	movl   $0x1002fc,0x16ddb0
  1018f9:	02 10 00 
  1018fc:	c7 05 b0 e1 16 00 14 	movl   $0x104314,0x16e1b0
  101903:	43 10 00 
  101906:	c7 05 b4 d9 16 00 04 	movl   $0x4,0x16d9b4
  10190d:	00 00 00 
  101910:	c7 05 b4 dd 16 00 bc 	movl   $0x1002bc,0x16ddb4
  101917:	02 10 00 
  10191a:	c7 05 b4 e1 16 00 14 	movl   $0x104314,0x16e1b4
  101921:	43 10 00 
  101924:	c7 05 b8 d9 16 00 04 	movl   $0x4,0x16d9b8
  10192b:	00 00 00 
  10192e:	c7 05 b8 dd 16 00 dc 	movl   $0x1002dc,0x16ddb8
  101935:	02 10 00 
  101938:	c7 05 b8 e1 16 00 14 	movl   $0x104314,0x16e1b8
  10193f:	43 10 00 
  101942:	c7 05 c0 d9 16 00 02 	movl   $0x2,0x16d9c0
  101949:	00 00 00 
  10194c:	c7 05 c0 dd 16 00 98 	movl   $0x100698,0x16ddc0
  101953:	06 10 00 
  101956:	c7 05 c0 e1 16 00 10 	movl   $0x104410,0x16e1c0
  10195d:	44 10 00 
  101960:	c7 05 c4 d9 16 00 06 	movl   $0x6,0x16d9c4
  101967:	00 00 00 
  10196a:	c7 05 c4 dd 16 00 bc 	movl   $0x1002bc,0x16ddc4
  101971:	02 10 00 
  101974:	c7 05 c4 e1 16 00 5c 	movl   $0x10455c,0x16e1c4
  10197b:	45 10 00 
  10197e:	c7 05 d0 d9 16 00 04 	movl   $0x4,0x16d9d0
  101985:	00 00 00 
  101988:	c7 05 d0 dd 16 00 fc 	movl   $0x1002fc,0x16ddd0
  10198f:	02 10 00 
  101992:	c7 05 d0 e1 16 00 9c 	movl   $0x10429c,0x16e1d0
  101999:	42 10 00 
  10199c:	c7 05 d4 d9 16 00 04 	movl   $0x4,0x16d9d4
  1019a3:	00 00 00 
  1019a6:	c7 05 d4 dd 16 00 bc 	movl   $0x1002bc,0x16ddd4
  1019ad:	02 10 00 
  1019b0:	c7 05 d4 e1 16 00 9c 	movl   $0x10429c,0x16e1d4
  1019b7:	42 10 00 
  1019ba:	c7 05 d8 d9 16 00 04 	movl   $0x4,0x16d9d8
  1019c1:	00 00 00 
  1019c4:	c7 05 d8 dd 16 00 dc 	movl   $0x1002dc,0x16ddd8
  1019cb:	02 10 00 
  1019ce:	c7 05 d8 e1 16 00 d8 	movl   $0x1042d8,0x16e1d8
  1019d5:	42 10 00 
  1019d8:	c7 05 e0 d9 16 00 02 	movl   $0x2,0x16d9e0
  1019df:	00 00 00 
  1019e2:	c7 05 e0 dd 16 00 70 	movl   $0x100170,0x16dde0
  1019e9:	01 10 00 
  1019ec:	c7 05 e0 e1 16 00 3c 	movl   $0x10423c,0x16e1e0
  1019f3:	42 10 00 
  1019f6:	c7 05 e4 d9 16 00 05 	movl   $0x5,0x16d9e4
  1019fd:	00 00 00 
  101a00:	c7 05 e4 dd 16 00 bc 	movl   $0x1002bc,0x16dde4
  101a07:	02 10 00 
  101a0a:	c7 05 e4 e1 16 00 b0 	movl   $0x1043b0,0x16e1e4
  101a11:	43 10 00 
  101a14:	c7 05 e8 d9 16 00 02 	movl   $0x2,0x16d9e8
  101a1b:	00 00 00 
  101a1e:	c7 05 e8 dd 16 00 b8 	movl   $0x1001b8,0x16dde8
  101a25:	01 10 00 
  101a28:	c7 05 e8 e1 16 00 3c 	movl   $0x10423c,0x16e1e8
  101a2f:	42 10 00 
  101a32:	c7 05 f4 d9 16 00 05 	movl   $0x5,0x16d9f4
  101a39:	00 00 00 
  101a3c:	c7 05 f4 dd 16 00 bc 	movl   $0x1002bc,0x16ddf4
  101a43:	02 10 00 
  101a46:	c7 05 f4 e1 16 00 4c 	movl   $0x10434c,0x16e1f4
  101a4d:	43 10 00 
  101a50:	c7 05 00 da 16 00 02 	movl   $0x2,0x16da00
  101a57:	00 00 00 
  101a5a:	c7 05 00 de 16 00 e0 	movl   $0x1000e0,0x16de00
  101a61:	00 10 00 
  101a64:	c7 05 00 e2 16 00 40 	movl   $0x104240,0x16e200
  101a6b:	42 10 00 
  101a6e:	c7 05 04 da 16 00 06 	movl   $0x6,0x16da04
  101a75:	00 00 00 
  101a78:	c7 05 04 de 16 00 98 	movl   $0x100098,0x16de04
  101a7f:	00 10 00 
  101a82:	c7 05 04 e2 16 00 e4 	movl   $0x1044e4,0x16e204
  101a89:	44 10 00 
  101a8c:	c7 05 08 da 16 00 02 	movl   $0x2,0x16da08
  101a93:	00 00 00 
  101a96:	c7 05 08 de 16 00 bc 	movl   $0x1000bc,0x16de08
  101a9d:	00 10 00 
  101aa0:	c7 05 08 e2 16 00 40 	movl   $0x104240,0x16e208
  101aa7:	42 10 00 
  101aaa:	c7 05 10 da 16 00 03 	movl   $0x3,0x16da10
  101ab1:	00 00 00 
  101ab4:	c7 05 10 de 16 00 e0 	movl   $0x1000e0,0x16de10
  101abb:	00 10 00 
  101abe:	c7 05 10 e2 16 00 68 	movl   $0x104268,0x16e210
  101ac5:	42 10 00 
  101ac8:	c7 05 14 da 16 00 03 	movl   $0x3,0x16da14
  101acf:	00 00 00 
  101ad2:	c7 05 14 de 16 00 98 	movl   $0x100098,0x16de14
  101ad9:	00 10 00 
  101adc:	c7 05 14 e2 16 00 68 	movl   $0x104268,0x16e214
  101ae3:	42 10 00 
  101ae6:	c7 05 18 da 16 00 03 	movl   $0x3,0x16da18
  101aed:	00 00 00 
  101af0:	c7 05 18 de 16 00 bc 	movl   $0x1000bc,0x16de18
  101af7:	00 10 00 
  101afa:	c7 05 18 e2 16 00 68 	movl   $0x104268,0x16e218
  101b01:	42 10 00 
  101b04:	c7 05 20 da 16 00 02 	movl   $0x2,0x16da20
  101b0b:	00 00 00 
  101b0e:	c7 05 20 de 16 00 4c 	movl   $0x10014c,0x16de20
  101b15:	01 10 00 
  101b18:	c7 05 20 e2 16 00 3c 	movl   $0x10423c,0x16e220
  101b1f:	42 10 00 
  101b22:	c7 05 24 da 16 00 02 	movl   $0x2,0x16da24
  101b29:	00 00 00 
  101b2c:	c7 05 24 de 16 00 98 	movl   $0x100098,0x16de24
  101b33:	00 10 00 
  101b36:	c7 05 24 e2 16 00 40 	movl   $0x104240,0x16e224
  101b3d:	42 10 00 
  101b40:	c7 05 28 da 16 00 02 	movl   $0x2,0x16da28
  101b47:	00 00 00 
  101b4a:	c7 05 28 de 16 00 04 	movl   $0x100104,0x16de28
  101b51:	01 10 00 
  101b54:	c7 05 28 e2 16 00 3c 	movl   $0x10423c,0x16e228
  101b5b:	42 10 00 
  101b5e:	c7 05 30 da 16 00 04 	movl   $0x4,0x16da30
  101b65:	00 00 00 
  101b68:	c7 05 30 de 16 00 e0 	movl   $0x1000e0,0x16de30
  101b6f:	00 10 00 
  101b72:	c7 05 30 e2 16 00 14 	movl   $0x104314,0x16e230
  101b79:	43 10 00 
  101b7c:	c7 05 34 da 16 00 04 	movl   $0x4,0x16da34
  101b83:	00 00 00 
  101b86:	c7 05 34 de 16 00 98 	movl   $0x100098,0x16de34
  101b8d:	00 10 00 
  101b90:	c7 05 34 e2 16 00 14 	movl   $0x104314,0x16e234
  101b97:	43 10 00 
  101b9a:	c7 05 38 da 16 00 04 	movl   $0x4,0x16da38
  101ba1:	00 00 00 
  101ba4:	c7 05 38 de 16 00 bc 	movl   $0x1000bc,0x16de38
  101bab:	00 10 00 
  101bae:	c7 05 38 e2 16 00 14 	movl   $0x104314,0x16e238
  101bb5:	43 10 00 
  101bb8:	c7 05 40 da 16 00 02 	movl   $0x2,0x16da40
  101bbf:	00 00 00 
  101bc2:	c7 05 40 de 16 00 bc 	movl   $0x1005bc,0x16de40
  101bc9:	05 10 00 
  101bcc:	c7 05 40 e2 16 00 10 	movl   $0x104410,0x16e240
  101bd3:	44 10 00 
  101bd6:	c7 05 44 da 16 00 05 	movl   $0x5,0x16da44
  101bdd:	00 00 00 
  101be0:	c7 05 44 de 16 00 98 	movl   $0x100098,0x16de44
  101be7:	00 10 00 
  101bea:	c7 05 44 e2 16 00 5c 	movl   $0x10455c,0x16e244
  101bf1:	45 10 00 
  101bf4:	c7 05 50 da 16 00 04 	movl   $0x4,0x16da50
  101bfb:	00 00 00 
  101bfe:	c7 05 50 de 16 00 e0 	movl   $0x1000e0,0x16de50
  101c05:	00 10 00 
  101c08:	c7 05 50 e2 16 00 9c 	movl   $0x10429c,0x16e250
  101c0f:	42 10 00 
  101c12:	c7 05 54 da 16 00 04 	movl   $0x4,0x16da54
  101c19:	00 00 00 
  101c1c:	c7 05 54 de 16 00 98 	movl   $0x100098,0x16de54
  101c23:	00 10 00 
  101c26:	c7 05 54 e2 16 00 9c 	movl   $0x10429c,0x16e254
  101c2d:	42 10 00 
  101c30:	c7 05 58 da 16 00 04 	movl   $0x4,0x16da58
  101c37:	00 00 00 
  101c3a:	c7 05 58 de 16 00 bc 	movl   $0x1000bc,0x16de58
  101c41:	00 10 00 
  101c44:	c7 05 58 e2 16 00 d8 	movl   $0x1042d8,0x16e258
  101c4b:	42 10 00 
  101c4e:	c7 05 60 da 16 00 02 	movl   $0x2,0x16da60
  101c55:	00 00 00 
  101c58:	c7 05 60 de 16 00 58 	movl   $0x100e58,0x16de60
  101c5f:	0e 10 00 
  101c62:	c7 05 60 e2 16 00 3c 	movl   $0x10423c,0x16e260
  101c69:	42 10 00 
  101c6c:	c7 05 64 da 16 00 04 	movl   $0x4,0x16da64
  101c73:	00 00 00 
  101c76:	c7 05 64 de 16 00 98 	movl   $0x100098,0x16de64
  101c7d:	00 10 00 
  101c80:	c7 05 64 e2 16 00 b0 	movl   $0x1043b0,0x16e264
  101c87:	43 10 00 
  101c8a:	c7 05 68 da 16 00 02 	movl   $0x2,0x16da68
  101c91:	00 00 00 
  101c94:	c7 05 68 de 16 00 94 	movl   $0x100194,0x16de68
  101c9b:	01 10 00 
  101c9e:	c7 05 68 e2 16 00 3c 	movl   $0x10423c,0x16e268
  101ca5:	42 10 00 
  101ca8:	c7 05 70 da 16 00 04 	movl   $0x4,0x16da70
  101caf:	00 00 00 
  101cb2:	c7 05 70 de 16 00 e0 	movl   $0x1000e0,0x16de70
  101cb9:	00 10 00 
  101cbc:	c7 05 70 e2 16 00 4c 	movl   $0x10434c,0x16e270
  101cc3:	43 10 00 
  101cc6:	c7 05 74 da 16 00 04 	movl   $0x4,0x16da74
  101ccd:	00 00 00 
  101cd0:	c7 05 74 de 16 00 98 	movl   $0x100098,0x16de74
  101cd7:	00 10 00 
  101cda:	c7 05 74 e2 16 00 4c 	movl   $0x10434c,0x16e274
  101ce1:	43 10 00 
  101ce4:	c7 05 78 da 16 00 04 	movl   $0x4,0x16da78
  101ceb:	00 00 00 
  101cee:	c7 05 78 de 16 00 bc 	movl   $0x1000bc,0x16de78
  101cf5:	00 10 00 
  101cf8:	c7 05 78 e2 16 00 b0 	movl   $0x1043b0,0x16e278
  101cff:	43 10 00 
  101d02:	c7 05 80 da 16 00 02 	movl   $0x2,0x16da80
  101d09:	00 00 00 
  101d0c:	c7 05 80 de 16 00 b0 	movl   $0x100db0,0x16de80
  101d13:	0d 10 00 
  101d16:	c7 05 80 e2 16 00 40 	movl   $0x104240,0x16e280
  101d1d:	42 10 00 
  101d20:	c7 05 84 da 16 00 06 	movl   $0x6,0x16da84
  101d27:	00 00 00 
  101d2a:	c7 05 84 de 16 00 c4 	movl   $0x100cc4,0x16de84
  101d31:	0c 10 00 
  101d34:	c7 05 84 e2 16 00 e4 	movl   $0x1044e4,0x16e284
  101d3b:	44 10 00 
  101d3e:	c7 05 90 da 16 00 03 	movl   $0x3,0x16da90
  101d45:	00 00 00 
  101d48:	c7 05 90 de 16 00 b0 	movl   $0x100db0,0x16de90
  101d4f:	0d 10 00 
  101d52:	c7 05 90 e2 16 00 68 	movl   $0x104268,0x16e290
  101d59:	42 10 00 
  101d5c:	c7 05 94 da 16 00 03 	movl   $0x3,0x16da94
  101d63:	00 00 00 
  101d66:	c7 05 94 de 16 00 c4 	movl   $0x100cc4,0x16de94
  101d6d:	0c 10 00 
  101d70:	c7 05 94 e2 16 00 68 	movl   $0x104268,0x16e294
  101d77:	42 10 00 
  101d7a:	c7 05 98 da 16 00 05 	movl   $0x5,0x16da98
  101d81:	00 00 00 
  101d84:	c7 05 98 de 16 00 58 	movl   $0x100358,0x16de98
  101d8b:	03 10 00 
  101d8e:	c7 05 98 e2 16 00 68 	movl   $0x104268,0x16e298
  101d95:	42 10 00 
  101d98:	c7 05 a0 da 16 00 02 	movl   $0x2,0x16daa0
  101d9f:	00 00 00 
  101da2:	c7 05 a0 de 16 00 f4 	movl   $0x1001f4,0x16dea0
  101da9:	01 10 00 
  101dac:	c7 05 a0 e2 16 00 3c 	movl   $0x10423c,0x16e2a0
  101db3:	42 10 00 
  101db6:	c7 05 a4 da 16 00 02 	movl   $0x2,0x16daa4
  101dbd:	00 00 00 
  101dc0:	c7 05 a4 de 16 00 c4 	movl   $0x100cc4,0x16dea4
  101dc7:	0c 10 00 
  101dca:	c7 05 a4 e2 16 00 40 	movl   $0x104240,0x16e2a4
  101dd1:	42 10 00 
  101dd4:	c7 05 a8 da 16 00 02 	movl   $0x2,0x16daa8
  101ddb:	00 00 00 
  101dde:	c7 05 a8 de 16 00 18 	movl   $0x100218,0x16dea8
  101de5:	02 10 00 
  101de8:	c7 05 a8 e2 16 00 3c 	movl   $0x10423c,0x16e2a8
  101def:	42 10 00 
  101df2:	c7 05 b0 da 16 00 04 	movl   $0x4,0x16dab0
  101df9:	00 00 00 
  101dfc:	c7 05 b0 de 16 00 b0 	movl   $0x100db0,0x16deb0
  101e03:	0d 10 00 
  101e06:	c7 05 b0 e2 16 00 14 	movl   $0x104314,0x16e2b0
  101e0d:	43 10 00 
  101e10:	c7 05 b4 da 16 00 04 	movl   $0x4,0x16dab4
  101e17:	00 00 00 
  101e1a:	c7 05 b4 de 16 00 c4 	movl   $0x100cc4,0x16deb4
  101e21:	0c 10 00 
  101e24:	c7 05 b4 e2 16 00 14 	movl   $0x104314,0x16e2b4
  101e2b:	43 10 00 
  101e2e:	c7 05 b8 da 16 00 06 	movl   $0x6,0x16dab8
  101e35:	00 00 00 
  101e38:	c7 05 b8 de 16 00 58 	movl   $0x100358,0x16deb8
  101e3f:	03 10 00 
  101e42:	c7 05 b8 e2 16 00 14 	movl   $0x104314,0x16e2b8
  101e49:	43 10 00 
  101e4c:	c7 05 c0 da 16 00 02 	movl   $0x2,0x16dac0
  101e53:	00 00 00 
  101e56:	c7 05 c0 de 16 00 6c 	movl   $0x10066c,0x16dec0
  101e5d:	06 10 00 
  101e60:	c7 05 c0 e2 16 00 10 	movl   $0x104410,0x16e2c0
  101e67:	44 10 00 
  101e6a:	c7 05 c4 da 16 00 05 	movl   $0x5,0x16dac4
  101e71:	00 00 00 
  101e74:	c7 05 c4 de 16 00 c4 	movl   $0x100cc4,0x16dec4
  101e7b:	0c 10 00 
  101e7e:	c7 05 c4 e2 16 00 5c 	movl   $0x10455c,0x16e2c4
  101e85:	45 10 00 
  101e88:	c7 05 d4 da 16 00 04 	movl   $0x4,0x16dad4
  101e8f:	00 00 00 
  101e92:	c7 05 d4 de 16 00 c4 	movl   $0x100cc4,0x16ded4
  101e99:	0c 10 00 
  101e9c:	c7 05 d4 e2 16 00 9c 	movl   $0x10429c,0x16e2d4
  101ea3:	42 10 00 
  101ea6:	c7 05 d8 da 16 00 06 	movl   $0x6,0x16dad8
  101ead:	00 00 00 
  101eb0:	c7 05 d8 de 16 00 58 	movl   $0x100358,0x16ded8
  101eb7:	03 10 00 
  101eba:	c7 05 d8 e2 16 00 9c 	movl   $0x10429c,0x16e2d8
  101ec1:	42 10 00 
  101ec4:	c7 05 e0 da 16 00 02 	movl   $0x2,0x16dae0
  101ecb:	00 00 00 
  101ece:	c7 05 e0 de 16 00 28 	movl   $0x100e28,0x16dee0
  101ed5:	0e 10 00 
  101ed8:	c7 05 e0 e2 16 00 3c 	movl   $0x10423c,0x16e2e0
  101edf:	42 10 00 
  101ee2:	c7 05 e4 da 16 00 04 	movl   $0x4,0x16dae4
  101ee9:	00 00 00 
  101eec:	c7 05 e4 de 16 00 c4 	movl   $0x100cc4,0x16dee4
  101ef3:	0c 10 00 
  101ef6:	c7 05 e4 e2 16 00 b0 	movl   $0x1043b0,0x16e2e4
  101efd:	43 10 00 
  101f00:	c7 05 f4 da 16 00 04 	movl   $0x4,0x16daf4
  101f07:	00 00 00 
  101f0a:	c7 05 f4 de 16 00 c4 	movl   $0x100cc4,0x16def4
  101f11:	0c 10 00 
  101f14:	c7 05 f4 e2 16 00 4c 	movl   $0x10434c,0x16e2f4
  101f1b:	43 10 00 
  101f1e:	c7 05 f8 da 16 00 07 	movl   $0x7,0x16daf8
  101f25:	00 00 00 
  101f28:	c7 05 f8 de 16 00 58 	movl   $0x100358,0x16def8
  101f2f:	03 10 00 
  101f32:	c7 05 f8 e2 16 00 4c 	movl   $0x10434c,0x16e2f8
  101f39:	43 10 00 
  101f3c:	c7 05 00 db 16 00 02 	movl   $0x2,0x16db00
  101f43:	00 00 00 
  101f46:	c7 05 00 df 16 00 50 	movl   $0x100d50,0x16df00
  101f4d:	0d 10 00 
  101f50:	c7 05 00 e3 16 00 40 	movl   $0x104240,0x16e300
  101f57:	42 10 00 
  101f5a:	c7 05 04 db 16 00 06 	movl   $0x6,0x16db04
  101f61:	00 00 00 
  101f64:	c7 05 04 df 16 00 b4 	movl   $0x1007b4,0x16df04
  101f6b:	07 10 00 
  101f6e:	c7 05 04 e3 16 00 e4 	movl   $0x1044e4,0x16e304
  101f75:	44 10 00 
  101f78:	c7 05 10 db 16 00 03 	movl   $0x3,0x16db10
  101f7f:	00 00 00 
  101f82:	c7 05 10 df 16 00 50 	movl   $0x100d50,0x16df10
  101f89:	0d 10 00 
  101f8c:	c7 05 10 e3 16 00 68 	movl   $0x104268,0x16e310
  101f93:	42 10 00 
  101f96:	c7 05 14 db 16 00 03 	movl   $0x3,0x16db14
  101f9d:	00 00 00 
  101fa0:	c7 05 14 df 16 00 b4 	movl   $0x1007b4,0x16df14
  101fa7:	07 10 00 
  101faa:	c7 05 14 e3 16 00 68 	movl   $0x104268,0x16e314
  101fb1:	42 10 00 
  101fb4:	c7 05 18 db 16 00 05 	movl   $0x5,0x16db18
  101fbb:	00 00 00 
  101fbe:	c7 05 18 df 16 00 1c 	movl   $0x10031c,0x16df18
  101fc5:	03 10 00 
  101fc8:	c7 05 18 e3 16 00 68 	movl   $0x104268,0x16e318
  101fcf:	42 10 00 
  101fd2:	c7 05 20 db 16 00 02 	movl   $0x2,0x16db20
  101fd9:	00 00 00 
  101fdc:	c7 05 20 df 16 00 d0 	movl   $0x1001d0,0x16df20
  101fe3:	01 10 00 
  101fe6:	c7 05 20 e3 16 00 3c 	movl   $0x10423c,0x16e320
  101fed:	42 10 00 
  101ff0:	c7 05 24 db 16 00 02 	movl   $0x2,0x16db24
  101ff7:	00 00 00 
  101ffa:	c7 05 24 df 16 00 b4 	movl   $0x1007b4,0x16df24
  102001:	07 10 00 
  102004:	c7 05 24 e3 16 00 40 	movl   $0x104240,0x16e324
  10200b:	42 10 00 
  10200e:	c7 05 28 db 16 00 02 	movl   $0x2,0x16db28
  102015:	00 00 00 
  102018:	c7 05 28 df 16 00 b8 	movl   $0x100eb8,0x16df28
  10201f:	0e 10 00 
  102022:	c7 05 28 e3 16 00 3c 	movl   $0x10423c,0x16e328
  102029:	42 10 00 
  10202c:	c7 05 30 db 16 00 04 	movl   $0x4,0x16db30
  102033:	00 00 00 
  102036:	c7 05 30 df 16 00 50 	movl   $0x100d50,0x16df30
  10203d:	0d 10 00 
  102040:	c7 05 30 e3 16 00 14 	movl   $0x104314,0x16e330
  102047:	43 10 00 
  10204a:	c7 05 34 db 16 00 04 	movl   $0x4,0x16db34
  102051:	00 00 00 
  102054:	c7 05 34 df 16 00 b4 	movl   $0x1007b4,0x16df34
  10205b:	07 10 00 
  10205e:	c7 05 34 e3 16 00 14 	movl   $0x104314,0x16e334
  102065:	43 10 00 
  102068:	c7 05 38 db 16 00 06 	movl   $0x6,0x16db38
  10206f:	00 00 00 
  102072:	c7 05 38 df 16 00 1c 	movl   $0x10031c,0x16df38
  102079:	03 10 00 
  10207c:	c7 05 38 e3 16 00 14 	movl   $0x104314,0x16e338
  102083:	43 10 00 
  102086:	c7 05 40 db 16 00 02 	movl   $0x2,0x16db40
  10208d:	00 00 00 
  102090:	c7 05 40 df 16 00 e8 	movl   $0x1005e8,0x16df40
  102097:	05 10 00 
  10209a:	c7 05 40 e3 16 00 10 	movl   $0x104410,0x16e340
  1020a1:	44 10 00 
  1020a4:	c7 05 44 db 16 00 05 	movl   $0x5,0x16db44
  1020ab:	00 00 00 
  1020ae:	c7 05 44 df 16 00 b4 	movl   $0x1007b4,0x16df44
  1020b5:	07 10 00 
  1020b8:	c7 05 44 e3 16 00 5c 	movl   $0x10455c,0x16e344
  1020bf:	45 10 00 
  1020c2:	c7 05 54 db 16 00 04 	movl   $0x4,0x16db54
  1020c9:	00 00 00 
  1020cc:	c7 05 54 df 16 00 b4 	movl   $0x1007b4,0x16df54
  1020d3:	07 10 00 
  1020d6:	c7 05 54 e3 16 00 9c 	movl   $0x10429c,0x16e354
  1020dd:	42 10 00 
  1020e0:	c7 05 58 db 16 00 06 	movl   $0x6,0x16db58
  1020e7:	00 00 00 
  1020ea:	c7 05 58 df 16 00 1c 	movl   $0x10031c,0x16df58
  1020f1:	03 10 00 
  1020f4:	c7 05 58 e3 16 00 9c 	movl   $0x10429c,0x16e358
  1020fb:	42 10 00 
  1020fe:	c7 05 60 db 16 00 02 	movl   $0x2,0x16db60
  102105:	00 00 00 
  102108:	c7 05 60 df 16 00 88 	movl   $0x100e88,0x16df60
  10210f:	0e 10 00 
  102112:	c7 05 60 e3 16 00 3c 	movl   $0x10423c,0x16e360
  102119:	42 10 00 
  10211c:	c7 05 64 db 16 00 04 	movl   $0x4,0x16db64
  102123:	00 00 00 
  102126:	c7 05 64 df 16 00 b4 	movl   $0x1007b4,0x16df64
  10212d:	07 10 00 
  102130:	c7 05 64 e3 16 00 b0 	movl   $0x1043b0,0x16e364
  102137:	43 10 00 
  10213a:	c7 05 74 db 16 00 04 	movl   $0x4,0x16db74
  102141:	00 00 00 
  102144:	c7 05 74 df 16 00 b4 	movl   $0x1007b4,0x16df74
  10214b:	07 10 00 
  10214e:	c7 05 74 e3 16 00 4c 	movl   $0x10434c,0x16e374
  102155:	43 10 00 
  102158:	c7 05 78 db 16 00 07 	movl   $0x7,0x16db78
  10215f:	00 00 00 
  102162:	c7 05 78 df 16 00 1c 	movl   $0x10031c,0x16df78
  102169:	03 10 00 
  10216c:	c7 05 78 e3 16 00 4c 	movl   $0x10434c,0x16e378
  102173:	43 10 00 
  102176:	c7 05 8c d7 16 00 08 	movl   $0x8,0x16d78c
  10217d:	00 00 00 
  102180:	c7 05 8c db 16 00 58 	movl   $0x100958,0x16db8c
  102187:	09 10 00 
  10218a:	c7 05 8c df 16 00 e4 	movl   $0x1044e4,0x16df8c
  102191:	44 10 00 
  102194:	c7 05 9c d7 16 00 05 	movl   $0x5,0x16d79c
  10219b:	00 00 00 
  10219e:	c7 05 9c db 16 00 58 	movl   $0x100958,0x16db9c
  1021a5:	09 10 00 
  1021a8:	c7 05 9c df 16 00 68 	movl   $0x104268,0x16df9c
  1021af:	42 10 00 
  1021b2:	c7 05 bc d7 16 00 06 	movl   $0x6,0x16d7bc
  1021b9:	00 00 00 
  1021bc:	c7 05 bc db 16 00 58 	movl   $0x100958,0x16dbbc
  1021c3:	09 10 00 
  1021c6:	c7 05 bc df 16 00 14 	movl   $0x104314,0x16dfbc
  1021cd:	43 10 00 
  1021d0:	c7 05 cc d7 16 00 08 	movl   $0x8,0x16d7cc
  1021d7:	00 00 00 
  1021da:	c7 05 cc db 16 00 58 	movl   $0x100958,0x16dbcc
  1021e1:	09 10 00 
  1021e4:	c7 05 cc df 16 00 5c 	movl   $0x10455c,0x16dfcc
  1021eb:	45 10 00 
  1021ee:	c7 05 dc d7 16 00 06 	movl   $0x6,0x16d7dc
  1021f5:	00 00 00 
  1021f8:	c7 05 dc db 16 00 58 	movl   $0x100958,0x16dbdc
  1021ff:	09 10 00 
  102202:	c7 05 dc df 16 00 9c 	movl   $0x10429c,0x16dfdc
  102209:	42 10 00 
  10220c:	c7 05 ec d7 16 00 07 	movl   $0x7,0x16d7ec
  102213:	00 00 00 
  102216:	c7 05 ec db 16 00 58 	movl   $0x100958,0x16dbec
  10221d:	09 10 00 
  102220:	c7 05 ec df 16 00 b0 	movl   $0x1043b0,0x16dfec
  102227:	43 10 00 
  10222a:	c7 05 fc d7 16 00 07 	movl   $0x7,0x16d7fc
  102231:	00 00 00 
  102234:	c7 05 fc db 16 00 58 	movl   $0x100958,0x16dbfc
  10223b:	09 10 00 
  10223e:	c7 05 fc df 16 00 4c 	movl   $0x10434c,0x16dffc
  102245:	43 10 00 
  102248:	c7 05 0c d8 16 00 08 	movl   $0x8,0x16d80c
  10224f:	00 00 00 
  102252:	c7 05 0c dc 16 00 58 	movl   $0x100b58,0x16dc0c
  102259:	0b 10 00 
  10225c:	c7 05 0c e0 16 00 e4 	movl   $0x1044e4,0x16e00c
  102263:	44 10 00 
  102266:	c7 05 1c d8 16 00 05 	movl   $0x5,0x16d81c
  10226d:	00 00 00 
  102270:	c7 05 1c dc 16 00 58 	movl   $0x100b58,0x16dc1c
  102277:	0b 10 00 
  10227a:	c7 05 1c e0 16 00 68 	movl   $0x104268,0x16e01c
  102281:	42 10 00 
  102284:	c7 05 3c d8 16 00 06 	movl   $0x6,0x16d83c
  10228b:	00 00 00 
  10228e:	c7 05 3c dc 16 00 58 	movl   $0x100b58,0x16dc3c
  102295:	0b 10 00 
  102298:	c7 05 3c e0 16 00 14 	movl   $0x104314,0x16e03c
  10229f:	43 10 00 
  1022a2:	c7 05 4c d8 16 00 08 	movl   $0x8,0x16d84c
  1022a9:	00 00 00 
  1022ac:	c7 05 4c dc 16 00 58 	movl   $0x100b58,0x16dc4c
  1022b3:	0b 10 00 
  1022b6:	c7 05 4c e0 16 00 5c 	movl   $0x10455c,0x16e04c
  1022bd:	45 10 00 
  1022c0:	c7 05 5c d8 16 00 06 	movl   $0x6,0x16d85c
  1022c7:	00 00 00 
  1022ca:	c7 05 5c dc 16 00 58 	movl   $0x100b58,0x16dc5c
  1022d1:	0b 10 00 
  1022d4:	c7 05 5c e0 16 00 9c 	movl   $0x10429c,0x16e05c
  1022db:	42 10 00 
  1022de:	c7 05 6c d8 16 00 07 	movl   $0x7,0x16d86c
  1022e5:	00 00 00 
  1022e8:	c7 05 6c dc 16 00 58 	movl   $0x100b58,0x16dc6c
  1022ef:	0b 10 00 
  1022f2:	c7 05 6c e0 16 00 b0 	movl   $0x1043b0,0x16e06c
  1022f9:	43 10 00 
  1022fc:	c7 05 7c d8 16 00 07 	movl   $0x7,0x16d87c
  102303:	00 00 00 
  102306:	c7 05 7c dc 16 00 58 	movl   $0x100b58,0x16dc7c
  10230d:	0b 10 00 
  102310:	c7 05 7c e0 16 00 4c 	movl   $0x10434c,0x16e07c
  102317:	43 10 00 
  10231a:	c7 05 8c d8 16 00 08 	movl   $0x8,0x16d88c
  102321:	00 00 00 
  102324:	c7 05 8c dc 16 00 2c 	movl   $0x100a2c,0x16dc8c
  10232b:	0a 10 00 
  10232e:	c7 05 8c e0 16 00 e4 	movl   $0x1044e4,0x16e08c
  102335:	44 10 00 
  102338:	c7 05 9c d8 16 00 05 	movl   $0x5,0x16d89c
  10233f:	00 00 00 
  102342:	c7 05 9c dc 16 00 2c 	movl   $0x100a2c,0x16dc9c
  102349:	0a 10 00 
  10234c:	c7 05 9c e0 16 00 68 	movl   $0x104268,0x16e09c
  102353:	42 10 00 
  102356:	c7 05 bc d8 16 00 06 	movl   $0x6,0x16d8bc
  10235d:	00 00 00 
  102360:	c7 05 bc dc 16 00 2c 	movl   $0x100a2c,0x16dcbc
  102367:	0a 10 00 
  10236a:	c7 05 bc e0 16 00 14 	movl   $0x104314,0x16e0bc
  102371:	43 10 00 
  102374:	c7 05 cc d8 16 00 08 	movl   $0x8,0x16d8cc
  10237b:	00 00 00 
  10237e:	c7 05 cc dc 16 00 2c 	movl   $0x100a2c,0x16dccc
  102385:	0a 10 00 
  102388:	c7 05 cc e0 16 00 5c 	movl   $0x10455c,0x16e0cc
  10238f:	45 10 00 
  102392:	c7 05 dc d8 16 00 06 	movl   $0x6,0x16d8dc
  102399:	00 00 00 
  10239c:	c7 05 dc dc 16 00 2c 	movl   $0x100a2c,0x16dcdc
  1023a3:	0a 10 00 
  1023a6:	c7 05 dc e0 16 00 9c 	movl   $0x10429c,0x16e0dc
  1023ad:	42 10 00 
  1023b0:	c7 05 ec d8 16 00 07 	movl   $0x7,0x16d8ec
  1023b7:	00 00 00 
  1023ba:	c7 05 ec dc 16 00 2c 	movl   $0x100a2c,0x16dcec
  1023c1:	0a 10 00 
  1023c4:	c7 05 ec e0 16 00 b0 	movl   $0x1043b0,0x16e0ec
  1023cb:	43 10 00 
  1023ce:	c7 05 fc d8 16 00 07 	movl   $0x7,0x16d8fc
  1023d5:	00 00 00 
  1023d8:	c7 05 fc dc 16 00 2c 	movl   $0x100a2c,0x16dcfc
  1023df:	0a 10 00 
  1023e2:	c7 05 fc e0 16 00 4c 	movl   $0x10434c,0x16e0fc
  1023e9:	43 10 00 
  1023ec:	c7 05 0c d9 16 00 08 	movl   $0x8,0x16d90c
  1023f3:	00 00 00 
  1023f6:	c7 05 0c dd 16 00 b0 	movl   $0x100cb0,0x16dd0c
  1023fd:	0c 10 00 
  102400:	c7 05 0c e1 16 00 e4 	movl   $0x1044e4,0x16e10c
  102407:	44 10 00 
  10240a:	c7 05 1c d9 16 00 05 	movl   $0x5,0x16d91c
  102411:	00 00 00 
  102414:	c7 05 1c dd 16 00 b0 	movl   $0x100cb0,0x16dd1c
  10241b:	0c 10 00 
  10241e:	c7 05 1c e1 16 00 68 	movl   $0x104268,0x16e11c
  102425:	42 10 00 
  102428:	c7 05 3c d9 16 00 06 	movl   $0x6,0x16d93c
  10242f:	00 00 00 
  102432:	c7 05 3c dd 16 00 b0 	movl   $0x100cb0,0x16dd3c
  102439:	0c 10 00 
  10243c:	c7 05 3c e1 16 00 14 	movl   $0x104314,0x16e13c
  102443:	43 10 00 
  102446:	c7 05 4c d9 16 00 08 	movl   $0x8,0x16d94c
  10244d:	00 00 00 
  102450:	c7 05 4c dd 16 00 b0 	movl   $0x100cb0,0x16dd4c
  102457:	0c 10 00 
  10245a:	c7 05 4c e1 16 00 5c 	movl   $0x10455c,0x16e14c
  102461:	45 10 00 
  102464:	c7 05 5c d9 16 00 06 	movl   $0x6,0x16d95c
  10246b:	00 00 00 
  10246e:	c7 05 5c dd 16 00 b0 	movl   $0x100cb0,0x16dd5c
  102475:	0c 10 00 
  102478:	c7 05 5c e1 16 00 9c 	movl   $0x10429c,0x16e15c
  10247f:	42 10 00 
  102482:	c7 05 6c d9 16 00 07 	movl   $0x7,0x16d96c
  102489:	00 00 00 
  10248c:	c7 05 6c dd 16 00 b0 	movl   $0x100cb0,0x16dd6c
  102493:	0c 10 00 
  102496:	c7 05 6c e1 16 00 b0 	movl   $0x1043b0,0x16e16c
  10249d:	43 10 00 
  1024a0:	c7 05 7c d9 16 00 07 	movl   $0x7,0x16d97c
  1024a7:	00 00 00 
  1024aa:	c7 05 7c dd 16 00 b0 	movl   $0x100cb0,0x16dd7c
  1024b1:	0c 10 00 
  1024b4:	c7 05 7c e1 16 00 4c 	movl   $0x10434c,0x16e17c
  1024bb:	43 10 00 
  1024be:	c7 05 8c d9 16 00 06 	movl   $0x6,0x16d98c
  1024c5:	00 00 00 
  1024c8:	c7 05 8c dd 16 00 c4 	movl   $0x1003c4,0x16dd8c
  1024cf:	03 10 00 
  1024d2:	c7 05 8c e1 16 00 e4 	movl   $0x1044e4,0x16e18c
  1024d9:	44 10 00 
  1024dc:	c7 05 9c d9 16 00 03 	movl   $0x3,0x16d99c
  1024e3:	00 00 00 
  1024e6:	c7 05 9c dd 16 00 c4 	movl   $0x1003c4,0x16dd9c
  1024ed:	03 10 00 
  1024f0:	c7 05 9c e1 16 00 68 	movl   $0x104268,0x16e19c
  1024f7:	42 10 00 
  1024fa:	c7 05 bc d9 16 00 04 	movl   $0x4,0x16d9bc
  102501:	00 00 00 
  102504:	c7 05 bc dd 16 00 c4 	movl   $0x1003c4,0x16ddbc
  10250b:	03 10 00 
  10250e:	c7 05 bc e1 16 00 14 	movl   $0x104314,0x16e1bc
  102515:	43 10 00 
  102518:	c7 05 cc d9 16 00 06 	movl   $0x6,0x16d9cc
  10251f:	00 00 00 
  102522:	c7 05 cc dd 16 00 94 	movl   $0x100394,0x16ddcc
  102529:	03 10 00 
  10252c:	c7 05 cc e1 16 00 5c 	movl   $0x10455c,0x16e1cc
  102533:	45 10 00 
  102536:	c7 05 dc d9 16 00 04 	movl   $0x4,0x16d9dc
  10253d:	00 00 00 
  102540:	c7 05 dc dd 16 00 c4 	movl   $0x1003c4,0x16dddc
  102547:	03 10 00 
  10254a:	c7 05 dc e1 16 00 d8 	movl   $0x1042d8,0x16e1dc
  102551:	42 10 00 
  102554:	c7 05 fc d9 16 00 05 	movl   $0x5,0x16d9fc
  10255b:	00 00 00 
  10255e:	c7 05 fc dd 16 00 94 	movl   $0x100394,0x16ddfc
  102565:	03 10 00 
  102568:	c7 05 fc e1 16 00 b0 	movl   $0x1043b0,0x16e1fc
  10256f:	43 10 00 
  102572:	c7 05 0c da 16 00 06 	movl   $0x6,0x16da0c
  102579:	00 00 00 
  10257c:	c7 05 0c de 16 00 60 	movl   $0x100260,0x16de0c
  102583:	02 10 00 
  102586:	c7 05 0c e2 16 00 e4 	movl   $0x1044e4,0x16e20c
  10258d:	44 10 00 
  102590:	c7 05 1c da 16 00 03 	movl   $0x3,0x16da1c
  102597:	00 00 00 
  10259a:	c7 05 1c de 16 00 60 	movl   $0x100260,0x16de1c
  1025a1:	02 10 00 
  1025a4:	c7 05 1c e2 16 00 68 	movl   $0x104268,0x16e21c
  1025ab:	42 10 00 
  1025ae:	c7 05 3c da 16 00 04 	movl   $0x4,0x16da3c
  1025b5:	00 00 00 
  1025b8:	c7 05 3c de 16 00 60 	movl   $0x100260,0x16de3c
  1025bf:	02 10 00 
  1025c2:	c7 05 3c e2 16 00 14 	movl   $0x104314,0x16e23c
  1025c9:	43 10 00 
  1025cc:	c7 05 4c da 16 00 05 	movl   $0x5,0x16da4c
  1025d3:	00 00 00 
  1025d6:	c7 05 4c de 16 00 60 	movl   $0x100260,0x16de4c
  1025dd:	02 10 00 
  1025e0:	c7 05 4c e2 16 00 5c 	movl   $0x10455c,0x16e24c
  1025e7:	45 10 00 
  1025ea:	c7 05 5c da 16 00 04 	movl   $0x4,0x16da5c
  1025f1:	00 00 00 
  1025f4:	c7 05 5c de 16 00 60 	movl   $0x100260,0x16de5c
  1025fb:	02 10 00 
  1025fe:	c7 05 5c e2 16 00 d8 	movl   $0x1042d8,0x16e25c
  102605:	42 10 00 
  102608:	c7 05 7c da 16 00 04 	movl   $0x4,0x16da7c
  10260f:	00 00 00 
  102612:	c7 05 7c de 16 00 60 	movl   $0x100260,0x16de7c
  102619:	02 10 00 
  10261c:	c7 05 7c e2 16 00 b0 	movl   $0x1043b0,0x16e27c
  102623:	43 10 00 
  102626:	c7 05 8c da 16 00 08 	movl   $0x8,0x16da8c
  10262d:	00 00 00 
  102630:	c7 05 8c de 16 00 24 	movl   $0x100d24,0x16de8c
  102637:	0d 10 00 
  10263a:	c7 05 8c e2 16 00 e4 	movl   $0x1044e4,0x16e28c
  102641:	44 10 00 
  102644:	c7 05 9c da 16 00 05 	movl   $0x5,0x16da9c
  10264b:	00 00 00 
  10264e:	c7 05 9c de 16 00 24 	movl   $0x100d24,0x16de9c
  102655:	0d 10 00 
  102658:	c7 05 9c e2 16 00 68 	movl   $0x104268,0x16e29c
  10265f:	42 10 00 
  102662:	c7 05 bc da 16 00 06 	movl   $0x6,0x16dabc
  102669:	00 00 00 
  10266c:	c7 05 bc de 16 00 24 	movl   $0x100d24,0x16debc
  102673:	0d 10 00 
  102676:	c7 05 bc e2 16 00 14 	movl   $0x104314,0x16e2bc
  10267d:	43 10 00 
  102680:	c7 05 cc da 16 00 08 	movl   $0x8,0x16dacc
  102687:	00 00 00 
  10268a:	c7 05 cc de 16 00 24 	movl   $0x100d24,0x16decc
  102691:	0d 10 00 
  102694:	c7 05 cc e2 16 00 5c 	movl   $0x10455c,0x16e2cc
  10269b:	45 10 00 
  10269e:	c7 05 dc da 16 00 06 	movl   $0x6,0x16dadc
  1026a5:	00 00 00 
  1026a8:	c7 05 dc de 16 00 24 	movl   $0x100d24,0x16dedc
  1026af:	0d 10 00 
  1026b2:	c7 05 dc e2 16 00 9c 	movl   $0x10429c,0x16e2dc
  1026b9:	42 10 00 
  1026bc:	c7 05 ec da 16 00 07 	movl   $0x7,0x16daec
  1026c3:	00 00 00 
  1026c6:	c7 05 ec de 16 00 24 	movl   $0x100d24,0x16deec
  1026cd:	0d 10 00 
  1026d0:	c7 05 ec e2 16 00 b0 	movl   $0x1043b0,0x16e2ec
  1026d7:	43 10 00 
  1026da:	c7 05 fc da 16 00 07 	movl   $0x7,0x16dafc
  1026e1:	00 00 00 
  1026e4:	c7 05 fc de 16 00 24 	movl   $0x100d24,0x16defc
  1026eb:	0d 10 00 
  1026ee:	c7 05 fc e2 16 00 4c 	movl   $0x10434c,0x16e2fc
  1026f5:	43 10 00 
  1026f8:	c7 05 0c db 16 00 08 	movl   $0x8,0x16db0c
  1026ff:	00 00 00 
  102702:	c7 05 0c df 16 00 48 	movl   $0x100848,0x16df0c
  102709:	08 10 00 
  10270c:	c7 05 0c e3 16 00 e4 	movl   $0x1044e4,0x16e30c
  102713:	44 10 00 
  102716:	c7 05 1c db 16 00 05 	movl   $0x5,0x16db1c
  10271d:	00 00 00 
  102720:	c7 05 1c df 16 00 48 	movl   $0x100848,0x16df1c
  102727:	08 10 00 
  10272a:	c7 05 1c e3 16 00 68 	movl   $0x104268,0x16e31c
  102731:	42 10 00 
  102734:	c7 05 2c db 16 00 02 	movl   $0x2,0x16db2c
  10273b:	00 00 00 
  10273e:	c7 05 2c df 16 00 b4 	movl   $0x1007b4,0x16df2c
  102745:	07 10 00 
  102748:	c7 05 2c e3 16 00 40 	movl   $0x104240,0x16e32c
  10274f:	42 10 00 
  102752:	c7 05 3c db 16 00 06 	movl   $0x6,0x16db3c
  102759:	00 00 00 
  10275c:	c7 05 3c df 16 00 48 	movl   $0x100848,0x16df3c
  102763:	08 10 00 
  102766:	c7 05 3c e3 16 00 14 	movl   $0x104314,0x16e33c
  10276d:	43 10 00 
  102770:	c7 05 4c db 16 00 08 	movl   $0x8,0x16db4c
  102777:	00 00 00 
  10277a:	c7 05 4c df 16 00 48 	movl   $0x100848,0x16df4c
  102781:	08 10 00 
  102784:	c7 05 4c e3 16 00 5c 	movl   $0x10455c,0x16e34c
  10278b:	45 10 00 
  10278e:	c7 05 5c db 16 00 06 	movl   $0x6,0x16db5c
  102795:	00 00 00 
  102798:	c7 05 5c df 16 00 48 	movl   $0x100848,0x16df5c
  10279f:	08 10 00 
  1027a2:	c7 05 5c e3 16 00 9c 	movl   $0x10429c,0x16e35c
  1027a9:	42 10 00 
  1027ac:	c7 05 6c db 16 00 07 	movl   $0x7,0x16db6c
  1027b3:	00 00 00 
  1027b6:	c7 05 6c df 16 00 48 	movl   $0x100848,0x16df6c
  1027bd:	08 10 00 
  1027c0:	c7 05 6c e3 16 00 b0 	movl   $0x1043b0,0x16e36c
  1027c7:	43 10 00 
  1027ca:	c7 05 7c db 16 00 07 	movl   $0x7,0x16db7c
  1027d1:	00 00 00 
  1027d4:	c7 05 7c df 16 00 48 	movl   $0x100848,0x16df7c
  1027db:	08 10 00 
  1027de:	c7 05 7c e3 16 00 4c 	movl   $0x10434c,0x16e37c
  1027e5:	43 10 00 
  1027e8:	c7 05 90 d7 16 00 01 	movl   $0x1,0x16d790
  1027ef:	00 00 00 
  1027f2:	c7 05 90 db 16 00 10 	movl   $0x100010,0x16db90
  1027f9:	00 10 00 
  1027fc:	c7 05 90 df 16 00 68 	movl   $0x104268,0x16df90
  102803:	42 10 00 
  102806:	c7 05 b0 d7 16 00 01 	movl   $0x1,0x16d7b0
  10280d:	00 00 00 
  102810:	c7 05 b0 db 16 00 10 	movl   $0x100010,0x16dbb0
  102817:	00 10 00 
  10281a:	c7 05 b0 df 16 00 14 	movl   $0x104314,0x16dfb0
  102821:	43 10 00 
  102824:	c7 05 d0 d7 16 00 01 	movl   $0x1,0x16d7d0
  10282b:	00 00 00 
  10282e:	c7 05 d0 db 16 00 10 	movl   $0x100010,0x16dbd0
  102835:	00 10 00 
  102838:	c7 05 d0 df 16 00 9c 	movl   $0x10429c,0x16dfd0
  10283f:	42 10 00 
  102842:	c7 05 e8 d7 16 00 01 	movl   $0x1,0x16d7e8
  102849:	00 00 00 
  10284c:	c7 05 e8 db 16 00 10 	movl   $0x100010,0x16dbe8
  102853:	00 10 00 
  102856:	c7 05 e8 df 16 00 3c 	movl   $0x10423c,0x16dfe8
  10285d:	42 10 00 
  102860:	c7 05 f0 d7 16 00 01 	movl   $0x1,0x16d7f0
  102867:	00 00 00 
  10286a:	c7 05 f0 db 16 00 10 	movl   $0x100010,0x16dbf0
  102871:	00 10 00 
  102874:	c7 05 f0 df 16 00 4c 	movl   $0x10434c,0x16dff0
  10287b:	43 10 00 
  10287e:	c7 05 50 d8 16 00 01 	movl   $0x1,0x16d850
  102885:	00 00 00 
  102888:	c7 05 50 dc 16 00 10 	movl   $0x100010,0x16dc50
  10288f:	00 10 00 
  102892:	c7 05 50 e0 16 00 9c 	movl   $0x10429c,0x16e050
  102899:	42 10 00 
  10289c:	c7 05 68 d8 16 00 01 	movl   $0x1,0x16d868
  1028a3:	00 00 00 
  1028a6:	c7 05 68 dc 16 00 10 	movl   $0x100010,0x16dc68
  1028ad:	00 10 00 
  1028b0:	c7 05 68 e0 16 00 3c 	movl   $0x10423c,0x16e068
  1028b7:	42 10 00 
  1028ba:	c7 05 70 d8 16 00 01 	movl   $0x1,0x16d870
  1028c1:	00 00 00 
  1028c4:	c7 05 70 dc 16 00 10 	movl   $0x100010,0x16dc70
  1028cb:	00 10 00 
  1028ce:	c7 05 70 e0 16 00 4c 	movl   $0x10434c,0x16e070
  1028d5:	43 10 00 
  1028d8:	c7 05 90 d8 16 00 01 	movl   $0x1,0x16d890
  1028df:	00 00 00 
  1028e2:	c7 05 90 dc 16 00 10 	movl   $0x100010,0x16dc90
  1028e9:	00 10 00 
  1028ec:	c7 05 90 e0 16 00 68 	movl   $0x104268,0x16e090
  1028f3:	42 10 00 
  1028f6:	c7 05 d0 d8 16 00 01 	movl   $0x1,0x16d8d0
  1028fd:	00 00 00 
  102900:	c7 05 d0 dc 16 00 10 	movl   $0x100010,0x16dcd0
  102907:	00 10 00 
  10290a:	c7 05 d0 e0 16 00 9c 	movl   $0x10429c,0x16e0d0
  102911:	42 10 00 
  102914:	c7 05 e8 d8 16 00 01 	movl   $0x1,0x16d8e8
  10291b:	00 00 00 
  10291e:	c7 05 e8 dc 16 00 10 	movl   $0x100010,0x16dce8
  102925:	00 10 00 
  102928:	c7 05 e8 e0 16 00 3c 	movl   $0x10423c,0x16e0e8
  10292f:	42 10 00 
  102932:	c7 05 f0 d8 16 00 01 	movl   $0x1,0x16d8f0
  102939:	00 00 00 
  10293c:	c7 05 f0 dc 16 00 10 	movl   $0x100010,0x16dcf0
  102943:	00 10 00 
  102946:	c7 05 f0 e0 16 00 4c 	movl   $0x10434c,0x16e0f0
  10294d:	43 10 00 
  102950:	c7 05 10 d9 16 00 01 	movl   $0x1,0x16d910
  102957:	00 00 00 
  10295a:	c7 05 10 dd 16 00 10 	movl   $0x100010,0x16dd10
  102961:	00 10 00 
  102964:	c7 05 10 e1 16 00 68 	movl   $0x104268,0x16e110
  10296b:	42 10 00 
  10296e:	c7 05 50 d9 16 00 01 	movl   $0x1,0x16d950
  102975:	00 00 00 
  102978:	c7 05 50 dd 16 00 10 	movl   $0x100010,0x16dd50
  10297f:	00 10 00 
  102982:	c7 05 50 e1 16 00 9c 	movl   $0x10429c,0x16e150
  102989:	42 10 00 
  10298c:	c7 05 68 d9 16 00 01 	movl   $0x1,0x16d968
  102993:	00 00 00 
  102996:	c7 05 68 dd 16 00 10 	movl   $0x100010,0x16dd68
  10299d:	00 10 00 
  1029a0:	c7 05 68 e1 16 00 3c 	movl   $0x10423c,0x16e168
  1029a7:	42 10 00 
  1029aa:	c7 05 70 d9 16 00 01 	movl   $0x1,0x16d970
  1029b1:	00 00 00 
  1029b4:	c7 05 70 dd 16 00 10 	movl   $0x100010,0x16dd70
  1029bb:	00 10 00 
  1029be:	c7 05 70 e1 16 00 4c 	movl   $0x10434c,0x16e170
  1029c5:	43 10 00 
  1029c8:	c7 05 80 d9 16 00 01 	movl   $0x1,0x16d980
  1029cf:	00 00 00 
  1029d2:	c7 05 80 dd 16 00 10 	movl   $0x100010,0x16dd80
  1029d9:	00 10 00 
  1029dc:	c7 05 80 e1 16 00 40 	movl   $0x104240,0x16e180
  1029e3:	42 10 00 
  1029e6:	c7 05 d0 da 16 00 01 	movl   $0x1,0x16dad0
  1029ed:	00 00 00 
  1029f0:	c7 05 d0 de 16 00 10 	movl   $0x100010,0x16ded0
  1029f7:	00 10 00 
  1029fa:	c7 05 d0 e2 16 00 9c 	movl   $0x10429c,0x16e2d0
  102a01:	42 10 00 
  102a04:	c7 05 e8 da 16 00 01 	movl   $0x1,0x16dae8
  102a0b:	00 00 00 
  102a0e:	c7 05 e8 de 16 00 10 	movl   $0x100010,0x16dee8
  102a15:	00 10 00 
  102a18:	c7 05 e8 e2 16 00 3c 	movl   $0x10423c,0x16e2e8
  102a1f:	42 10 00 
  102a22:	c7 05 f0 da 16 00 01 	movl   $0x1,0x16daf0
  102a29:	00 00 00 
  102a2c:	c7 05 f0 de 16 00 10 	movl   $0x100010,0x16def0
  102a33:	00 10 00 
  102a36:	c7 05 f0 e2 16 00 4c 	movl   $0x10434c,0x16e2f0
  102a3d:	43 10 00 
  102a40:	c7 05 50 db 16 00 01 	movl   $0x1,0x16db50
  102a47:	00 00 00 
  102a4a:	c7 05 50 df 16 00 10 	movl   $0x100010,0x16df50
  102a51:	00 10 00 
  102a54:	c7 05 50 e3 16 00 9c 	movl   $0x10429c,0x16e350
  102a5b:	42 10 00 
  102a5e:	c7 05 68 db 16 00 01 	movl   $0x1,0x16db68
  102a65:	00 00 00 
  102a68:	c7 05 68 df 16 00 10 	movl   $0x100010,0x16df68
  102a6f:	00 10 00 
  102a72:	c7 05 68 e3 16 00 3c 	movl   $0x10423c,0x16e368
  102a79:	42 10 00 
  102a7c:	c7 05 70 db 16 00 01 	movl   $0x1,0x16db70
  102a83:	00 00 00 
  102a86:	c7 05 70 df 16 00 10 	movl   $0x100010,0x16df70
  102a8d:	00 10 00 
  102a90:	c7 05 70 e3 16 00 4c 	movl   $0x10434c,0x16e370
  102a97:	43 10 00 
  102a9a:	c7 05 2a 09 2c 00 00 	movl   $0x0,0x2c092a
  102aa1:	00 00 00 
  102aa4:	c6 05 2e 09 2c 00 24 	movb   $0x24,0x2c092e
  102aab:	c3                   	ret    

00102aac <cpu_reset>:
  102aac:	55                   	push   %ebp
  102aad:	89 e5                	mov    %esp,%ebp
  102aaf:	83 ec 14             	sub    $0x14,%esp
  102ab2:	68 fc ff 00 00       	push   $0xfffc
  102ab7:	e8 ac 08 00 00       	call   103368 <memory_readw>
  102abc:	66 a3 28 09 2c 00    	mov    %ax,0x2c0928
  102ac2:	80 2d 2a 09 2c 00 03 	subb   $0x3,0x2c092a
  102ac9:	80 0d 2e 09 2c 00 04 	orb    $0x4,0x2c092e
  102ad0:	83 c4 10             	add    $0x10,%esp
  102ad3:	c9                   	leave  
  102ad4:	c3                   	ret    
  102ad5:	8d 76 00             	lea    0x0(%esi),%esi

00102ad8 <cpu_interrupt>:
  102ad8:	55                   	push   %ebp
  102ad9:	89 e5                	mov    %esp,%ebp
  102adb:	83 ec 08             	sub    $0x8,%esp
  102ade:	e8 71 0a 00 00       	call   103554 <ppu_generates_nmi>
  102ae3:	85 c0                	test   %eax,%eax
  102ae5:	75 05                	jne    102aec <cpu_interrupt+0x14>
  102ae7:	c9                   	leave  
  102ae8:	c3                   	ret    
  102ae9:	8d 76 00             	lea    0x0(%esi),%esi
  102aec:	80 0d 2e 09 2c 00 04 	orb    $0x4,0x2c092e
  102af3:	83 ec 08             	sub    $0x8,%esp
  102af6:	6a 05                	push   $0x5
  102af8:	68 2e 09 2c 00       	push   $0x2c092e
  102afd:	e8 de 05 00 00       	call   1030e0 <common_unset_bitb>
  102b02:	58                   	pop    %eax
  102b03:	5a                   	pop    %edx
  102b04:	0f b7 05 28 09 2c 00 	movzwl 0x2c0928,%eax
  102b0b:	50                   	push   %eax
  102b0c:	0f b6 05 2a 09 2c 00 	movzbl 0x2c092a,%eax
  102b13:	05 ff 00 00 00       	add    $0xff,%eax
  102b18:	50                   	push   %eax
  102b19:	e8 7e 08 00 00       	call   10339c <memory_writew>
  102b1e:	a0 2a 09 2c 00       	mov    0x2c092a,%al
  102b23:	0f b6 15 2e 09 2c 00 	movzbl 0x2c092e,%edx
  102b2a:	8d 48 fd             	lea    -0x3(%eax),%ecx
  102b2d:	88 0d 2a 09 2c 00    	mov    %cl,0x2c092a
  102b33:	83 c4 08             	add    $0x8,%esp
  102b36:	52                   	push   %edx
  102b37:	83 e8 02             	sub    $0x2,%eax
  102b3a:	0f b6 c0             	movzbl %al,%eax
  102b3d:	05 00 01 00 00       	add    $0x100,%eax
  102b42:	50                   	push   %eax
  102b43:	e8 50 07 00 00       	call   103298 <memory_writeb>
  102b48:	c7 04 24 fa ff 00 00 	movl   $0xfffa,(%esp)
  102b4f:	e8 14 08 00 00       	call   103368 <memory_readw>
  102b54:	66 a3 28 09 2c 00    	mov    %ax,0x2c0928
  102b5a:	83 c4 10             	add    $0x10,%esp
  102b5d:	c9                   	leave  
  102b5e:	c3                   	ret    
  102b5f:	90                   	nop

00102b60 <cpu_clock>:
  102b60:	a1 80 e3 16 00       	mov    0x16e380,%eax
  102b65:	8b 15 84 e3 16 00    	mov    0x16e384,%edx
  102b6b:	c3                   	ret    

00102b6c <cpu_run>:
  102b6c:	55                   	push   %ebp
  102b6d:	89 e5                	mov    %esp,%ebp
  102b6f:	56                   	push   %esi
  102b70:	53                   	push   %ebx
  102b71:	8b 4d 08             	mov    0x8(%ebp),%ecx
  102b74:	be 56 55 55 55       	mov    $0x55555556,%esi
  102b79:	89 f0                	mov    %esi,%eax
  102b7b:	f7 e9                	imul   %ecx
  102b7d:	89 c8                	mov    %ecx,%eax
  102b7f:	c1 f8 1f             	sar    $0x1f,%eax
  102b82:	89 d3                	mov    %edx,%ebx
  102b84:	29 c3                	sub    %eax,%ebx
  102b86:	83 f9 02             	cmp    $0x2,%ecx
  102b89:	7e 71                	jle    102bfc <cpu_run+0x90>
  102b8b:	90                   	nop
  102b8c:	0f b7 05 28 09 2c 00 	movzwl 0x2c0928,%eax
  102b93:	8d 50 01             	lea    0x1(%eax),%edx
  102b96:	66 89 15 28 09 2c 00 	mov    %dx,0x2c0928
  102b9d:	83 ec 0c             	sub    $0xc,%esp
  102ba0:	50                   	push   %eax
  102ba1:	e8 8a 06 00 00       	call   103230 <memory_readb>
  102ba6:	a2 88 e3 16 00       	mov    %al,0x16e388
  102bab:	0f b6 d0             	movzbl %al,%edx
  102bae:	8b 04 95 80 df 16 00 	mov    0x16df80(,%edx,4),%eax
  102bb5:	83 c4 10             	add    $0x10,%esp
  102bb8:	85 c0                	test   %eax,%eax
  102bba:	74 17                	je     102bd3 <cpu_run+0x67>
  102bbc:	ff d0                	call   *%eax
  102bbe:	0f b6 05 88 e3 16 00 	movzbl 0x16e388,%eax
  102bc5:	ff 14 85 80 db 16 00 	call   *0x16db80(,%eax,4)
  102bcc:	0f b6 15 88 e3 16 00 	movzbl 0x16e388,%edx
  102bd3:	a1 40 89 2c 00       	mov    0x2c8940,%eax
  102bd8:	03 04 95 80 d7 16 00 	add    0x16d780(,%edx,4),%eax
  102bdf:	29 c3                	sub    %eax,%ebx
  102be1:	99                   	cltd   
  102be2:	29 05 80 e3 16 00    	sub    %eax,0x16e380
  102be8:	19 15 84 e3 16 00    	sbb    %edx,0x16e384
  102bee:	c7 05 40 89 2c 00 00 	movl   $0x0,0x2c8940
  102bf5:	00 00 00 
  102bf8:	85 db                	test   %ebx,%ebx
  102bfa:	7f 90                	jg     102b8c <cpu_run+0x20>
  102bfc:	8d 65 f8             	lea    -0x8(%ebp),%esp
  102bff:	5b                   	pop    %ebx
  102c00:	5e                   	pop    %esi
  102c01:	5d                   	pop    %ebp
  102c02:	c3                   	ret    
  102c03:	90                   	nop

00102c04 <candraw>:
  102c04:	a1 c0 a3 1a 00       	mov    0x1aa3c0,%eax
  102c09:	b9 03 00 00 00       	mov    $0x3,%ecx
  102c0e:	99                   	cltd   
  102c0f:	f7 f9                	idiv   %ecx
  102c11:	31 c0                	xor    %eax,%eax
  102c13:	85 d2                	test   %edx,%edx
  102c15:	0f 94 c0             	sete   %al
  102c18:	c3                   	ret    
  102c19:	8d 76 00             	lea    0x0(%esi),%esi

00102c1c <draw>:
  102c1c:	55                   	push   %ebp
  102c1d:	89 e5                	mov    %esp,%ebp
  102c1f:	81 7d 08 ff 00 00 00 	cmpl   $0xff,0x8(%ebp)
  102c26:	77 34                	ja     102c5c <draw+0x40>
  102c28:	81 7d 0c ef 00 00 00 	cmpl   $0xef,0xc(%ebp)
  102c2f:	77 2b                	ja     102c5c <draw+0x40>
  102c31:	a1 c0 a3 1a 00       	mov    0x1aa3c0,%eax
  102c36:	b9 03 00 00 00       	mov    $0x3,%ecx
  102c3b:	99                   	cltd   
  102c3c:	f7 f9                	idiv   %ecx
  102c3e:	85 d2                	test   %edx,%edx
  102c40:	75 1a                	jne    102c5c <draw+0x40>
  102c42:	8b 45 0c             	mov    0xc(%ebp),%eax
  102c45:	c1 e0 08             	shl    $0x8,%eax
  102c48:	03 45 08             	add    0x8(%ebp),%eax
  102c4b:	8b 55 10             	mov    0x10(%ebp),%edx
  102c4e:	8b 14 95 c0 4d 10 00 	mov    0x104dc0(,%edx,4),%edx
  102c55:	89 14 85 c0 e3 16 00 	mov    %edx,0x16e3c0(,%eax,4)
  102c5c:	5d                   	pop    %ebp
  102c5d:	c3                   	ret    
  102c5e:	66 90                	xchg   %ax,%ax

00102c60 <romread>:
  102c60:	55                   	push   %ebp
  102c61:	89 e5                	mov    %esp,%ebp
  102c63:	a1 a8 e3 16 00       	mov    0x16e3a8,%eax
  102c68:	8b 55 08             	mov    0x8(%ebp),%edx
  102c6b:	01 c2                	add    %eax,%edx
  102c6d:	89 15 a8 e3 16 00    	mov    %edx,0x16e3a8
  102c73:	5d                   	pop    %ebp
  102c74:	c3                   	ret    
  102c75:	8d 76 00             	lea    0x0(%esi),%esi

00102c78 <fce_load_rom>:
  102c78:	55                   	push   %ebp
  102c79:	89 e5                	mov    %esp,%ebp
  102c7b:	57                   	push   %edi
  102c7c:	56                   	push   %esi
  102c7d:	53                   	push   %ebx
  102c7e:	83 ec 10             	sub    $0x10,%esp
  102c81:	8b 45 08             	mov    0x8(%ebp),%eax
  102c84:	8d 50 10             	lea    0x10(%eax),%edx
  102c87:	89 15 a8 e3 16 00    	mov    %edx,0x16e3a8
  102c8d:	a3 a4 e3 16 00       	mov    %eax,0x16e3a4
  102c92:	6a 04                	push   $0x4
  102c94:	68 a0 4c 10 00       	push   $0x104ca0
  102c99:	50                   	push   %eax
  102c9a:	e8 a1 1d 00 00       	call   104a40 <memcmp>
  102c9f:	83 c4 10             	add    $0x10,%esp
  102ca2:	85 c0                	test   %eax,%eax
  102ca4:	0f 85 bf 00 00 00    	jne    102d69 <fce_load_rom+0xf1>
  102caa:	89 c7                	mov    %eax,%edi
  102cac:	a1 a4 e3 16 00       	mov    0x16e3a4,%eax
  102cb1:	0f b7 50 06          	movzwl 0x6(%eax),%edx
  102cb5:	c0 ea 04             	shr    $0x4,%dl
  102cb8:	88 15 30 09 2c 00    	mov    %dl,0x2c0930
  102cbe:	0f b6 40 04          	movzbl 0x4(%eax),%eax
  102cc2:	89 c1                	mov    %eax,%ecx
  102cc4:	8b 1d a8 e3 16 00    	mov    0x16e3a8,%ebx
  102cca:	c1 e0 0e             	shl    $0xe,%eax
  102ccd:	01 d8                	add    %ebx,%eax
  102ccf:	a3 a8 e3 16 00       	mov    %eax,0x16e3a8
  102cd4:	84 d2                	test   %dl,%dl
  102cd6:	0f 85 84 00 00 00    	jne    102d60 <fce_load_rom+0xe8>
  102cdc:	fe c9                	dec    %cl
  102cde:	0f 84 8c 00 00 00    	je     102d70 <fce_load_rom+0xf8>
  102ce4:	52                   	push   %edx
  102ce5:	68 00 80 00 00       	push   $0x8000
  102cea:	53                   	push   %ebx
  102ceb:	68 00 80 00 00       	push   $0x8000
  102cf0:	e8 53 03 00 00       	call   103048 <mmc_copy>
  102cf5:	83 c4 10             	add    $0x10,%esp
  102cf8:	31 db                	xor    %ebx,%ebx
  102cfa:	a1 a4 e3 16 00       	mov    0x16e3a4,%eax
  102cff:	80 78 05 00          	cmpb   $0x0,0x5(%eax)
  102d03:	75 11                	jne    102d16 <fce_load_rom+0x9e>
  102d05:	eb 4f                	jmp    102d56 <fce_load_rom+0xde>
  102d07:	90                   	nop
  102d08:	43                   	inc    %ebx
  102d09:	a1 a4 e3 16 00       	mov    0x16e3a4,%eax
  102d0e:	0f b6 40 05          	movzbl 0x5(%eax),%eax
  102d12:	39 d8                	cmp    %ebx,%eax
  102d14:	7e 40                	jle    102d56 <fce_load_rom+0xde>
  102d16:	8b 35 a8 e3 16 00    	mov    0x16e3a8,%esi
  102d1c:	8d 86 00 20 00 00    	lea    0x2000(%esi),%eax
  102d22:	a3 a8 e3 16 00       	mov    %eax,0x16e3a8
  102d27:	83 ec 0c             	sub    $0xc,%esp
  102d2a:	56                   	push   %esi
  102d2b:	e8 30 03 00 00       	call   103060 <mmc_append_chr_rom_page>
  102d30:	83 c4 10             	add    $0x10,%esp
  102d33:	85 db                	test   %ebx,%ebx
  102d35:	75 d1                	jne    102d08 <fce_load_rom+0x90>
  102d37:	50                   	push   %eax
  102d38:	68 00 20 00 00       	push   $0x2000
  102d3d:	56                   	push   %esi
  102d3e:	6a 00                	push   $0x0
  102d40:	e8 47 11 00 00       	call   103e8c <ppu_copy>
  102d45:	83 c4 10             	add    $0x10,%esp
  102d48:	43                   	inc    %ebx
  102d49:	a1 a4 e3 16 00       	mov    0x16e3a4,%eax
  102d4e:	0f b6 40 05          	movzbl 0x5(%eax),%eax
  102d52:	39 d8                	cmp    %ebx,%eax
  102d54:	7f c0                	jg     102d16 <fce_load_rom+0x9e>
  102d56:	89 f8                	mov    %edi,%eax
  102d58:	8d 65 f4             	lea    -0xc(%ebp),%esp
  102d5b:	5b                   	pop    %ebx
  102d5c:	5e                   	pop    %esi
  102d5d:	5f                   	pop    %edi
  102d5e:	5d                   	pop    %ebp
  102d5f:	c3                   	ret    
  102d60:	80 fa 03             	cmp    $0x3,%dl
  102d63:	0f 84 73 ff ff ff    	je     102cdc <fce_load_rom+0x64>
  102d69:	bf ff ff ff ff       	mov    $0xffffffff,%edi
  102d6e:	eb e6                	jmp    102d56 <fce_load_rom+0xde>
  102d70:	51                   	push   %ecx
  102d71:	68 00 40 00 00       	push   $0x4000
  102d76:	53                   	push   %ebx
  102d77:	68 00 80 00 00       	push   $0x8000
  102d7c:	e8 c7 02 00 00       	call   103048 <mmc_copy>
  102d81:	83 c4 0c             	add    $0xc,%esp
  102d84:	68 00 40 00 00       	push   $0x4000
  102d89:	53                   	push   %ebx
  102d8a:	68 00 c0 00 00       	push   $0xc000
  102d8f:	e8 b4 02 00 00       	call   103048 <mmc_copy>
  102d94:	83 c4 10             	add    $0x10,%esp
  102d97:	e9 5c ff ff ff       	jmp    102cf8 <fce_load_rom+0x80>

00102d9c <fce_init>:
  102d9c:	55                   	push   %ebp
  102d9d:	89 e5                	mov    %esp,%ebp
  102d9f:	83 ec 08             	sub    $0x8,%esp
  102da2:	e8 1d e2 ff ff       	call   100fc4 <cpu_init>
  102da7:	e8 94 13 00 00       	call   104140 <ppu_init>
  102dac:	83 ec 0c             	sub    $0xc,%esp
  102daf:	a1 a4 e3 16 00       	mov    0x16e3a4,%eax
  102db4:	66 8b 40 06          	mov    0x6(%eax),%ax
  102db8:	83 e0 01             	and    $0x1,%eax
  102dbb:	50                   	push   %eax
  102dbc:	e8 5f 14 00 00       	call   104220 <ppu_set_mirroring>
  102dc1:	83 c4 10             	add    $0x10,%esp
  102dc4:	c9                   	leave  
  102dc5:	e9 e2 fc ff ff       	jmp    102aac <cpu_reset>
  102dca:	66 90                	xchg   %ax,%ax

00102dcc <wait_for_frame>:
  102dcc:	55                   	push   %ebp
  102dcd:	89 e5                	mov    %esp,%ebp
  102dcf:	83 ec 08             	sub    $0x8,%esp
  102dd2:	66 90                	xchg   %ax,%ax
  102dd4:	e8 ab 1c 00 00       	call   104a84 <uptime>
  102dd9:	89 c2                	mov    %eax,%edx
  102ddb:	2b 15 a0 e3 16 00    	sub    0x16e3a0,%edx
  102de1:	83 fa 0f             	cmp    $0xf,%edx
  102de4:	76 ee                	jbe    102dd4 <wait_for_frame+0x8>
  102de6:	a3 a0 e3 16 00       	mov    %eax,0x16e3a0
  102deb:	c9                   	leave  
  102dec:	c3                   	ret    
  102ded:	8d 76 00             	lea    0x0(%esi),%esi

00102df0 <fce_run>:
  102df0:	55                   	push   %ebp
  102df1:	89 e5                	mov    %esp,%ebp
  102df3:	57                   	push   %edi
  102df4:	56                   	push   %esi
  102df5:	53                   	push   %ebx
  102df6:	83 ec 0c             	sub    $0xc,%esp
  102df9:	e8 86 1c 00 00       	call   104a84 <uptime>
  102dfe:	89 c7                	mov    %eax,%edi
  102e00:	a3 a0 e3 16 00       	mov    %eax,0x16e3a0
  102e05:	31 f6                	xor    %esi,%esi
  102e07:	e8 c0 ff ff ff       	call   102dcc <wait_for_frame>
  102e0c:	bb 06 01 00 00       	mov    $0x106,%ebx
  102e11:	8d 76 00             	lea    0x0(%esi),%esi
  102e14:	e8 ff 0e 00 00       	call   103d18 <ppu_cycle>
  102e19:	e8 22 06 00 00       	call   103440 <psg_detect_key>
  102e1e:	4b                   	dec    %ebx
  102e1f:	75 f3                	jne    102e14 <fce_run+0x24>
  102e21:	46                   	inc    %esi
  102e22:	e8 5d 1c 00 00       	call   104a84 <uptime>
  102e27:	29 f8                	sub    %edi,%eax
  102e29:	3d e8 03 00 00       	cmp    $0x3e8,%eax
  102e2e:	76 d7                	jbe    102e07 <fce_run+0x17>
  102e30:	e8 4f 1c 00 00       	call   104a84 <uptime>
  102e35:	89 c7                	mov    %eax,%edi
  102e37:	83 ec 08             	sub    $0x8,%esp
  102e3a:	56                   	push   %esi
  102e3b:	68 a5 4c 10 00       	push   $0x104ca5
  102e40:	e8 27 1b 00 00       	call   10496c <printf>
  102e45:	83 c4 10             	add    $0x10,%esp
  102e48:	eb bb                	jmp    102e05 <fce_run+0x15>
  102e4a:	66 90                	xchg   %ax,%ax

00102e4c <fce_update_screen>:
  102e4c:	55                   	push   %ebp
  102e4d:	89 e5                	mov    %esp,%ebp
  102e4f:	57                   	push   %edi
  102e50:	56                   	push   %esi
  102e51:	53                   	push   %ebx
  102e52:	83 ec 1c             	sub    $0x1c,%esp
  102e55:	a1 c0 a3 1a 00       	mov    0x1aa3c0,%eax
  102e5a:	40                   	inc    %eax
  102e5b:	a3 c0 a3 1a 00       	mov    %eax,0x1aa3c0
  102e60:	b9 03 00 00 00       	mov    $0x3,%ecx
  102e65:	99                   	cltd   
  102e66:	f7 f9                	idiv   %ecx
  102e68:	89 55 d8             	mov    %edx,-0x28(%ebp)
  102e6b:	85 d2                	test   %edx,%edx
  102e6d:	74 08                	je     102e77 <fce_update_screen+0x2b>
  102e6f:	8d 65 f4             	lea    -0xc(%ebp),%esp
  102e72:	5b                   	pop    %ebx
  102e73:	5e                   	pop    %esi
  102e74:	5f                   	pop    %edi
  102e75:	5d                   	pop    %ebp
  102e76:	c3                   	ret    
  102e77:	83 ec 0c             	sub    $0xc,%esp
  102e7a:	68 00 3f 00 00       	push   $0x3f00
  102e7f:	e8 84 09 00 00       	call   103808 <ppu_ram_read>
  102e84:	0f b6 c0             	movzbl %al,%eax
  102e87:	8b 04 85 c0 4d 10 00 	mov    0x104dc0(,%eax,4),%eax
  102e8e:	89 45 dc             	mov    %eax,-0x24(%ebp)
  102e91:	e8 c6 1c 00 00       	call   104b5c <screen_width>
  102e96:	89 c3                	mov    %eax,%ebx
  102e98:	e8 df 1c 00 00       	call   104b7c <screen_height>
  102e9d:	8d 93 00 ff ff ff    	lea    -0x100(%ebx),%edx
  102ea3:	89 d6                	mov    %edx,%esi
  102ea5:	c1 ee 1f             	shr    $0x1f,%esi
  102ea8:	01 d6                	add    %edx,%esi
  102eaa:	d1 fe                	sar    %esi
  102eac:	8d 88 10 ff ff ff    	lea    -0xf0(%eax),%ecx
  102eb2:	89 ca                	mov    %ecx,%edx
  102eb4:	c1 ea 1f             	shr    $0x1f,%edx
  102eb7:	01 ca                	add    %ecx,%edx
  102eb9:	d1 fa                	sar    %edx
  102ebb:	89 55 e0             	mov    %edx,-0x20(%ebp)
  102ebe:	83 c4 10             	add    $0x10,%esp
  102ec1:	81 fb fe 00 00 00    	cmp    $0xfe,%ebx
  102ec7:	7e 69                	jle    102f32 <fce_update_screen+0xe6>
  102ec9:	3d ee 00 00 00       	cmp    $0xee,%eax
  102ece:	7e 62                	jle    102f32 <fce_update_screen+0xe6>
  102ed0:	c7 45 e4 c0 a3 1a 00 	movl   $0x1aa3c0,-0x1c(%ebp)
  102ed7:	8b 45 e4             	mov    -0x1c(%ebp),%eax
  102eda:	8d 98 00 40 fc ff    	lea    -0x3c000(%eax),%ebx
  102ee0:	8b 7d e0             	mov    -0x20(%ebp),%edi
  102ee3:	90                   	nop
  102ee4:	83 ec 0c             	sub    $0xc,%esp
  102ee7:	6a 01                	push   $0x1
  102ee9:	6a 01                	push   $0x1
  102eeb:	57                   	push   %edi
  102eec:	56                   	push   %esi
  102eed:	53                   	push   %ebx
  102eee:	e8 dd 1b 00 00       	call   104ad0 <draw_rect>
  102ef3:	81 c3 00 04 00 00    	add    $0x400,%ebx
  102ef9:	47                   	inc    %edi
  102efa:	83 c4 20             	add    $0x20,%esp
  102efd:	3b 5d e4             	cmp    -0x1c(%ebp),%ebx
  102f00:	75 e2                	jne    102ee4 <fce_update_screen+0x98>
  102f02:	46                   	inc    %esi
  102f03:	8d 43 04             	lea    0x4(%ebx),%eax
  102f06:	89 45 e4             	mov    %eax,-0x1c(%ebp)
  102f09:	3d c0 a7 1a 00       	cmp    $0x1aa7c0,%eax
  102f0e:	75 c7                	jne    102ed7 <fce_update_screen+0x8b>
  102f10:	e8 ff 1b 00 00       	call   104b14 <draw_sync>
  102f15:	8b 55 dc             	mov    -0x24(%ebp),%edx
  102f18:	8b 45 d8             	mov    -0x28(%ebp),%eax
  102f1b:	89 14 85 c0 e3 16 00 	mov    %edx,0x16e3c0(,%eax,4)
  102f22:	40                   	inc    %eax
  102f23:	3d 00 f0 00 00       	cmp    $0xf000,%eax
  102f28:	75 f1                	jne    102f1b <fce_update_screen+0xcf>
  102f2a:	8d 65 f4             	lea    -0xc(%ebp),%esp
  102f2d:	5b                   	pop    %ebx
  102f2e:	5e                   	pop    %esi
  102f2f:	5f                   	pop    %edi
  102f30:	5d                   	pop    %ebp
  102f31:	c3                   	ret    
  102f32:	50                   	push   %eax
  102f33:	68 84 00 00 00       	push   $0x84
  102f38:	68 70 4d 10 00       	push   $0x104d70
  102f3d:	68 af 4c 10 00       	push   $0x104caf
  102f42:	e8 25 1a 00 00       	call   10496c <printf>
  102f47:	c7 04 24 01 00 00 00 	movl   $0x1,(%esp)
  102f4e:	e8 a5 16 00 00       	call   1045f8 <_halt>
  102f53:	90                   	nop

00102f54 <main>:
  102f54:	8d 4c 24 04          	lea    0x4(%esp),%ecx
  102f58:	83 e4 f0             	and    $0xfffffff0,%esp
  102f5b:	ff 71 fc             	pushl  -0x4(%ecx)
  102f5e:	55                   	push   %ebp
  102f5f:	89 e5                	mov    %esp,%ebp
  102f61:	57                   	push   %edi
  102f62:	56                   	push   %esi
  102f63:	53                   	push   %ebx
  102f64:	51                   	push   %ecx
  102f65:	83 ec 08             	sub    $0x8,%esp
  102f68:	8b 31                	mov    (%ecx),%esi
  102f6a:	e8 ad 16 00 00       	call   10461c <_ioe_init>
  102f6f:	83 3d 40 53 10 00 01 	cmpl   $0x1,0x105340
  102f76:	7e 61                	jle    102fd9 <main+0x85>
  102f78:	bb 01 00 00 00       	mov    $0x1,%ebx
  102f7d:	bf 60 53 10 00       	mov    $0x105360,%edi
  102f82:	66 90                	xchg   %ax,%ax
  102f84:	83 ec 08             	sub    $0x8,%esp
  102f87:	56                   	push   %esi
  102f88:	ff 34 dd 60 53 10 00 	pushl  0x105360(,%ebx,8)
  102f8f:	e8 20 1a 00 00       	call   1049b4 <strcmp>
  102f94:	83 c4 10             	add    $0x10,%esp
  102f97:	85 c0                	test   %eax,%eax
  102f99:	75 07                	jne    102fa2 <main+0x4e>
  102f9b:	8d 3c dd 60 53 10 00 	lea    0x105360(,%ebx,8),%edi
  102fa2:	43                   	inc    %ebx
  102fa3:	39 1d 40 53 10 00    	cmp    %ebx,0x105340
  102fa9:	7f d9                	jg     102f84 <main+0x30>
  102fab:	83 ec 08             	sub    $0x8,%esp
  102fae:	ff 37                	pushl  (%edi)
  102fb0:	68 c8 4c 10 00       	push   $0x104cc8
  102fb5:	e8 b2 19 00 00       	call   10496c <printf>
  102fba:	58                   	pop    %eax
  102fbb:	ff 77 04             	pushl  0x4(%edi)
  102fbe:	e8 b5 fc ff ff       	call   102c78 <fce_load_rom>
  102fc3:	e8 d4 fd ff ff       	call   102d9c <fce_init>
  102fc8:	c7 04 24 d9 4c 10 00 	movl   $0x104cd9,(%esp)
  102fcf:	e8 98 19 00 00       	call   10496c <printf>
  102fd4:	e8 17 fe ff ff       	call   102df0 <fce_run>
  102fd9:	bf 60 53 10 00       	mov    $0x105360,%edi
  102fde:	eb cb                	jmp    102fab <main+0x57>

00102fe0 <mmc_read>:
  102fe0:	55                   	push   %ebp
  102fe1:	89 e5                	mov    %esp,%ebp
  102fe3:	0f b7 45 08          	movzwl 0x8(%ebp),%eax
  102fe7:	8a 80 60 89 2c 00    	mov    0x2c8960(%eax),%al
  102fed:	5d                   	pop    %ebp
  102fee:	c3                   	ret    
  102fef:	90                   	nop

00102ff0 <mmc_write>:
  102ff0:	55                   	push   %ebp
  102ff1:	89 e5                	mov    %esp,%ebp
  102ff3:	53                   	push   %ebx
  102ff4:	83 ec 14             	sub    $0x14,%esp
  102ff7:	8b 5d 08             	mov    0x8(%ebp),%ebx
  102ffa:	8b 55 0c             	mov    0xc(%ebp),%edx
  102ffd:	80 3d 30 09 2c 00 03 	cmpb   $0x3,0x2c0930
  103004:	74 0e                	je     103014 <mmc_write+0x24>
  103006:	0f b7 c3             	movzwl %bx,%eax
  103009:	88 90 60 89 2c 00    	mov    %dl,0x2c8960(%eax)
  10300f:	8b 5d fc             	mov    -0x4(%ebp),%ebx
  103012:	c9                   	leave  
  103013:	c3                   	ret    
  103014:	50                   	push   %eax
  103015:	68 00 20 00 00       	push   $0x2000
  10301a:	89 d0                	mov    %edx,%eax
  10301c:	89 55 f4             	mov    %edx,-0xc(%ebp)
  10301f:	83 e0 03             	and    $0x3,%eax
  103022:	c1 e0 0d             	shl    $0xd,%eax
  103025:	05 00 a4 1a 00       	add    $0x1aa400,%eax
  10302a:	50                   	push   %eax
  10302b:	6a 00                	push   $0x0
  10302d:	e8 5a 0e 00 00       	call   103e8c <ppu_copy>
  103032:	83 c4 10             	add    $0x10,%esp
  103035:	8b 55 f4             	mov    -0xc(%ebp),%edx
  103038:	0f b7 c3             	movzwl %bx,%eax
  10303b:	88 90 60 89 2c 00    	mov    %dl,0x2c8960(%eax)
  103041:	8b 5d fc             	mov    -0x4(%ebp),%ebx
  103044:	c9                   	leave  
  103045:	c3                   	ret    
  103046:	66 90                	xchg   %ax,%ax

00103048 <mmc_copy>:
  103048:	55                   	push   %ebp
  103049:	89 e5                	mov    %esp,%ebp
  10304b:	0f b7 45 08          	movzwl 0x8(%ebp),%eax
  10304f:	05 60 89 2c 00       	add    $0x2c8960,%eax
  103054:	89 45 08             	mov    %eax,0x8(%ebp)
  103057:	5d                   	pop    %ebp
  103058:	e9 bb 19 00 00       	jmp    104a18 <memcpy>
  10305d:	8d 76 00             	lea    0x0(%esi),%esi

00103060 <mmc_append_chr_rom_page>:
  103060:	55                   	push   %ebp
  103061:	89 e5                	mov    %esp,%ebp
  103063:	83 ec 08             	sub    $0x8,%esp
  103066:	a1 e0 a3 1a 00       	mov    0x1aa3e0,%eax
  10306b:	85 c0                	test   %eax,%eax
  10306d:	7f 25                	jg     103094 <mmc_append_chr_rom_page+0x34>
  10306f:	8d 50 01             	lea    0x1(%eax),%edx
  103072:	89 15 e0 a3 1a 00    	mov    %edx,0x1aa3e0
  103078:	52                   	push   %edx
  103079:	68 00 20 00 00       	push   $0x2000
  10307e:	ff 75 08             	pushl  0x8(%ebp)
  103081:	c1 e0 0d             	shl    $0xd,%eax
  103084:	05 00 a4 1a 00       	add    $0x1aa400,%eax
  103089:	50                   	push   %eax
  10308a:	e8 89 19 00 00       	call   104a18 <memcpy>
  10308f:	83 c4 10             	add    $0x10,%esp
  103092:	c9                   	leave  
  103093:	c3                   	ret    
  103094:	51                   	push   %ecx
  103095:	6a 1c                	push   $0x1c
  103097:	68 c0 4e 10 00       	push   $0x104ec0
  10309c:	68 af 4c 10 00       	push   $0x104caf
  1030a1:	e8 c6 18 00 00       	call   10496c <printf>
  1030a6:	c7 04 24 01 00 00 00 	movl   $0x1,(%esp)
  1030ad:	e8 46 15 00 00       	call   1045f8 <_halt>
  1030b2:	66 90                	xchg   %ax,%ax

001030b4 <common_bit_set>:
  1030b4:	55                   	push   %ebp
  1030b5:	89 e5                	mov    %esp,%ebp
  1030b7:	0f b6 4d 10          	movzbl 0x10(%ebp),%ecx
  1030bb:	b8 01 00 00 00       	mov    $0x1,%eax
  1030c0:	d3 e0                	shl    %cl,%eax
  1030c2:	23 45 08             	and    0x8(%ebp),%eax
  1030c5:	5d                   	pop    %ebp
  1030c6:	c3                   	ret    
  1030c7:	90                   	nop

001030c8 <common_set_bitb>:
  1030c8:	55                   	push   %ebp
  1030c9:	89 e5                	mov    %esp,%ebp
  1030cb:	8b 55 08             	mov    0x8(%ebp),%edx
  1030ce:	0f b6 4d 0c          	movzbl 0xc(%ebp),%ecx
  1030d2:	b8 01 00 00 00       	mov    $0x1,%eax
  1030d7:	d3 e0                	shl    %cl,%eax
  1030d9:	08 02                	or     %al,(%edx)
  1030db:	5d                   	pop    %ebp
  1030dc:	c3                   	ret    
  1030dd:	8d 76 00             	lea    0x0(%esi),%esi

001030e0 <common_unset_bitb>:
  1030e0:	55                   	push   %ebp
  1030e1:	89 e5                	mov    %esp,%ebp
  1030e3:	8b 55 08             	mov    0x8(%ebp),%edx
  1030e6:	0f b6 4d 0c          	movzbl 0xc(%ebp),%ecx
  1030ea:	b8 fe ff ff ff       	mov    $0xfffffffe,%eax
  1030ef:	d3 c0                	rol    %cl,%eax
  1030f1:	20 02                	and    %al,(%edx)
  1030f3:	5d                   	pop    %ebp
  1030f4:	c3                   	ret    
  1030f5:	8d 76 00             	lea    0x0(%esi),%esi

001030f8 <common_toggle_bitb>:
  1030f8:	55                   	push   %ebp
  1030f9:	89 e5                	mov    %esp,%ebp
  1030fb:	8b 55 08             	mov    0x8(%ebp),%edx
  1030fe:	0f b6 4d 0c          	movzbl 0xc(%ebp),%ecx
  103102:	b8 01 00 00 00       	mov    $0x1,%eax
  103107:	d3 e0                	shl    %cl,%eax
  103109:	30 02                	xor    %al,(%edx)
  10310b:	5d                   	pop    %ebp
  10310c:	c3                   	ret    
  10310d:	8d 76 00             	lea    0x0(%esi),%esi

00103110 <common_modify_bitb>:
  103110:	55                   	push   %ebp
  103111:	89 e5                	mov    %esp,%ebp
  103113:	53                   	push   %ebx
  103114:	8b 5d 08             	mov    0x8(%ebp),%ebx
  103117:	8a 13                	mov    (%ebx),%dl
  103119:	0f b6 4d 0c          	movzbl 0xc(%ebp),%ecx
  10311d:	b8 01 00 00 00       	mov    $0x1,%eax
  103122:	d3 e0                	shl    %cl,%eax
  103124:	8b 4d 10             	mov    0x10(%ebp),%ecx
  103127:	85 c9                	test   %ecx,%ecx
  103129:	74 09                	je     103134 <common_modify_bitb+0x24>
  10312b:	09 d0                	or     %edx,%eax
  10312d:	88 03                	mov    %al,(%ebx)
  10312f:	5b                   	pop    %ebx
  103130:	5d                   	pop    %ebp
  103131:	c3                   	ret    
  103132:	66 90                	xchg   %ax,%ax
  103134:	f7 d0                	not    %eax
  103136:	21 d0                	and    %edx,%eax
  103138:	88 03                	mov    %al,(%ebx)
  10313a:	5b                   	pop    %ebx
  10313b:	5d                   	pop    %ebp
  10313c:	c3                   	ret    
  10313d:	8d 76 00             	lea    0x0(%esi),%esi

00103140 <common_set_bitw>:
  103140:	55                   	push   %ebp
  103141:	89 e5                	mov    %esp,%ebp
  103143:	8b 55 08             	mov    0x8(%ebp),%edx
  103146:	0f b6 4d 0c          	movzbl 0xc(%ebp),%ecx
  10314a:	b8 01 00 00 00       	mov    $0x1,%eax
  10314f:	d3 e0                	shl    %cl,%eax
  103151:	66 09 02             	or     %ax,(%edx)
  103154:	5d                   	pop    %ebp
  103155:	c3                   	ret    
  103156:	66 90                	xchg   %ax,%ax

00103158 <common_unset_bitw>:
  103158:	55                   	push   %ebp
  103159:	89 e5                	mov    %esp,%ebp
  10315b:	8b 55 08             	mov    0x8(%ebp),%edx
  10315e:	0f b6 4d 0c          	movzbl 0xc(%ebp),%ecx
  103162:	b8 fe ff ff ff       	mov    $0xfffffffe,%eax
  103167:	d3 c0                	rol    %cl,%eax
  103169:	66 21 02             	and    %ax,(%edx)
  10316c:	5d                   	pop    %ebp
  10316d:	c3                   	ret    
  10316e:	66 90                	xchg   %ax,%ax

00103170 <common_toggle_bitw>:
  103170:	55                   	push   %ebp
  103171:	89 e5                	mov    %esp,%ebp
  103173:	8b 55 08             	mov    0x8(%ebp),%edx
  103176:	0f b6 4d 0c          	movzbl 0xc(%ebp),%ecx
  10317a:	b8 01 00 00 00       	mov    $0x1,%eax
  10317f:	d3 e0                	shl    %cl,%eax
  103181:	66 31 02             	xor    %ax,(%edx)
  103184:	5d                   	pop    %ebp
  103185:	c3                   	ret    
  103186:	66 90                	xchg   %ax,%ax

00103188 <common_modify_bitw>:
  103188:	55                   	push   %ebp
  103189:	89 e5                	mov    %esp,%ebp
  10318b:	53                   	push   %ebx
  10318c:	8b 5d 08             	mov    0x8(%ebp),%ebx
  10318f:	66 8b 13             	mov    (%ebx),%dx
  103192:	0f b6 4d 0c          	movzbl 0xc(%ebp),%ecx
  103196:	b8 01 00 00 00       	mov    $0x1,%eax
  10319b:	d3 e0                	shl    %cl,%eax
  10319d:	8b 4d 10             	mov    0x10(%ebp),%ecx
  1031a0:	85 c9                	test   %ecx,%ecx
  1031a2:	74 08                	je     1031ac <common_modify_bitw+0x24>
  1031a4:	09 d0                	or     %edx,%eax
  1031a6:	66 89 03             	mov    %ax,(%ebx)
  1031a9:	5b                   	pop    %ebx
  1031aa:	5d                   	pop    %ebp
  1031ab:	c3                   	ret    
  1031ac:	f7 d0                	not    %eax
  1031ae:	21 d0                	and    %edx,%eax
  1031b0:	66 89 03             	mov    %ax,(%ebx)
  1031b3:	5b                   	pop    %ebx
  1031b4:	5d                   	pop    %ebp
  1031b5:	c3                   	ret    
  1031b6:	66 90                	xchg   %ax,%ax

001031b8 <common_set_bitd>:
  1031b8:	55                   	push   %ebp
  1031b9:	89 e5                	mov    %esp,%ebp
  1031bb:	8b 55 08             	mov    0x8(%ebp),%edx
  1031be:	0f b6 4d 0c          	movzbl 0xc(%ebp),%ecx
  1031c2:	b8 01 00 00 00       	mov    $0x1,%eax
  1031c7:	d3 e0                	shl    %cl,%eax
  1031c9:	09 02                	or     %eax,(%edx)
  1031cb:	5d                   	pop    %ebp
  1031cc:	c3                   	ret    
  1031cd:	8d 76 00             	lea    0x0(%esi),%esi

001031d0 <common_unset_bitd>:
  1031d0:	55                   	push   %ebp
  1031d1:	89 e5                	mov    %esp,%ebp
  1031d3:	8b 55 08             	mov    0x8(%ebp),%edx
  1031d6:	0f b6 4d 0c          	movzbl 0xc(%ebp),%ecx
  1031da:	b8 fe ff ff ff       	mov    $0xfffffffe,%eax
  1031df:	d3 c0                	rol    %cl,%eax
  1031e1:	21 02                	and    %eax,(%edx)
  1031e3:	5d                   	pop    %ebp
  1031e4:	c3                   	ret    
  1031e5:	8d 76 00             	lea    0x0(%esi),%esi

001031e8 <common_toggle_bitd>:
  1031e8:	55                   	push   %ebp
  1031e9:	89 e5                	mov    %esp,%ebp
  1031eb:	8b 55 08             	mov    0x8(%ebp),%edx
  1031ee:	0f b6 4d 0c          	movzbl 0xc(%ebp),%ecx
  1031f2:	b8 01 00 00 00       	mov    $0x1,%eax
  1031f7:	d3 e0                	shl    %cl,%eax
  1031f9:	31 02                	xor    %eax,(%edx)
  1031fb:	5d                   	pop    %ebp
  1031fc:	c3                   	ret    
  1031fd:	8d 76 00             	lea    0x0(%esi),%esi

00103200 <common_modify_bitd>:
  103200:	55                   	push   %ebp
  103201:	89 e5                	mov    %esp,%ebp
  103203:	53                   	push   %ebx
  103204:	8b 5d 08             	mov    0x8(%ebp),%ebx
  103207:	8b 13                	mov    (%ebx),%edx
  103209:	0f b6 4d 0c          	movzbl 0xc(%ebp),%ecx
  10320d:	b8 01 00 00 00       	mov    $0x1,%eax
  103212:	d3 e0                	shl    %cl,%eax
  103214:	8b 4d 10             	mov    0x10(%ebp),%ecx
  103217:	85 c9                	test   %ecx,%ecx
  103219:	74 09                	je     103224 <common_modify_bitd+0x24>
  10321b:	09 d0                	or     %edx,%eax
  10321d:	89 03                	mov    %eax,(%ebx)
  10321f:	5b                   	pop    %ebx
  103220:	5d                   	pop    %ebp
  103221:	c3                   	ret    
  103222:	66 90                	xchg   %ax,%ax
  103224:	f7 d0                	not    %eax
  103226:	21 d0                	and    %edx,%eax
  103228:	89 03                	mov    %eax,(%ebx)
  10322a:	5b                   	pop    %ebx
  10322b:	5d                   	pop    %ebp
  10322c:	c3                   	ret    
  10322d:	66 90                	xchg   %ax,%ax
  10322f:	90                   	nop

00103230 <memory_readb>:
  103230:	55                   	push   %ebp
  103231:	89 e5                	mov    %esp,%ebp
  103233:	8b 45 08             	mov    0x8(%ebp),%eax
  103236:	89 c2                	mov    %eax,%edx
  103238:	66 c1 ea 0d          	shr    $0xd,%dx
  10323c:	66 83 fa 01          	cmp    $0x1,%dx
  103240:	74 1e                	je     103260 <memory_readb+0x30>
  103242:	66 85 d2             	test   %dx,%dx
  103245:	74 41                	je     103288 <memory_readb+0x58>
  103247:	66 83 fa 02          	cmp    $0x2,%dx
  10324b:	74 2f                	je     10327c <memory_readb+0x4c>
  10324d:	66 83 fa 03          	cmp    $0x3,%dx
  103251:	74 19                	je     10326c <memory_readb+0x3c>
  103253:	0f b7 c0             	movzwl %ax,%eax
  103256:	89 45 08             	mov    %eax,0x8(%ebp)
  103259:	5d                   	pop    %ebp
  10325a:	e9 81 fd ff ff       	jmp    102fe0 <mmc_read>
  10325f:	90                   	nop
  103260:	0f b7 c0             	movzwl %ax,%eax
  103263:	89 45 08             	mov    %eax,0x8(%ebp)
  103266:	5d                   	pop    %ebp
  103267:	e9 38 0c 00 00       	jmp    103ea4 <ppu_io_read>
  10326c:	25 ff 1f 00 00       	and    $0x1fff,%eax
  103271:	89 45 08             	mov    %eax,0x8(%ebp)
  103274:	5d                   	pop    %ebp
  103275:	e9 42 dc ff ff       	jmp    100ebc <cpu_ram_read>
  10327a:	66 90                	xchg   %ax,%ax
  10327c:	0f b7 c0             	movzwl %ax,%eax
  10327f:	89 45 08             	mov    %eax,0x8(%ebp)
  103282:	5d                   	pop    %ebp
  103283:	e9 50 01 00 00       	jmp    1033d8 <psg_io_read>
  103288:	25 ff 07 00 00       	and    $0x7ff,%eax
  10328d:	89 45 08             	mov    %eax,0x8(%ebp)
  103290:	5d                   	pop    %ebp
  103291:	e9 26 dc ff ff       	jmp    100ebc <cpu_ram_read>
  103296:	66 90                	xchg   %ax,%ax

00103298 <memory_writeb>:
  103298:	55                   	push   %ebp
  103299:	89 e5                	mov    %esp,%ebp
  10329b:	56                   	push   %esi
  10329c:	53                   	push   %ebx
  10329d:	8b 45 08             	mov    0x8(%ebp),%eax
  1032a0:	8b 5d 0c             	mov    0xc(%ebp),%ebx
  1032a3:	66 3d 14 40          	cmp    $0x4014,%ax
  1032a7:	74 3a                	je     1032e3 <memory_writeb+0x4b>
  1032a9:	89 c2                	mov    %eax,%edx
  1032ab:	66 c1 ea 0d          	shr    $0xd,%dx
  1032af:	0f b6 db             	movzbl %bl,%ebx
  1032b2:	66 83 fa 01          	cmp    $0x1,%dx
  1032b6:	74 70                	je     103328 <memory_writeb+0x90>
  1032b8:	66 85 d2             	test   %dx,%dx
  1032bb:	74 7f                	je     10333c <memory_writeb+0xa4>
  1032bd:	66 83 fa 02          	cmp    $0x2,%dx
  1032c1:	0f 84 8d 00 00 00    	je     103354 <memory_writeb+0xbc>
  1032c7:	66 83 fa 03          	cmp    $0x3,%dx
  1032cb:	75 47                	jne    103314 <memory_writeb+0x7c>
  1032cd:	89 5d 0c             	mov    %ebx,0xc(%ebp)
  1032d0:	25 ff 1f 00 00       	and    $0x1fff,%eax
  1032d5:	89 45 08             	mov    %eax,0x8(%ebp)
  1032d8:	8d 65 f8             	lea    -0x8(%ebp),%esp
  1032db:	5b                   	pop    %ebx
  1032dc:	5e                   	pop    %esi
  1032dd:	5d                   	pop    %ebp
  1032de:	e9 ed db ff ff       	jmp    100ed0 <cpu_ram_write>
  1032e3:	c1 e3 08             	shl    $0x8,%ebx
  1032e6:	8d b3 00 01 00 00    	lea    0x100(%ebx),%esi
  1032ec:	83 ec 0c             	sub    $0xc,%esp
  1032ef:	0f b7 c3             	movzwl %bx,%eax
  1032f2:	50                   	push   %eax
  1032f3:	e8 c4 db ff ff       	call   100ebc <cpu_ram_read>
  1032f8:	0f b6 c0             	movzbl %al,%eax
  1032fb:	89 04 24             	mov    %eax,(%esp)
  1032fe:	e8 f9 0e 00 00       	call   1041fc <ppu_sprram_write>
  103303:	43                   	inc    %ebx
  103304:	83 c4 10             	add    $0x10,%esp
  103307:	66 39 de             	cmp    %bx,%si
  10330a:	75 e0                	jne    1032ec <memory_writeb+0x54>
  10330c:	8d 65 f8             	lea    -0x8(%ebp),%esp
  10330f:	5b                   	pop    %ebx
  103310:	5e                   	pop    %esi
  103311:	5d                   	pop    %ebp
  103312:	c3                   	ret    
  103313:	90                   	nop
  103314:	89 5d 0c             	mov    %ebx,0xc(%ebp)
  103317:	0f b7 c0             	movzwl %ax,%eax
  10331a:	89 45 08             	mov    %eax,0x8(%ebp)
  10331d:	8d 65 f8             	lea    -0x8(%ebp),%esp
  103320:	5b                   	pop    %ebx
  103321:	5e                   	pop    %esi
  103322:	5d                   	pop    %ebp
  103323:	e9 c8 fc ff ff       	jmp    102ff0 <mmc_write>
  103328:	89 5d 0c             	mov    %ebx,0xc(%ebp)
  10332b:	0f b7 c0             	movzwl %ax,%eax
  10332e:	89 45 08             	mov    %eax,0x8(%ebp)
  103331:	8d 65 f8             	lea    -0x8(%ebp),%esp
  103334:	5b                   	pop    %ebx
  103335:	5e                   	pop    %esi
  103336:	5d                   	pop    %ebp
  103337:	e9 88 0c 00 00       	jmp    103fc4 <ppu_io_write>
  10333c:	89 5d 0c             	mov    %ebx,0xc(%ebp)
  10333f:	25 ff 07 00 00       	and    $0x7ff,%eax
  103344:	89 45 08             	mov    %eax,0x8(%ebp)
  103347:	8d 65 f8             	lea    -0x8(%ebp),%esp
  10334a:	5b                   	pop    %ebx
  10334b:	5e                   	pop    %esi
  10334c:	5d                   	pop    %ebp
  10334d:	e9 7e db ff ff       	jmp    100ed0 <cpu_ram_write>
  103352:	66 90                	xchg   %ax,%ax
  103354:	89 5d 0c             	mov    %ebx,0xc(%ebp)
  103357:	0f b7 c0             	movzwl %ax,%eax
  10335a:	89 45 08             	mov    %eax,0x8(%ebp)
  10335d:	8d 65 f8             	lea    -0x8(%ebp),%esp
  103360:	5b                   	pop    %ebx
  103361:	5e                   	pop    %esi
  103362:	5d                   	pop    %ebp
  103363:	e9 a4 00 00 00       	jmp    10340c <psg_io_write>

00103368 <memory_readw>:
  103368:	55                   	push   %ebp
  103369:	89 e5                	mov    %esp,%ebp
  10336b:	56                   	push   %esi
  10336c:	53                   	push   %ebx
  10336d:	8b 5d 08             	mov    0x8(%ebp),%ebx
  103370:	83 ec 0c             	sub    $0xc,%esp
  103373:	0f b7 c3             	movzwl %bx,%eax
  103376:	50                   	push   %eax
  103377:	e8 b4 fe ff ff       	call   103230 <memory_readb>
  10337c:	89 c6                	mov    %eax,%esi
  10337e:	43                   	inc    %ebx
  10337f:	0f b7 db             	movzwl %bx,%ebx
  103382:	89 1c 24             	mov    %ebx,(%esp)
  103385:	e8 a6 fe ff ff       	call   103230 <memory_readb>
  10338a:	c1 e0 08             	shl    $0x8,%eax
  10338d:	89 f2                	mov    %esi,%edx
  10338f:	0f b6 f2             	movzbl %dl,%esi
  103392:	01 f0                	add    %esi,%eax
  103394:	8d 65 f8             	lea    -0x8(%ebp),%esp
  103397:	5b                   	pop    %ebx
  103398:	5e                   	pop    %esi
  103399:	5d                   	pop    %ebp
  10339a:	c3                   	ret    
  10339b:	90                   	nop

0010339c <memory_writew>:
  10339c:	55                   	push   %ebp
  10339d:	89 e5                	mov    %esp,%ebp
  10339f:	53                   	push   %ebx
  1033a0:	83 ec 1c             	sub    $0x1c,%esp
  1033a3:	8b 5d 08             	mov    0x8(%ebp),%ebx
  1033a6:	8b 45 0c             	mov    0xc(%ebp),%eax
  1033a9:	0f b6 d0             	movzbl %al,%edx
  1033ac:	89 45 f4             	mov    %eax,-0xc(%ebp)
  1033af:	52                   	push   %edx
  1033b0:	0f b7 d3             	movzwl %bx,%edx
  1033b3:	52                   	push   %edx
  1033b4:	e8 df fe ff ff       	call   103298 <memory_writeb>
  1033b9:	83 c4 10             	add    $0x10,%esp
  1033bc:	8b 45 f4             	mov    -0xc(%ebp),%eax
  1033bf:	0f b6 c4             	movzbl %ah,%eax
  1033c2:	89 45 0c             	mov    %eax,0xc(%ebp)
  1033c5:	43                   	inc    %ebx
  1033c6:	0f b7 db             	movzwl %bx,%ebx
  1033c9:	89 5d 08             	mov    %ebx,0x8(%ebp)
  1033cc:	8b 5d fc             	mov    -0x4(%ebp),%ebx
  1033cf:	c9                   	leave  
  1033d0:	e9 c3 fe ff ff       	jmp    103298 <memory_writeb>
  1033d5:	66 90                	xchg   %ax,%ax
  1033d7:	90                   	nop

001033d8 <psg_io_read>:
  1033d8:	55                   	push   %ebp
  1033d9:	89 e5                	mov    %esp,%ebp
  1033db:	66 81 7d 08 16 40    	cmpw   $0x4016,0x8(%ebp)
  1033e1:	74 05                	je     1033e8 <psg_io_read+0x10>
  1033e3:	31 c0                	xor    %eax,%eax
  1033e5:	5d                   	pop    %ebp
  1033e6:	c3                   	ret    
  1033e7:	90                   	nop
  1033e8:	a1 d8 53 10 00       	mov    0x1053d8,%eax
  1033ed:	8d 50 01             	lea    0x1(%eax),%edx
  1033f0:	89 15 d8 53 10 00    	mov    %edx,0x1053d8
  1033f6:	83 f8 08             	cmp    $0x8,%eax
  1033f9:	7f e8                	jg     1033e3 <psg_io_read+0xb>
  1033fb:	8b 04 95 00 4f 10 00 	mov    0x104f00(,%edx,4),%eax
  103402:	8a 04 85 20 c4 1a 00 	mov    0x1ac420(,%eax,4),%al
  103409:	5d                   	pop    %ebp
  10340a:	c3                   	ret    
  10340b:	90                   	nop

0010340c <psg_io_write>:
  10340c:	55                   	push   %ebp
  10340d:	89 e5                	mov    %esp,%ebp
  10340f:	8a 45 0c             	mov    0xc(%ebp),%al
  103412:	83 e0 01             	and    $0x1,%eax
  103415:	66 81 7d 08 16 40    	cmpw   $0x4016,0x8(%ebp)
  10341b:	74 07                	je     103424 <psg_io_write+0x18>
  10341d:	a2 00 c4 1a 00       	mov    %al,0x1ac400
  103422:	5d                   	pop    %ebp
  103423:	c3                   	ret    
  103424:	84 c0                	test   %al,%al
  103426:	75 f5                	jne    10341d <psg_io_write+0x11>
  103428:	80 3d 00 c4 1a 00 01 	cmpb   $0x1,0x1ac400
  10342f:	75 ec                	jne    10341d <psg_io_write+0x11>
  103431:	c7 05 d8 53 10 00 00 	movl   $0x0,0x1053d8
  103438:	00 00 00 
  10343b:	eb e0                	jmp    10341d <psg_io_write+0x11>
  10343d:	8d 76 00             	lea    0x0(%esi),%esi

00103440 <psg_detect_key>:
  103440:	55                   	push   %ebp
  103441:	89 e5                	mov    %esp,%ebp
  103443:	83 ec 08             	sub    $0x8,%esp
  103446:	e8 59 16 00 00       	call   104aa4 <read_key>
  10344b:	85 c0                	test   %eax,%eax
  10344d:	74 1c                	je     10346b <psg_detect_key+0x2b>
  10344f:	90                   	nop
  103450:	89 c2                	mov    %eax,%edx
  103452:	80 e6 7f             	and    $0x7f,%dh
  103455:	c1 e8 0f             	shr    $0xf,%eax
  103458:	83 e0 01             	and    $0x1,%eax
  10345b:	89 04 95 20 c4 1a 00 	mov    %eax,0x1ac420(,%edx,4)
  103462:	e8 3d 16 00 00       	call   104aa4 <read_key>
  103467:	85 c0                	test   %eax,%eax
  103469:	75 e5                	jne    103450 <psg_detect_key+0x10>
  10346b:	c9                   	leave  
  10346c:	c3                   	ret    
  10346d:	8d 76 00             	lea    0x0(%esi),%esi

00103470 <psg_init>:
  103470:	c7 05 20 c4 1a 00 01 	movl   $0x1,0x1ac420
  103477:	00 00 00 
  10347a:	c3                   	ret    
  10347b:	90                   	nop

0010347c <ppu_get_real_ram_address.part.0>:
  10347c:	89 c2                	mov    %eax,%edx
  10347e:	83 e0 1f             	and    $0x1f,%eax
  103481:	80 cc 3f             	or     $0x3f,%ah
  103484:	83 e2 13             	and    $0x13,%edx
  103487:	80 ce 3f             	or     $0x3f,%dh
  10348a:	66 81 fa 10 3f       	cmp    $0x3f10,%dx
  10348f:	74 03                	je     103494 <ppu_get_real_ram_address.part.0+0x18>
  103491:	c3                   	ret    
  103492:	66 90                	xchg   %ax,%ax
  103494:	83 e8 10             	sub    $0x10,%eax
  103497:	c3                   	ret    

00103498 <ppu_base_nametable_address>:
  103498:	a0 60 89 2d 00       	mov    0x2d8960,%al
  10349d:	83 e0 03             	and    $0x3,%eax
  1034a0:	66 8b 84 00 20 53 10 	mov    0x105320(%eax,%eax,1),%ax
  1034a7:	00 
  1034a8:	c3                   	ret    
  1034a9:	8d 76 00             	lea    0x0(%esi),%esi

001034ac <ppu_vram_address_increment>:
  1034ac:	55                   	push   %ebp
  1034ad:	89 e5                	mov    %esp,%ebp
  1034af:	83 ec 0c             	sub    $0xc,%esp
  1034b2:	6a 02                	push   $0x2
  1034b4:	0f b6 05 60 89 2d 00 	movzbl 0x2d8960,%eax
  1034bb:	31 d2                	xor    %edx,%edx
  1034bd:	52                   	push   %edx
  1034be:	50                   	push   %eax
  1034bf:	e8 f0 fb ff ff       	call   1030b4 <common_bit_set>
  1034c4:	83 c4 10             	add    $0x10,%esp
  1034c7:	83 f8 01             	cmp    $0x1,%eax
  1034ca:	19 c0                	sbb    %eax,%eax
  1034cc:	83 e0 e1             	and    $0xffffffe1,%eax
  1034cf:	83 c0 20             	add    $0x20,%eax
  1034d2:	c9                   	leave  
  1034d3:	c3                   	ret    

001034d4 <ppu_sprite_pattern_table_address>:
  1034d4:	55                   	push   %ebp
  1034d5:	89 e5                	mov    %esp,%ebp
  1034d7:	83 ec 0c             	sub    $0xc,%esp
  1034da:	6a 03                	push   $0x3
  1034dc:	0f b6 05 60 89 2d 00 	movzbl 0x2d8960,%eax
  1034e3:	31 d2                	xor    %edx,%edx
  1034e5:	52                   	push   %edx
  1034e6:	50                   	push   %eax
  1034e7:	e8 c8 fb ff ff       	call   1030b4 <common_bit_set>
  1034ec:	83 c4 10             	add    $0x10,%esp
  1034ef:	85 c0                	test   %eax,%eax
  1034f1:	75 05                	jne    1034f8 <ppu_sprite_pattern_table_address+0x24>
  1034f3:	c9                   	leave  
  1034f4:	c3                   	ret    
  1034f5:	8d 76 00             	lea    0x0(%esi),%esi
  1034f8:	b8 00 10 00 00       	mov    $0x1000,%eax
  1034fd:	c9                   	leave  
  1034fe:	c3                   	ret    
  1034ff:	90                   	nop

00103500 <ppu_background_pattern_table_address>:
  103500:	55                   	push   %ebp
  103501:	89 e5                	mov    %esp,%ebp
  103503:	83 ec 0c             	sub    $0xc,%esp
  103506:	6a 04                	push   $0x4
  103508:	0f b6 05 60 89 2d 00 	movzbl 0x2d8960,%eax
  10350f:	31 d2                	xor    %edx,%edx
  103511:	52                   	push   %edx
  103512:	50                   	push   %eax
  103513:	e8 9c fb ff ff       	call   1030b4 <common_bit_set>
  103518:	83 c4 10             	add    $0x10,%esp
  10351b:	85 c0                	test   %eax,%eax
  10351d:	75 05                	jne    103524 <ppu_background_pattern_table_address+0x24>
  10351f:	c9                   	leave  
  103520:	c3                   	ret    
  103521:	8d 76 00             	lea    0x0(%esi),%esi
  103524:	b8 00 10 00 00       	mov    $0x1000,%eax
  103529:	c9                   	leave  
  10352a:	c3                   	ret    
  10352b:	90                   	nop

0010352c <ppu_sprite_height>:
  10352c:	55                   	push   %ebp
  10352d:	89 e5                	mov    %esp,%ebp
  10352f:	83 ec 0c             	sub    $0xc,%esp
  103532:	6a 05                	push   $0x5
  103534:	0f b6 05 60 89 2d 00 	movzbl 0x2d8960,%eax
  10353b:	31 d2                	xor    %edx,%edx
  10353d:	52                   	push   %edx
  10353e:	50                   	push   %eax
  10353f:	e8 70 fb ff ff       	call   1030b4 <common_bit_set>
  103544:	83 c4 10             	add    $0x10,%esp
  103547:	83 f8 01             	cmp    $0x1,%eax
  10354a:	19 c0                	sbb    %eax,%eax
  10354c:	83 e0 f8             	and    $0xfffffff8,%eax
  10354f:	83 c0 10             	add    $0x10,%eax
  103552:	c9                   	leave  
  103553:	c3                   	ret    

00103554 <ppu_generates_nmi>:
  103554:	55                   	push   %ebp
  103555:	89 e5                	mov    %esp,%ebp
  103557:	83 ec 0c             	sub    $0xc,%esp
  10355a:	6a 07                	push   $0x7
  10355c:	0f b6 05 60 89 2d 00 	movzbl 0x2d8960,%eax
  103563:	31 d2                	xor    %edx,%edx
  103565:	52                   	push   %edx
  103566:	50                   	push   %eax
  103567:	e8 48 fb ff ff       	call   1030b4 <common_bit_set>
  10356c:	c9                   	leave  
  10356d:	c3                   	ret    
  10356e:	66 90                	xchg   %ax,%ax

00103570 <ppu_renders_grayscale>:
  103570:	55                   	push   %ebp
  103571:	89 e5                	mov    %esp,%ebp
  103573:	83 ec 0c             	sub    $0xc,%esp
  103576:	6a 00                	push   $0x0
  103578:	0f b6 05 61 89 2d 00 	movzbl 0x2d8961,%eax
  10357f:	31 d2                	xor    %edx,%edx
  103581:	52                   	push   %edx
  103582:	50                   	push   %eax
  103583:	e8 2c fb ff ff       	call   1030b4 <common_bit_set>
  103588:	c9                   	leave  
  103589:	c3                   	ret    
  10358a:	66 90                	xchg   %ax,%ax

0010358c <ppu_shows_background_in_leftmost_8px>:
  10358c:	55                   	push   %ebp
  10358d:	89 e5                	mov    %esp,%ebp
  10358f:	83 ec 0c             	sub    $0xc,%esp
  103592:	6a 01                	push   $0x1
  103594:	0f b6 05 61 89 2d 00 	movzbl 0x2d8961,%eax
  10359b:	31 d2                	xor    %edx,%edx
  10359d:	52                   	push   %edx
  10359e:	50                   	push   %eax
  10359f:	e8 10 fb ff ff       	call   1030b4 <common_bit_set>
  1035a4:	c9                   	leave  
  1035a5:	c3                   	ret    
  1035a6:	66 90                	xchg   %ax,%ax

001035a8 <ppu_shows_sprites_in_leftmost_8px>:
  1035a8:	55                   	push   %ebp
  1035a9:	89 e5                	mov    %esp,%ebp
  1035ab:	83 ec 0c             	sub    $0xc,%esp
  1035ae:	6a 02                	push   $0x2
  1035b0:	0f b6 05 61 89 2d 00 	movzbl 0x2d8961,%eax
  1035b7:	31 d2                	xor    %edx,%edx
  1035b9:	52                   	push   %edx
  1035ba:	50                   	push   %eax
  1035bb:	e8 f4 fa ff ff       	call   1030b4 <common_bit_set>
  1035c0:	c9                   	leave  
  1035c1:	c3                   	ret    
  1035c2:	66 90                	xchg   %ax,%ax

001035c4 <ppu_shows_background>:
  1035c4:	55                   	push   %ebp
  1035c5:	89 e5                	mov    %esp,%ebp
  1035c7:	83 ec 0c             	sub    $0xc,%esp
  1035ca:	6a 03                	push   $0x3
  1035cc:	0f b6 05 61 89 2d 00 	movzbl 0x2d8961,%eax
  1035d3:	31 d2                	xor    %edx,%edx
  1035d5:	52                   	push   %edx
  1035d6:	50                   	push   %eax
  1035d7:	e8 d8 fa ff ff       	call   1030b4 <common_bit_set>
  1035dc:	c9                   	leave  
  1035dd:	c3                   	ret    
  1035de:	66 90                	xchg   %ax,%ax

001035e0 <ppu_shows_sprites>:
  1035e0:	55                   	push   %ebp
  1035e1:	89 e5                	mov    %esp,%ebp
  1035e3:	83 ec 0c             	sub    $0xc,%esp
  1035e6:	6a 04                	push   $0x4
  1035e8:	0f b6 05 61 89 2d 00 	movzbl 0x2d8961,%eax
  1035ef:	31 d2                	xor    %edx,%edx
  1035f1:	52                   	push   %edx
  1035f2:	50                   	push   %eax
  1035f3:	e8 bc fa ff ff       	call   1030b4 <common_bit_set>
  1035f8:	c9                   	leave  
  1035f9:	c3                   	ret    
  1035fa:	66 90                	xchg   %ax,%ax

001035fc <ppu_intensifies_reds>:
  1035fc:	55                   	push   %ebp
  1035fd:	89 e5                	mov    %esp,%ebp
  1035ff:	83 ec 0c             	sub    $0xc,%esp
  103602:	6a 05                	push   $0x5
  103604:	0f b6 05 61 89 2d 00 	movzbl 0x2d8961,%eax
  10360b:	31 d2                	xor    %edx,%edx
  10360d:	52                   	push   %edx
  10360e:	50                   	push   %eax
  10360f:	e8 a0 fa ff ff       	call   1030b4 <common_bit_set>
  103614:	c9                   	leave  
  103615:	c3                   	ret    
  103616:	66 90                	xchg   %ax,%ax

00103618 <ppu_intensifies_greens>:
  103618:	55                   	push   %ebp
  103619:	89 e5                	mov    %esp,%ebp
  10361b:	83 ec 0c             	sub    $0xc,%esp
  10361e:	6a 06                	push   $0x6
  103620:	0f b6 05 61 89 2d 00 	movzbl 0x2d8961,%eax
  103627:	31 d2                	xor    %edx,%edx
  103629:	52                   	push   %edx
  10362a:	50                   	push   %eax
  10362b:	e8 84 fa ff ff       	call   1030b4 <common_bit_set>
  103630:	c9                   	leave  
  103631:	c3                   	ret    
  103632:	66 90                	xchg   %ax,%ax

00103634 <ppu_intensifies_blues>:
  103634:	55                   	push   %ebp
  103635:	89 e5                	mov    %esp,%ebp
  103637:	83 ec 0c             	sub    $0xc,%esp
  10363a:	6a 07                	push   $0x7
  10363c:	0f b6 05 61 89 2d 00 	movzbl 0x2d8961,%eax
  103643:	31 d2                	xor    %edx,%edx
  103645:	52                   	push   %edx
  103646:	50                   	push   %eax
  103647:	e8 68 fa ff ff       	call   1030b4 <common_bit_set>
  10364c:	c9                   	leave  
  10364d:	c3                   	ret    
  10364e:	66 90                	xchg   %ax,%ax

00103650 <ppu_set_renders_grayscale>:
  103650:	55                   	push   %ebp
  103651:	89 e5                	mov    %esp,%ebp
  103653:	83 ec 0c             	sub    $0xc,%esp
  103656:	ff 75 08             	pushl  0x8(%ebp)
  103659:	6a 00                	push   $0x0
  10365b:	68 61 89 2d 00       	push   $0x2d8961
  103660:	e8 ab fa ff ff       	call   103110 <common_modify_bitb>
  103665:	83 c4 10             	add    $0x10,%esp
  103668:	c9                   	leave  
  103669:	c3                   	ret    
  10366a:	66 90                	xchg   %ax,%ax

0010366c <ppu_set_shows_background_in_leftmost_8px>:
  10366c:	55                   	push   %ebp
  10366d:	89 e5                	mov    %esp,%ebp
  10366f:	83 ec 0c             	sub    $0xc,%esp
  103672:	ff 75 08             	pushl  0x8(%ebp)
  103675:	6a 01                	push   $0x1
  103677:	68 61 89 2d 00       	push   $0x2d8961
  10367c:	e8 8f fa ff ff       	call   103110 <common_modify_bitb>
  103681:	83 c4 10             	add    $0x10,%esp
  103684:	c9                   	leave  
  103685:	c3                   	ret    
  103686:	66 90                	xchg   %ax,%ax

00103688 <ppu_set_shows_sprites_in_leftmost_8px>:
  103688:	55                   	push   %ebp
  103689:	89 e5                	mov    %esp,%ebp
  10368b:	83 ec 0c             	sub    $0xc,%esp
  10368e:	ff 75 08             	pushl  0x8(%ebp)
  103691:	6a 02                	push   $0x2
  103693:	68 61 89 2d 00       	push   $0x2d8961
  103698:	e8 73 fa ff ff       	call   103110 <common_modify_bitb>
  10369d:	83 c4 10             	add    $0x10,%esp
  1036a0:	c9                   	leave  
  1036a1:	c3                   	ret    
  1036a2:	66 90                	xchg   %ax,%ax

001036a4 <ppu_set_shows_background>:
  1036a4:	55                   	push   %ebp
  1036a5:	89 e5                	mov    %esp,%ebp
  1036a7:	83 ec 0c             	sub    $0xc,%esp
  1036aa:	ff 75 08             	pushl  0x8(%ebp)
  1036ad:	6a 03                	push   $0x3
  1036af:	68 61 89 2d 00       	push   $0x2d8961
  1036b4:	e8 57 fa ff ff       	call   103110 <common_modify_bitb>
  1036b9:	83 c4 10             	add    $0x10,%esp
  1036bc:	c9                   	leave  
  1036bd:	c3                   	ret    
  1036be:	66 90                	xchg   %ax,%ax

001036c0 <ppu_set_shows_sprites>:
  1036c0:	55                   	push   %ebp
  1036c1:	89 e5                	mov    %esp,%ebp
  1036c3:	83 ec 0c             	sub    $0xc,%esp
  1036c6:	ff 75 08             	pushl  0x8(%ebp)
  1036c9:	6a 04                	push   $0x4
  1036cb:	68 61 89 2d 00       	push   $0x2d8961
  1036d0:	e8 3b fa ff ff       	call   103110 <common_modify_bitb>
  1036d5:	83 c4 10             	add    $0x10,%esp
  1036d8:	c9                   	leave  
  1036d9:	c3                   	ret    
  1036da:	66 90                	xchg   %ax,%ax

001036dc <ppu_set_intensifies_reds>:
  1036dc:	55                   	push   %ebp
  1036dd:	89 e5                	mov    %esp,%ebp
  1036df:	83 ec 0c             	sub    $0xc,%esp
  1036e2:	ff 75 08             	pushl  0x8(%ebp)
  1036e5:	6a 05                	push   $0x5
  1036e7:	68 61 89 2d 00       	push   $0x2d8961
  1036ec:	e8 1f fa ff ff       	call   103110 <common_modify_bitb>
  1036f1:	83 c4 10             	add    $0x10,%esp
  1036f4:	c9                   	leave  
  1036f5:	c3                   	ret    
  1036f6:	66 90                	xchg   %ax,%ax

001036f8 <ppu_set_intensifies_greens>:
  1036f8:	55                   	push   %ebp
  1036f9:	89 e5                	mov    %esp,%ebp
  1036fb:	83 ec 0c             	sub    $0xc,%esp
  1036fe:	ff 75 08             	pushl  0x8(%ebp)
  103701:	6a 06                	push   $0x6
  103703:	68 61 89 2d 00       	push   $0x2d8961
  103708:	e8 03 fa ff ff       	call   103110 <common_modify_bitb>
  10370d:	83 c4 10             	add    $0x10,%esp
  103710:	c9                   	leave  
  103711:	c3                   	ret    
  103712:	66 90                	xchg   %ax,%ax

00103714 <ppu_set_intensifies_blues>:
  103714:	55                   	push   %ebp
  103715:	89 e5                	mov    %esp,%ebp
  103717:	83 ec 0c             	sub    $0xc,%esp
  10371a:	ff 75 08             	pushl  0x8(%ebp)
  10371d:	6a 07                	push   $0x7
  10371f:	68 61 89 2d 00       	push   $0x2d8961
  103724:	e8 e7 f9 ff ff       	call   103110 <common_modify_bitb>
  103729:	83 c4 10             	add    $0x10,%esp
  10372c:	c9                   	leave  
  10372d:	c3                   	ret    
  10372e:	66 90                	xchg   %ax,%ax

00103730 <ppu_sprite_overflow>:
  103730:	55                   	push   %ebp
  103731:	89 e5                	mov    %esp,%ebp
  103733:	83 ec 0c             	sub    $0xc,%esp
  103736:	6a 05                	push   $0x5
  103738:	0f b6 05 62 89 2d 00 	movzbl 0x2d8962,%eax
  10373f:	31 d2                	xor    %edx,%edx
  103741:	52                   	push   %edx
  103742:	50                   	push   %eax
  103743:	e8 6c f9 ff ff       	call   1030b4 <common_bit_set>
  103748:	c9                   	leave  
  103749:	c3                   	ret    
  10374a:	66 90                	xchg   %ax,%ax

0010374c <ppu_sprite_0_hit>:
  10374c:	55                   	push   %ebp
  10374d:	89 e5                	mov    %esp,%ebp
  10374f:	83 ec 0c             	sub    $0xc,%esp
  103752:	6a 06                	push   $0x6
  103754:	0f b6 05 62 89 2d 00 	movzbl 0x2d8962,%eax
  10375b:	31 d2                	xor    %edx,%edx
  10375d:	52                   	push   %edx
  10375e:	50                   	push   %eax
  10375f:	e8 50 f9 ff ff       	call   1030b4 <common_bit_set>
  103764:	c9                   	leave  
  103765:	c3                   	ret    
  103766:	66 90                	xchg   %ax,%ax

00103768 <ppu_in_vblank>:
  103768:	55                   	push   %ebp
  103769:	89 e5                	mov    %esp,%ebp
  10376b:	83 ec 0c             	sub    $0xc,%esp
  10376e:	6a 07                	push   $0x7
  103770:	0f b6 05 62 89 2d 00 	movzbl 0x2d8962,%eax
  103777:	31 d2                	xor    %edx,%edx
  103779:	52                   	push   %edx
  10377a:	50                   	push   %eax
  10377b:	e8 34 f9 ff ff       	call   1030b4 <common_bit_set>
  103780:	c9                   	leave  
  103781:	c3                   	ret    
  103782:	66 90                	xchg   %ax,%ax

00103784 <ppu_set_sprite_overflow>:
  103784:	55                   	push   %ebp
  103785:	89 e5                	mov    %esp,%ebp
  103787:	83 ec 0c             	sub    $0xc,%esp
  10378a:	ff 75 08             	pushl  0x8(%ebp)
  10378d:	6a 05                	push   $0x5
  10378f:	68 62 89 2d 00       	push   $0x2d8962
  103794:	e8 77 f9 ff ff       	call   103110 <common_modify_bitb>
  103799:	83 c4 10             	add    $0x10,%esp
  10379c:	c9                   	leave  
  10379d:	c3                   	ret    
  10379e:	66 90                	xchg   %ax,%ax

001037a0 <ppu_set_sprite_0_hit>:
  1037a0:	55                   	push   %ebp
  1037a1:	89 e5                	mov    %esp,%ebp
  1037a3:	83 ec 0c             	sub    $0xc,%esp
  1037a6:	ff 75 08             	pushl  0x8(%ebp)
  1037a9:	6a 06                	push   $0x6
  1037ab:	68 62 89 2d 00       	push   $0x2d8962
  1037b0:	e8 5b f9 ff ff       	call   103110 <common_modify_bitb>
  1037b5:	83 c4 10             	add    $0x10,%esp
  1037b8:	c9                   	leave  
  1037b9:	c3                   	ret    
  1037ba:	66 90                	xchg   %ax,%ax

001037bc <ppu_set_in_vblank>:
  1037bc:	55                   	push   %ebp
  1037bd:	89 e5                	mov    %esp,%ebp
  1037bf:	83 ec 0c             	sub    $0xc,%esp
  1037c2:	ff 75 08             	pushl  0x8(%ebp)
  1037c5:	6a 07                	push   $0x7
  1037c7:	68 62 89 2d 00       	push   $0x2d8962
  1037cc:	e8 3f f9 ff ff       	call   103110 <common_modify_bitb>
  1037d1:	83 c4 10             	add    $0x10,%esp
  1037d4:	c9                   	leave  
  1037d5:	c3                   	ret    
  1037d6:	66 90                	xchg   %ax,%ax

001037d8 <ppu_get_real_ram_address>:
  1037d8:	55                   	push   %ebp
  1037d9:	89 e5                	mov    %esp,%ebp
  1037db:	8b 55 08             	mov    0x8(%ebp),%edx
  1037de:	66 81 fa ff 3e       	cmp    $0x3eff,%dx
  1037e3:	77 07                	ja     1037ec <ppu_get_real_ram_address+0x14>
  1037e5:	89 d0                	mov    %edx,%eax
  1037e7:	5d                   	pop    %ebp
  1037e8:	c3                   	ret    
  1037e9:	8d 76 00             	lea    0x0(%esi),%esi
  1037ec:	66 81 fa ff 3f       	cmp    $0x3fff,%dx
  1037f1:	76 09                	jbe    1037fc <ppu_get_real_ram_address+0x24>
  1037f3:	b8 ff ff ff ff       	mov    $0xffffffff,%eax
  1037f8:	5d                   	pop    %ebp
  1037f9:	c3                   	ret    
  1037fa:	66 90                	xchg   %ax,%ax
  1037fc:	0f b7 c2             	movzwl %dx,%eax
  1037ff:	5d                   	pop    %ebp
  103800:	e9 77 fc ff ff       	jmp    10347c <ppu_get_real_ram_address.part.0>
  103805:	8d 76 00             	lea    0x0(%esi),%esi

00103808 <ppu_ram_read>:
  103808:	55                   	push   %ebp
  103809:	89 e5                	mov    %esp,%ebp
  10380b:	83 ec 08             	sub    $0x8,%esp
  10380e:	8b 55 08             	mov    0x8(%ebp),%edx
  103811:	0f b7 c2             	movzwl %dx,%eax
  103814:	66 81 fa ff 3e       	cmp    $0x3eff,%dx
  103819:	77 09                	ja     103824 <ppu_ram_read+0x1c>
  10381b:	8a 80 00 c8 2b 00    	mov    0x2bc800(%eax),%al
  103821:	c9                   	leave  
  103822:	c3                   	ret    
  103823:	90                   	nop
  103824:	66 81 fa ff 3f       	cmp    $0x3fff,%dx
  103829:	76 0d                	jbe    103838 <ppu_ram_read+0x30>
  10382b:	b8 ff ff 00 00       	mov    $0xffff,%eax
  103830:	8a 80 00 c8 2b 00    	mov    0x2bc800(%eax),%al
  103836:	c9                   	leave  
  103837:	c3                   	ret    
  103838:	e8 3f fc ff ff       	call   10347c <ppu_get_real_ram_address.part.0>
  10383d:	0f b7 c0             	movzwl %ax,%eax
  103840:	8a 80 00 c8 2b 00    	mov    0x2bc800(%eax),%al
  103846:	c9                   	leave  
  103847:	c3                   	ret    

00103848 <ppu_ram_write>:
  103848:	55                   	push   %ebp
  103849:	89 e5                	mov    %esp,%ebp
  10384b:	83 ec 08             	sub    $0x8,%esp
  10384e:	8b 55 08             	mov    0x8(%ebp),%edx
  103851:	8b 4d 0c             	mov    0xc(%ebp),%ecx
  103854:	0f b7 c2             	movzwl %dx,%eax
  103857:	66 81 fa ff 3e       	cmp    $0x3eff,%dx
  10385c:	77 0a                	ja     103868 <ppu_ram_write+0x20>
  10385e:	88 88 00 c8 2b 00    	mov    %cl,0x2bc800(%eax)
  103864:	c9                   	leave  
  103865:	c3                   	ret    
  103866:	66 90                	xchg   %ax,%ax
  103868:	66 81 fa ff 3f       	cmp    $0x3fff,%dx
  10386d:	76 0d                	jbe    10387c <ppu_ram_write+0x34>
  10386f:	b8 ff ff 00 00       	mov    $0xffff,%eax
  103874:	88 88 00 c8 2b 00    	mov    %cl,0x2bc800(%eax)
  10387a:	c9                   	leave  
  10387b:	c3                   	ret    
  10387c:	e8 fb fb ff ff       	call   10347c <ppu_get_real_ram_address.part.0>
  103881:	0f b7 c0             	movzwl %ax,%eax
  103884:	88 88 00 c8 2b 00    	mov    %cl,0x2bc800(%eax)
  10388a:	c9                   	leave  
  10388b:	c3                   	ret    

0010388c <ppu_draw_background_scanline>:
  10388c:	55                   	push   %ebp
  10388d:	89 e5                	mov    %esp,%ebp
  10388f:	57                   	push   %edi
  103890:	56                   	push   %esi
  103891:	53                   	push   %ebx
  103892:	83 ec 30             	sub    $0x30,%esp
  103895:	6a 01                	push   $0x1
  103897:	0f b6 05 61 89 2d 00 	movzbl 0x2d8961,%eax
  10389e:	31 d2                	xor    %edx,%edx
  1038a0:	52                   	push   %edx
  1038a1:	50                   	push   %eax
  1038a2:	e8 0d f8 ff ff       	call   1030b4 <common_bit_set>
  1038a7:	83 c4 10             	add    $0x10,%esp
  1038aa:	85 c0                	test   %eax,%eax
  1038ac:	0f 94 c0             	sete   %al
  1038af:	0f b6 c0             	movzbl %al,%eax
  1038b2:	89 45 e4             	mov    %eax,-0x1c(%ebp)
  1038b5:	c1 e0 03             	shl    $0x3,%eax
  1038b8:	89 45 dc             	mov    %eax,-0x24(%ebp)
  1038bb:	90                   	nop
  1038bc:	8b 7d 08             	mov    0x8(%ebp),%edi
  1038bf:	85 ff                	test   %edi,%edi
  1038c1:	0f 85 75 01 00 00    	jne    103a3c <ppu_draw_background_scanline+0x1b0>
  1038c7:	0f b6 0d 60 89 2d 00 	movzbl 0x2d8960,%ecx
  1038ce:	8b 15 88 89 2d 00    	mov    0x2d8988,%edx
  1038d4:	c1 fa 03             	sar    $0x3,%edx
  1038d7:	c1 e2 05             	shl    $0x5,%edx
  1038da:	89 c8                	mov    %ecx,%eax
  1038dc:	83 e0 03             	and    $0x3,%eax
  1038df:	66 03 94 00 20 53 10 	add    0x105320(%eax,%eax,1),%dx
  1038e6:	00 
  1038e7:	03 55 e4             	add    -0x1c(%ebp),%edx
  1038ea:	c7 45 d4 00 00 00 00 	movl   $0x0,-0x2c(%ebp)
  1038f1:	66 c7 45 da 00 00    	movw   $0x0,-0x26(%ebp)
  1038f7:	0f b7 c2             	movzwl %dx,%eax
  1038fa:	66 81 fa ff 3e       	cmp    $0x3eff,%dx
  1038ff:	0f 87 8b 01 00 00    	ja     103a90 <ppu_draw_background_scanline+0x204>
  103905:	8a 98 00 c8 2b 00    	mov    0x2bc800(%eax),%bl
  10390b:	56                   	push   %esi
  10390c:	6a 04                	push   $0x4
  10390e:	31 d2                	xor    %edx,%edx
  103910:	52                   	push   %edx
  103911:	51                   	push   %ecx
  103912:	e8 9d f7 ff ff       	call   1030b4 <common_bit_set>
  103917:	83 c4 10             	add    $0x10,%esp
  10391a:	85 c0                	test   %eax,%eax
  10391c:	0f 85 62 01 00 00    	jne    103a84 <ppu_draw_background_scanline+0x1f8>
  103922:	31 d2                	xor    %edx,%edx
  103924:	8b 0d 88 89 2d 00    	mov    0x2d8988,%ecx
  10392a:	83 e1 07             	and    $0x7,%ecx
  10392d:	0f b6 c3             	movzbl %bl,%eax
  103930:	c1 e0 04             	shl    $0x4,%eax
  103933:	89 c3                	mov    %eax,%ebx
  103935:	8d 04 0b             	lea    (%ebx,%ecx,1),%eax
  103938:	01 d0                	add    %edx,%eax
  10393a:	8b 55 e4             	mov    -0x1c(%ebp),%edx
  10393d:	c1 fa 02             	sar    $0x2,%edx
  103940:	66 89 55 d8          	mov    %dx,-0x28(%ebp)
  103944:	8d 50 08             	lea    0x8(%eax),%edx
  103947:	0f b7 d2             	movzwl %dx,%edx
  10394a:	0f b6 92 00 c8 2b 00 	movzbl 0x2bc800(%edx),%edx
  103951:	0f b7 c0             	movzwl %ax,%eax
  103954:	0f b6 80 00 c8 2b 00 	movzbl 0x2bc800(%eax),%eax
  10395b:	c1 e0 08             	shl    $0x8,%eax
  10395e:	01 d0                	add    %edx,%eax
  103960:	c1 e0 03             	shl    $0x3,%eax
  103963:	89 45 e0             	mov    %eax,-0x20(%ebp)
  103966:	31 db                	xor    %ebx,%ebx
  103968:	eb 4a                	jmp    1039b4 <ppu_draw_background_scanline+0x128>
  10396a:	66 90                	xchg   %ax,%ax
  10396c:	0f b7 c0             	movzwl %ax,%eax
  10396f:	e8 08 fb ff ff       	call   10347c <ppu_get_real_ram_address.part.0>
  103974:	0f b7 c0             	movzwl %ax,%eax
  103977:	0f b6 b8 00 c8 2b 00 	movzbl 0x2bc800(%eax),%edi
  10397e:	8b 45 dc             	mov    -0x24(%ebp),%eax
  103981:	01 d8                	add    %ebx,%eax
  103983:	89 c2                	mov    %eax,%edx
  103985:	c1 e2 05             	shl    $0x5,%edx
  103988:	29 c2                	sub    %eax,%edx
  10398a:	88 8c d6 20 c8 2a 00 	mov    %cl,0x2ac820(%esi,%edx,8)
  103991:	52                   	push   %edx
  103992:	57                   	push   %edi
  103993:	46                   	inc    %esi
  103994:	56                   	push   %esi
  103995:	0f b6 15 68 89 2d 00 	movzbl 0x2d8968,%edx
  10399c:	29 d0                	sub    %edx,%eax
  10399e:	03 45 d4             	add    -0x2c(%ebp),%eax
  1039a1:	50                   	push   %eax
  1039a2:	e8 75 f2 ff ff       	call   102c1c <draw>
  1039a7:	83 c4 10             	add    $0x10,%esp
  1039aa:	43                   	inc    %ebx
  1039ab:	83 fb 08             	cmp    $0x8,%ebx
  1039ae:	0f 84 98 00 00 00    	je     103a4c <ppu_draw_background_scanline+0x1c0>
  1039b4:	8b 45 e0             	mov    -0x20(%ebp),%eax
  1039b7:	8a 8c 18 20 c8 22 00 	mov    0x22c820(%eax,%ebx,1),%cl
  1039be:	84 c9                	test   %cl,%cl
  1039c0:	74 e8                	je     1039aa <ppu_draw_background_scanline+0x11e>
  1039c2:	8b 35 88 89 2d 00    	mov    0x2d8988,%esi
  1039c8:	a0 60 89 2d 00       	mov    0x2d8960,%al
  1039cd:	83 e0 03             	and    $0x3,%eax
  1039d0:	89 f2                	mov    %esi,%edx
  1039d2:	c1 fa 05             	sar    $0x5,%edx
  1039d5:	66 8b 84 00 20 53 10 	mov    0x105320(%eax,%eax,1),%ax
  1039dc:	00 
  1039dd:	8d 94 d0 c0 03 00 00 	lea    0x3c0(%eax,%edx,8),%edx
  1039e4:	03 55 d8             	add    -0x28(%ebp),%edx
  1039e7:	66 03 55 da          	add    -0x26(%ebp),%dx
  1039eb:	89 f7                	mov    %esi,%edi
  1039ed:	81 e7 1f 00 00 80    	and    $0x8000001f,%edi
  1039f3:	79 05                	jns    1039fa <ppu_draw_background_scanline+0x16e>
  1039f5:	4f                   	dec    %edi
  1039f6:	83 cf e0             	or     $0xffffffe0,%edi
  1039f9:	47                   	inc    %edi
  1039fa:	0f b7 c2             	movzwl %dx,%eax
  1039fd:	66 81 fa ff 3e       	cmp    $0x3eff,%dx
  103a02:	77 64                	ja     103a68 <ppu_draw_background_scanline+0x1dc>
  103a04:	8a 80 00 c8 2b 00    	mov    0x2bc800(%eax),%al
  103a0a:	83 ff 0f             	cmp    $0xf,%edi
  103a0d:	7e 03                	jle    103a12 <ppu_draw_background_scanline+0x186>
  103a0f:	c0 e8 04             	shr    $0x4,%al
  103a12:	83 7d e4 0f          	cmpl   $0xf,-0x1c(%ebp)
  103a16:	7e 03                	jle    103a1b <ppu_draw_background_scanline+0x18f>
  103a18:	c0 e8 02             	shr    $0x2,%al
  103a1b:	83 e0 03             	and    $0x3,%eax
  103a1e:	0f b6 d1             	movzbl %cl,%edx
  103a21:	8d 84 82 00 3f 00 00 	lea    0x3f00(%edx,%eax,4),%eax
  103a28:	66 3d ff 3f          	cmp    $0x3fff,%ax
  103a2c:	0f 86 3a ff ff ff    	jbe    10396c <ppu_draw_background_scanline+0xe0>
  103a32:	b8 ff ff 00 00       	mov    $0xffff,%eax
  103a37:	e9 3b ff ff ff       	jmp    103977 <ppu_draw_background_scanline+0xeb>
  103a3c:	0f b6 05 68 89 2d 00 	movzbl 0x2d8968,%eax
  103a43:	8b 5d dc             	mov    -0x24(%ebp),%ebx
  103a46:	29 c3                	sub    %eax,%ebx
  103a48:	85 db                	test   %ebx,%ebx
  103a4a:	7e 62                	jle    103aae <ppu_draw_background_scanline+0x222>
  103a4c:	ff 45 e4             	incl   -0x1c(%ebp)
  103a4f:	8b 45 e4             	mov    -0x1c(%ebp),%eax
  103a52:	83 45 dc 08          	addl   $0x8,-0x24(%ebp)
  103a56:	83 f8 20             	cmp    $0x20,%eax
  103a59:	0f 85 5d fe ff ff    	jne    1038bc <ppu_draw_background_scanline+0x30>
  103a5f:	8d 65 f4             	lea    -0xc(%ebp),%esp
  103a62:	5b                   	pop    %ebx
  103a63:	5e                   	pop    %esi
  103a64:	5f                   	pop    %edi
  103a65:	5d                   	pop    %ebp
  103a66:	c3                   	ret    
  103a67:	90                   	nop
  103a68:	66 81 fa ff 3f       	cmp    $0x3fff,%dx
  103a6d:	77 0d                	ja     103a7c <ppu_draw_background_scanline+0x1f0>
  103a6f:	e8 08 fa ff ff       	call   10347c <ppu_get_real_ram_address.part.0>
  103a74:	0f b7 c0             	movzwl %ax,%eax
  103a77:	eb 8b                	jmp    103a04 <ppu_draw_background_scanline+0x178>
  103a79:	8d 76 00             	lea    0x0(%esi),%esi
  103a7c:	b8 ff ff 00 00       	mov    $0xffff,%eax
  103a81:	eb 81                	jmp    103a04 <ppu_draw_background_scanline+0x178>
  103a83:	90                   	nop
  103a84:	ba 00 10 00 00       	mov    $0x1000,%edx
  103a89:	e9 96 fe ff ff       	jmp    103924 <ppu_draw_background_scanline+0x98>
  103a8e:	66 90                	xchg   %ax,%ax
  103a90:	66 81 fa ff 3f       	cmp    $0x3fff,%dx
  103a95:	77 0d                	ja     103aa4 <ppu_draw_background_scanline+0x218>
  103a97:	e8 e0 f9 ff ff       	call   10347c <ppu_get_real_ram_address.part.0>
  103a9c:	0f b7 c0             	movzwl %ax,%eax
  103a9f:	e9 61 fe ff ff       	jmp    103905 <ppu_draw_background_scanline+0x79>
  103aa4:	b8 ff ff 00 00       	mov    $0xffff,%eax
  103aa9:	e9 57 fe ff ff       	jmp    103905 <ppu_draw_background_scanline+0x79>
  103aae:	0f b6 0d 60 89 2d 00 	movzbl 0x2d8960,%ecx
  103ab5:	8b 15 88 89 2d 00    	mov    0x2d8988,%edx
  103abb:	c1 fa 03             	sar    $0x3,%edx
  103abe:	c1 e2 05             	shl    $0x5,%edx
  103ac1:	89 c8                	mov    %ecx,%eax
  103ac3:	83 e0 03             	and    $0x3,%eax
  103ac6:	66 03 94 00 20 53 10 	add    0x105320(%eax,%eax,1),%dx
  103acd:	00 
  103ace:	8b 45 e4             	mov    -0x1c(%ebp),%eax
  103ad1:	8d 94 02 00 04 00 00 	lea    0x400(%edx,%eax,1),%edx
  103ad8:	c7 45 d4 00 01 00 00 	movl   $0x100,-0x2c(%ebp)
  103adf:	66 c7 45 da 00 04    	movw   $0x400,-0x26(%ebp)
  103ae5:	e9 0d fe ff ff       	jmp    1038f7 <ppu_draw_background_scanline+0x6b>
  103aea:	66 90                	xchg   %ax,%ax

00103aec <ppu_draw_sprite_scanline>:
  103aec:	55                   	push   %ebp
  103aed:	89 e5                	mov    %esp,%ebp
  103aef:	57                   	push   %edi
  103af0:	56                   	push   %esi
  103af1:	53                   	push   %ebx
  103af2:	83 ec 2c             	sub    $0x2c,%esp
  103af5:	c7 45 e4 00 00 00 00 	movl   $0x0,-0x1c(%ebp)
  103afc:	c7 45 d0 00 00 00 00 	movl   $0x0,-0x30(%ebp)
  103b03:	eb 15                	jmp    103b1a <ppu_draw_sprite_scanline+0x2e>
  103b05:	8d 76 00             	lea    0x0(%esi),%esi
  103b08:	83 45 e4 04          	addl   $0x4,-0x1c(%ebp)
  103b0c:	8b 45 e4             	mov    -0x1c(%ebp),%eax
  103b0f:	3d 00 01 00 00       	cmp    $0x100,%eax
  103b14:	0f 84 f3 01 00 00    	je     103d0d <ppu_draw_sprite_scanline+0x221>
  103b1a:	8b 45 e4             	mov    -0x1c(%ebp),%eax
  103b1d:	0f b6 b8 00 08 2c 00 	movzbl 0x2c0800(%eax),%edi
  103b24:	89 7d d8             	mov    %edi,-0x28(%ebp)
  103b27:	3b 3d 88 89 2d 00    	cmp    0x2d8988,%edi
  103b2d:	7f d9                	jg     103b08 <ppu_draw_sprite_scanline+0x1c>
  103b2f:	0f b6 98 03 08 2c 00 	movzbl 0x2c0803(%eax),%ebx
  103b36:	50                   	push   %eax
  103b37:	6a 05                	push   $0x5
  103b39:	0f b6 05 60 89 2d 00 	movzbl 0x2d8960,%eax
  103b40:	31 d2                	xor    %edx,%edx
  103b42:	52                   	push   %edx
  103b43:	50                   	push   %eax
  103b44:	e8 6b f5 ff ff       	call   1030b4 <common_bit_set>
  103b49:	83 c4 10             	add    $0x10,%esp
  103b4c:	83 f8 01             	cmp    $0x1,%eax
  103b4f:	19 c0                	sbb    %eax,%eax
  103b51:	83 e0 f8             	and    $0xfffffff8,%eax
  103b54:	8d 44 38 10          	lea    0x10(%eax,%edi,1),%eax
  103b58:	3b 05 88 89 2d 00    	cmp    0x2d8988,%eax
  103b5e:	7c a8                	jl     103b08 <ppu_draw_sprite_scanline+0x1c>
  103b60:	ff 45 d0             	incl   -0x30(%ebp)
  103b63:	8b 45 d0             	mov    -0x30(%ebp),%eax
  103b66:	83 f8 08             	cmp    $0x8,%eax
  103b69:	0f 8f 69 01 00 00    	jg     103cd8 <ppu_draw_sprite_scanline+0x1ec>
  103b6f:	8b 45 e4             	mov    -0x1c(%ebp),%eax
  103b72:	8a 88 02 08 2c 00    	mov    0x2c0802(%eax),%cl
  103b78:	88 c8                	mov    %cl,%al
  103b7a:	88 4d dc             	mov    %cl,-0x24(%ebp)
  103b7d:	83 e0 40             	and    $0x40,%eax
  103b80:	88 45 e3             	mov    %al,-0x1d(%ebp)
  103b83:	51                   	push   %ecx
  103b84:	6a 03                	push   $0x3
  103b86:	0f b6 05 60 89 2d 00 	movzbl 0x2d8960,%eax
  103b8d:	31 d2                	xor    %edx,%edx
  103b8f:	52                   	push   %edx
  103b90:	50                   	push   %eax
  103b91:	e8 1e f5 ff ff       	call   1030b4 <common_bit_set>
  103b96:	83 c4 10             	add    $0x10,%esp
  103b99:	85 c0                	test   %eax,%eax
  103b9b:	8a 4d dc             	mov    -0x24(%ebp),%cl
  103b9e:	0f 85 28 01 00 00    	jne    103ccc <ppu_draw_sprite_scanline+0x1e0>
  103ba4:	31 d2                	xor    %edx,%edx
  103ba6:	8b 45 e4             	mov    -0x1c(%ebp),%eax
  103ba9:	0f b6 80 01 08 2c 00 	movzbl 0x2c0801(%eax),%eax
  103bb0:	c1 e0 04             	shl    $0x4,%eax
  103bb3:	01 d0                	add    %edx,%eax
  103bb5:	8b 35 88 89 2d 00    	mov    0x2d8988,%esi
  103bbb:	83 e6 07             	and    $0x7,%esi
  103bbe:	89 75 cc             	mov    %esi,-0x34(%ebp)
  103bc1:	89 f2                	mov    %esi,%edx
  103bc3:	84 c9                	test   %cl,%cl
  103bc5:	79 07                	jns    103bce <ppu_draw_sprite_scanline+0xe2>
  103bc7:	ba 07 00 00 00       	mov    $0x7,%edx
  103bcc:	29 f2                	sub    %esi,%edx
  103bce:	01 d0                	add    %edx,%eax
  103bd0:	8b 4d e4             	mov    -0x1c(%ebp),%ecx
  103bd3:	8a 91 02 08 2c 00    	mov    0x2c0802(%ecx),%dl
  103bd9:	83 e2 03             	and    $0x3,%edx
  103bdc:	8d 0c 95 10 3f 00 00 	lea    0x3f10(,%edx,4),%ecx
  103be3:	66 89 4d e0          	mov    %cx,-0x20(%ebp)
  103be7:	8d 50 08             	lea    0x8(%eax),%edx
  103bea:	0f b7 d2             	movzwl %dx,%edx
  103bed:	0f b6 92 00 c8 2b 00 	movzbl 0x2bc800(%edx),%edx
  103bf4:	0f b7 c0             	movzwl %ax,%eax
  103bf7:	0f b6 b0 00 c8 2b 00 	movzbl 0x2bc800(%eax),%esi
  103bfe:	c1 e6 08             	shl    $0x8,%esi
  103c01:	01 d6                	add    %edx,%esi
  103c03:	c1 e6 03             	shl    $0x3,%esi
  103c06:	8d 43 08             	lea    0x8(%ebx),%eax
  103c09:	89 45 dc             	mov    %eax,-0x24(%ebp)
  103c0c:	8b 45 cc             	mov    -0x34(%ebp),%eax
  103c0f:	8b 4d d8             	mov    -0x28(%ebp),%ecx
  103c12:	8d 44 08 01          	lea    0x1(%eax,%ecx,1),%eax
  103c16:	89 45 d4             	mov    %eax,-0x2c(%ebp)
  103c19:	e9 89 00 00 00       	jmp    103ca7 <ppu_draw_sprite_scanline+0x1bb>
  103c1e:	66 90                	xchg   %ax,%ax
  103c20:	0f b6 be 20 c8 1a 00 	movzbl 0x1ac820(%esi),%edi
  103c27:	85 ff                	test   %edi,%edi
  103c29:	74 71                	je     103c9c <ppu_draw_sprite_scanline+0x1b0>
  103c2b:	8b 45 e0             	mov    -0x20(%ebp),%eax
  103c2e:	01 f8                	add    %edi,%eax
  103c30:	66 3d ff 3f          	cmp    $0x3fff,%ax
  103c34:	0f 87 86 00 00 00    	ja     103cc0 <ppu_draw_sprite_scanline+0x1d4>
  103c3a:	0f b7 c0             	movzwl %ax,%eax
  103c3d:	e8 3a f8 ff ff       	call   10347c <ppu_get_real_ram_address.part.0>
  103c42:	0f b7 c0             	movzwl %ax,%eax
  103c45:	52                   	push   %edx
  103c46:	0f b6 80 00 c8 2b 00 	movzbl 0x2bc800(%eax),%eax
  103c4d:	50                   	push   %eax
  103c4e:	ff 75 d4             	pushl  -0x2c(%ebp)
  103c51:	53                   	push   %ebx
  103c52:	e8 c5 ef ff ff       	call   102c1c <draw>
  103c57:	83 c4 0c             	add    $0xc,%esp
  103c5a:	6a 03                	push   $0x3
  103c5c:	0f b6 05 61 89 2d 00 	movzbl 0x2d8961,%eax
  103c63:	31 d2                	xor    %edx,%edx
  103c65:	52                   	push   %edx
  103c66:	50                   	push   %eax
  103c67:	e8 48 f4 ff ff       	call   1030b4 <common_bit_set>
  103c6c:	83 c4 10             	add    $0x10,%esp
  103c6f:	85 c0                	test   %eax,%eax
  103c71:	74 29                	je     103c9c <ppu_draw_sprite_scanline+0x1b0>
  103c73:	8b 45 e4             	mov    -0x1c(%ebp),%eax
  103c76:	0b 05 e0 c7 2b 00    	or     0x2bc7e0,%eax
  103c7c:	75 1e                	jne    103c9c <ppu_draw_sprite_scanline+0x1b0>
  103c7e:	8b 45 cc             	mov    -0x34(%ebp),%eax
  103c81:	8b 4d d8             	mov    -0x28(%ebp),%ecx
  103c84:	8d 84 08 20 c8 2a 00 	lea    0x2ac820(%eax,%ecx,1),%eax
  103c8b:	89 da                	mov    %ebx,%edx
  103c8d:	c1 e2 05             	shl    $0x5,%edx
  103c90:	29 da                	sub    %ebx,%edx
  103c92:	0f b6 04 d0          	movzbl (%eax,%edx,8),%eax
  103c96:	39 f8                	cmp    %edi,%eax
  103c98:	74 55                	je     103cef <ppu_draw_sprite_scanline+0x203>
  103c9a:	66 90                	xchg   %ax,%ax
  103c9c:	43                   	inc    %ebx
  103c9d:	46                   	inc    %esi
  103c9e:	39 5d dc             	cmp    %ebx,-0x24(%ebp)
  103ca1:	0f 84 61 fe ff ff    	je     103b08 <ppu_draw_sprite_scanline+0x1c>
  103ca7:	80 7d e3 00          	cmpb   $0x0,-0x1d(%ebp)
  103cab:	0f 85 6f ff ff ff    	jne    103c20 <ppu_draw_sprite_scanline+0x134>
  103cb1:	0f b6 be 20 c8 22 00 	movzbl 0x22c820(%esi),%edi
  103cb8:	e9 6a ff ff ff       	jmp    103c27 <ppu_draw_sprite_scanline+0x13b>
  103cbd:	8d 76 00             	lea    0x0(%esi),%esi
  103cc0:	b8 ff ff 00 00       	mov    $0xffff,%eax
  103cc5:	e9 7b ff ff ff       	jmp    103c45 <ppu_draw_sprite_scanline+0x159>
  103cca:	66 90                	xchg   %ax,%ax
  103ccc:	ba 00 10 00 00       	mov    $0x1000,%edx
  103cd1:	e9 d0 fe ff ff       	jmp    103ba6 <ppu_draw_sprite_scanline+0xba>
  103cd6:	66 90                	xchg   %ax,%ax
  103cd8:	56                   	push   %esi
  103cd9:	6a 01                	push   $0x1
  103cdb:	6a 05                	push   $0x5
  103cdd:	68 62 89 2d 00       	push   $0x2d8962
  103ce2:	e8 29 f4 ff ff       	call   103110 <common_modify_bitb>
  103ce7:	83 c4 10             	add    $0x10,%esp
  103cea:	e9 80 fe ff ff       	jmp    103b6f <ppu_draw_sprite_scanline+0x83>
  103cef:	50                   	push   %eax
  103cf0:	6a 01                	push   $0x1
  103cf2:	6a 06                	push   $0x6
  103cf4:	68 62 89 2d 00       	push   $0x2d8962
  103cf9:	e8 12 f4 ff ff       	call   103110 <common_modify_bitb>
  103cfe:	c7 05 e0 c7 2b 00 01 	movl   $0x1,0x2bc7e0
  103d05:	00 00 00 
  103d08:	83 c4 10             	add    $0x10,%esp
  103d0b:	eb 8f                	jmp    103c9c <ppu_draw_sprite_scanline+0x1b0>
  103d0d:	8d 65 f4             	lea    -0xc(%ebp),%esp
  103d10:	5b                   	pop    %ebx
  103d11:	5e                   	pop    %esi
  103d12:	5f                   	pop    %edi
  103d13:	5d                   	pop    %ebp
  103d14:	c3                   	ret    
  103d15:	8d 76 00             	lea    0x0(%esi),%esi

00103d18 <ppu_cycle>:
  103d18:	55                   	push   %ebp
  103d19:	89 e5                	mov    %esp,%ebp
  103d1b:	83 ec 08             	sub    $0x8,%esp
  103d1e:	a1 78 89 2d 00       	mov    0x2d8978,%eax
  103d23:	85 c0                	test   %eax,%eax
  103d25:	74 69                	je     103d90 <ppu_cycle+0x78>
  103d27:	83 ec 0c             	sub    $0xc,%esp
  103d2a:	68 00 01 00 00       	push   $0x100
  103d2f:	e8 38 ee ff ff       	call   102b6c <cpu_run>
  103d34:	a1 88 89 2d 00       	mov    0x2d8988,%eax
  103d39:	40                   	inc    %eax
  103d3a:	a3 88 89 2d 00       	mov    %eax,0x2d8988
  103d3f:	83 c4 10             	add    $0x10,%esp
  103d42:	3d ef 00 00 00       	cmp    $0xef,%eax
  103d47:	0f 8e 8b 00 00 00    	jle    103dd8 <ppu_cycle+0xc0>
  103d4d:	83 ec 0c             	sub    $0xc,%esp
  103d50:	6a 45                	push   $0x45
  103d52:	e8 15 ee ff ff       	call   102b6c <cpu_run>
  103d57:	83 c4 10             	add    $0x10,%esp
  103d5a:	81 3d 88 89 2d 00 ef 	cmpl   $0xef,0x2d8988
  103d61:	00 00 00 
  103d64:	7e 4e                	jle    103db4 <ppu_cycle+0x9c>
  103d66:	83 ec 0c             	sub    $0xc,%esp
  103d69:	6a 10                	push   $0x10
  103d6b:	e8 fc ed ff ff       	call   102b6c <cpu_run>
  103d70:	a1 88 89 2d 00       	mov    0x2d8988,%eax
  103d75:	83 c4 10             	add    $0x10,%esp
  103d78:	3d f1 00 00 00       	cmp    $0xf1,%eax
  103d7d:	0f 84 91 00 00 00    	je     103e14 <ppu_cycle+0xfc>
  103d83:	3d 06 01 00 00       	cmp    $0x106,%eax
  103d88:	0f 84 b2 00 00 00    	je     103e40 <ppu_cycle+0x128>
  103d8e:	c9                   	leave  
  103d8f:	c3                   	ret    
  103d90:	e8 cb ed ff ff       	call   102b60 <cpu_clock>
  103d95:	b9 da 73 00 00       	mov    $0x73da,%ecx
  103d9a:	39 c1                	cmp    %eax,%ecx
  103d9c:	b8 00 00 00 00       	mov    $0x0,%eax
  103da1:	19 d0                	sbb    %edx,%eax
  103da3:	73 82                	jae    103d27 <ppu_cycle+0xf>
  103da5:	c7 05 78 89 2d 00 01 	movl   $0x1,0x2d8978
  103dac:	00 00 00 
  103daf:	e9 73 ff ff ff       	jmp    103d27 <ppu_cycle+0xf>
  103db4:	51                   	push   %ecx
  103db5:	6a 04                	push   $0x4
  103db7:	0f b6 05 61 89 2d 00 	movzbl 0x2d8961,%eax
  103dbe:	31 d2                	xor    %edx,%edx
  103dc0:	52                   	push   %edx
  103dc1:	50                   	push   %eax
  103dc2:	e8 ed f2 ff ff       	call   1030b4 <common_bit_set>
  103dc7:	83 c4 10             	add    $0x10,%esp
  103dca:	85 c0                	test   %eax,%eax
  103dcc:	74 98                	je     103d66 <ppu_cycle+0x4e>
  103dce:	e8 19 fd ff ff       	call   103aec <ppu_draw_sprite_scanline>
  103dd3:	eb 91                	jmp    103d66 <ppu_cycle+0x4e>
  103dd5:	8d 76 00             	lea    0x0(%esi),%esi
  103dd8:	50                   	push   %eax
  103dd9:	6a 03                	push   $0x3
  103ddb:	0f b6 05 61 89 2d 00 	movzbl 0x2d8961,%eax
  103de2:	31 d2                	xor    %edx,%edx
  103de4:	52                   	push   %edx
  103de5:	50                   	push   %eax
  103de6:	e8 c9 f2 ff ff       	call   1030b4 <common_bit_set>
  103deb:	83 c4 10             	add    $0x10,%esp
  103dee:	85 c0                	test   %eax,%eax
  103df0:	0f 84 57 ff ff ff    	je     103d4d <ppu_cycle+0x35>
  103df6:	83 ec 0c             	sub    $0xc,%esp
  103df9:	6a 00                	push   $0x0
  103dfb:	e8 8c fa ff ff       	call   10388c <ppu_draw_background_scanline>
  103e00:	c7 04 24 01 00 00 00 	movl   $0x1,(%esp)
  103e07:	e8 80 fa ff ff       	call   10388c <ppu_draw_background_scanline>
  103e0c:	83 c4 10             	add    $0x10,%esp
  103e0f:	e9 39 ff ff ff       	jmp    103d4d <ppu_cycle+0x35>
  103e14:	52                   	push   %edx
  103e15:	6a 01                	push   $0x1
  103e17:	6a 07                	push   $0x7
  103e19:	68 62 89 2d 00       	push   $0x2d8962
  103e1e:	e8 ed f2 ff ff       	call   103110 <common_modify_bitb>
  103e23:	83 c4 0c             	add    $0xc,%esp
  103e26:	6a 00                	push   $0x0
  103e28:	6a 06                	push   $0x6
  103e2a:	68 62 89 2d 00       	push   $0x2d8962
  103e2f:	e8 dc f2 ff ff       	call   103110 <common_modify_bitb>
  103e34:	83 c4 10             	add    $0x10,%esp
  103e37:	c9                   	leave  
  103e38:	e9 9b ec ff ff       	jmp    102ad8 <cpu_interrupt>
  103e3d:	8d 76 00             	lea    0x0(%esi),%esi
  103e40:	c7 05 88 89 2d 00 ff 	movl   $0xffffffff,0x2d8988
  103e47:	ff ff ff 
  103e4a:	c7 05 e0 c7 2b 00 00 	movl   $0x0,0x2bc7e0
  103e51:	00 00 00 
  103e54:	50                   	push   %eax
  103e55:	6a 00                	push   $0x0
  103e57:	6a 07                	push   $0x7
  103e59:	68 62 89 2d 00       	push   $0x2d8962
  103e5e:	e8 ad f2 ff ff       	call   103110 <common_modify_bitb>
  103e63:	83 c4 10             	add    $0x10,%esp
  103e66:	c9                   	leave  
  103e67:	e9 e0 ef ff ff       	jmp    102e4c <fce_update_screen>

00103e6c <ppu_run>:
  103e6c:	55                   	push   %ebp
  103e6d:	89 e5                	mov    %esp,%ebp
  103e6f:	53                   	push   %ebx
  103e70:	52                   	push   %edx
  103e71:	8b 45 08             	mov    0x8(%ebp),%eax
  103e74:	85 c0                	test   %eax,%eax
  103e76:	7e 0f                	jle    103e87 <ppu_run+0x1b>
  103e78:	8d 58 ff             	lea    -0x1(%eax),%ebx
  103e7b:	90                   	nop
  103e7c:	e8 97 fe ff ff       	call   103d18 <ppu_cycle>
  103e81:	4b                   	dec    %ebx
  103e82:	83 fb ff             	cmp    $0xffffffff,%ebx
  103e85:	75 f5                	jne    103e7c <ppu_run+0x10>
  103e87:	58                   	pop    %eax
  103e88:	5b                   	pop    %ebx
  103e89:	5d                   	pop    %ebp
  103e8a:	c3                   	ret    
  103e8b:	90                   	nop

00103e8c <ppu_copy>:
  103e8c:	55                   	push   %ebp
  103e8d:	89 e5                	mov    %esp,%ebp
  103e8f:	0f b7 45 08          	movzwl 0x8(%ebp),%eax
  103e93:	05 00 c8 2b 00       	add    $0x2bc800,%eax
  103e98:	89 45 08             	mov    %eax,0x8(%ebp)
  103e9b:	5d                   	pop    %ebp
  103e9c:	e9 77 0b 00 00       	jmp    104a18 <memcpy>
  103ea1:	8d 76 00             	lea    0x0(%esi),%esi

00103ea4 <ppu_io_read>:
  103ea4:	55                   	push   %ebp
  103ea5:	89 e5                	mov    %esp,%ebp
  103ea7:	53                   	push   %ebx
  103ea8:	53                   	push   %ebx
  103ea9:	66 8b 15 6a 89 2d 00 	mov    0x2d896a,%dx
  103eb0:	81 e2 ff 3f 00 00    	and    $0x3fff,%edx
  103eb6:	66 89 15 6a 89 2d 00 	mov    %dx,0x2d896a
  103ebd:	8b 45 08             	mov    0x8(%ebp),%eax
  103ec0:	83 e0 07             	and    $0x7,%eax
  103ec3:	66 83 f8 04          	cmp    $0x4,%ax
  103ec7:	74 1b                	je     103ee4 <ppu_io_read+0x40>
  103ec9:	66 83 f8 07          	cmp    $0x7,%ax
  103ecd:	0f 84 85 00 00 00    	je     103f58 <ppu_io_read+0xb4>
  103ed3:	66 83 f8 02          	cmp    $0x2,%ax
  103ed7:	74 1f                	je     103ef8 <ppu_io_read+0x54>
  103ed9:	b3 ff                	mov    $0xff,%bl
  103edb:	88 d8                	mov    %bl,%al
  103edd:	8b 5d fc             	mov    -0x4(%ebp),%ebx
  103ee0:	c9                   	leave  
  103ee1:	c3                   	ret    
  103ee2:	66 90                	xchg   %ax,%ax
  103ee4:	0f b6 05 63 89 2d 00 	movzbl 0x2d8963,%eax
  103eeb:	8a 98 00 08 2c 00    	mov    0x2c0800(%eax),%bl
  103ef1:	88 d8                	mov    %bl,%al
  103ef3:	8b 5d fc             	mov    -0x4(%ebp),%ebx
  103ef6:	c9                   	leave  
  103ef7:	c3                   	ret    
  103ef8:	8a 1d 62 89 2d 00    	mov    0x2d8962,%bl
  103efe:	51                   	push   %ecx
  103eff:	6a 00                	push   $0x0
  103f01:	6a 07                	push   $0x7
  103f03:	68 62 89 2d 00       	push   $0x2d8962
  103f08:	e8 03 f2 ff ff       	call   103110 <common_modify_bitb>
  103f0d:	83 c4 0c             	add    $0xc,%esp
  103f10:	6a 00                	push   $0x0
  103f12:	6a 06                	push   $0x6
  103f14:	68 62 89 2d 00       	push   $0x2d8962
  103f19:	e8 f2 f1 ff ff       	call   103110 <common_modify_bitb>
  103f1e:	c7 05 70 89 2d 00 00 	movl   $0x0,0x2d8970
  103f25:	00 00 00 
  103f28:	66 c7 05 66 89 2d 00 	movw   $0x0,0x2d8966
  103f2f:	00 00 
  103f31:	c7 05 74 89 2d 00 00 	movl   $0x0,0x2d8974
  103f38:	00 00 00 
  103f3b:	c6 05 00 09 2c 00 00 	movb   $0x0,0x2c0900
  103f42:	c7 05 04 09 2c 00 01 	movl   $0x1,0x2c0904
  103f49:	00 00 00 
  103f4c:	83 c4 10             	add    $0x10,%esp
  103f4f:	88 d8                	mov    %bl,%al
  103f51:	8b 5d fc             	mov    -0x4(%ebp),%ebx
  103f54:	c9                   	leave  
  103f55:	c3                   	ret    
  103f56:	66 90                	xchg   %ax,%ax
  103f58:	0f b7 c2             	movzwl %dx,%eax
  103f5b:	66 81 fa ff 3e       	cmp    $0x3eff,%dx
  103f60:	77 22                	ja     103f84 <ppu_io_read+0xe0>
  103f62:	8a 98 00 c8 2b 00    	mov    0x2bc800(%eax),%bl
  103f68:	8b 15 04 09 2c 00    	mov    0x2c0904,%edx
  103f6e:	85 d2                	test   %edx,%edx
  103f70:	74 1e                	je     103f90 <ppu_io_read+0xec>
  103f72:	c7 05 04 09 2c 00 00 	movl   $0x0,0x2c0904
  103f79:	00 00 00 
  103f7c:	88 d8                	mov    %bl,%al
  103f7e:	8b 5d fc             	mov    -0x4(%ebp),%ebx
  103f81:	c9                   	leave  
  103f82:	c3                   	ret    
  103f83:	90                   	nop
  103f84:	e8 f3 f4 ff ff       	call   10347c <ppu_get_real_ram_address.part.0>
  103f89:	0f b7 c0             	movzwl %ax,%eax
  103f8c:	eb d4                	jmp    103f62 <ppu_io_read+0xbe>
  103f8e:	66 90                	xchg   %ax,%ax
  103f90:	50                   	push   %eax
  103f91:	6a 02                	push   $0x2
  103f93:	0f b6 05 60 89 2d 00 	movzbl 0x2d8960,%eax
  103f9a:	31 d2                	xor    %edx,%edx
  103f9c:	52                   	push   %edx
  103f9d:	50                   	push   %eax
  103f9e:	e8 11 f1 ff ff       	call   1030b4 <common_bit_set>
  103fa3:	83 c4 10             	add    $0x10,%esp
  103fa6:	85 c0                	test   %eax,%eax
  103fa8:	75 12                	jne    103fbc <ppu_io_read+0x118>
  103faa:	b8 01 00 00 00       	mov    $0x1,%eax
  103faf:	66 01 05 6a 89 2d 00 	add    %ax,0x2d896a
  103fb6:	e9 20 ff ff ff       	jmp    103edb <ppu_io_read+0x37>
  103fbb:	90                   	nop
  103fbc:	b8 20 00 00 00       	mov    $0x20,%eax
  103fc1:	eb ec                	jmp    103faf <ppu_io_read+0x10b>
  103fc3:	90                   	nop

00103fc4 <ppu_io_write>:
  103fc4:	55                   	push   %ebp
  103fc5:	89 e5                	mov    %esp,%ebp
  103fc7:	56                   	push   %esi
  103fc8:	53                   	push   %ebx
  103fc9:	83 ec 10             	sub    $0x10,%esp
  103fcc:	8b 55 0c             	mov    0xc(%ebp),%edx
  103fcf:	66 8b 1d 6a 89 2d 00 	mov    0x2d896a,%bx
  103fd6:	89 d9                	mov    %ebx,%ecx
  103fd8:	81 e1 ff 3f 00 00    	and    $0x3fff,%ecx
  103fde:	66 89 0d 6a 89 2d 00 	mov    %cx,0x2d896a
  103fe5:	8b 45 08             	mov    0x8(%ebp),%eax
  103fe8:	83 e0 07             	and    $0x7,%eax
  103feb:	ff 24 85 00 53 10 00 	jmp    *0x105300(,%eax,4)
  103ff2:	66 90                	xchg   %ax,%ax
  103ff4:	a1 70 89 2d 00       	mov    0x2d8970,%eax
  103ff9:	85 c0                	test   %eax,%eax
  103ffb:	0f 84 df 00 00 00    	je     1040e0 <ppu_io_write+0x11c>
  104001:	88 15 69 89 2d 00    	mov    %dl,0x2d8969
  104007:	83 f0 01             	xor    $0x1,%eax
  10400a:	a3 70 89 2d 00       	mov    %eax,0x2d8970
  10400f:	83 c4 10             	add    $0x10,%esp
  104012:	5b                   	pop    %ebx
  104013:	5e                   	pop    %esi
  104014:	5d                   	pop    %ebp
  104015:	c3                   	ret    
  104016:	66 90                	xchg   %ax,%ax
  104018:	89 ce                	mov    %ecx,%esi
  10401a:	33 35 80 89 2d 00    	xor    0x2d8980,%esi
  104020:	0f b7 c6             	movzwl %si,%eax
  104023:	66 81 fe ff 3e       	cmp    $0x3eff,%si
  104028:	0f 87 ea 00 00 00    	ja     104118 <ppu_io_write+0x154>
  10402e:	88 90 00 c8 2b 00    	mov    %dl,0x2bc800(%eax)
  104034:	0f b7 c1             	movzwl %cx,%eax
  104037:	80 e7 20             	and    $0x20,%bh
  10403a:	74 0b                	je     104047 <ppu_io_write+0x83>
  10403c:	66 81 f9 ff 3e       	cmp    $0x3eff,%cx
  104041:	0f 87 bd 00 00 00    	ja     104104 <ppu_io_write+0x140>
  104047:	88 90 00 c8 2b 00    	mov    %dl,0x2bc800(%eax)
  10404d:	83 c4 10             	add    $0x10,%esp
  104050:	5b                   	pop    %ebx
  104051:	5e                   	pop    %esi
  104052:	5d                   	pop    %ebp
  104053:	c3                   	ret    
  104054:	8b 1d 78 89 2d 00    	mov    0x2d8978,%ebx
  10405a:	85 db                	test   %ebx,%ebx
  10405c:	74 b1                	je     10400f <ppu_io_write+0x4b>
  10405e:	88 15 60 89 2d 00    	mov    %dl,0x2d8960
  104064:	eb a9                	jmp    10400f <ppu_io_write+0x4b>
  104066:	66 90                	xchg   %ax,%ax
  104068:	8b 0d 78 89 2d 00    	mov    0x2d8978,%ecx
  10406e:	85 c9                	test   %ecx,%ecx
  104070:	74 9d                	je     10400f <ppu_io_write+0x4b>
  104072:	88 15 61 89 2d 00    	mov    %dl,0x2d8961
  104078:	eb 95                	jmp    10400f <ppu_io_write+0x4b>
  10407a:	66 90                	xchg   %ax,%ax
  10407c:	88 15 63 89 2d 00    	mov    %dl,0x2d8963
  104082:	83 c4 10             	add    $0x10,%esp
  104085:	5b                   	pop    %ebx
  104086:	5e                   	pop    %esi
  104087:	5d                   	pop    %ebp
  104088:	c3                   	ret    
  104089:	8d 76 00             	lea    0x0(%esi),%esi
  10408c:	0f b6 05 63 89 2d 00 	movzbl 0x2d8963,%eax
  104093:	8d 48 01             	lea    0x1(%eax),%ecx
  104096:	88 0d 63 89 2d 00    	mov    %cl,0x2d8963
  10409c:	88 90 00 08 2c 00    	mov    %dl,0x2c0800(%eax)
  1040a2:	83 c4 10             	add    $0x10,%esp
  1040a5:	5b                   	pop    %ebx
  1040a6:	5e                   	pop    %esi
  1040a7:	5d                   	pop    %ebp
  1040a8:	c3                   	ret    
  1040a9:	8d 76 00             	lea    0x0(%esi),%esi
  1040ac:	a1 78 89 2d 00       	mov    0x2d8978,%eax
  1040b1:	85 c0                	test   %eax,%eax
  1040b3:	0f 84 56 ff ff ff    	je     10400f <ppu_io_write+0x4b>
  1040b9:	a1 74 89 2d 00       	mov    0x2d8974,%eax
  1040be:	85 c0                	test   %eax,%eax
  1040c0:	75 2a                	jne    1040ec <ppu_io_write+0x128>
  1040c2:	88 15 00 09 2c 00    	mov    %dl,0x2c0900
  1040c8:	83 f0 01             	xor    $0x1,%eax
  1040cb:	a3 74 89 2d 00       	mov    %eax,0x2d8974
  1040d0:	c7 05 04 09 2c 00 01 	movl   $0x1,0x2c0904
  1040d7:	00 00 00 
  1040da:	e9 30 ff ff ff       	jmp    10400f <ppu_io_write+0x4b>
  1040df:	90                   	nop
  1040e0:	88 15 68 89 2d 00    	mov    %dl,0x2d8968
  1040e6:	e9 1c ff ff ff       	jmp    104007 <ppu_io_write+0x43>
  1040eb:	90                   	nop
  1040ec:	0f b6 0d 00 09 2c 00 	movzbl 0x2c0900,%ecx
  1040f3:	c1 e1 08             	shl    $0x8,%ecx
  1040f6:	0f b6 d2             	movzbl %dl,%edx
  1040f9:	01 ca                	add    %ecx,%edx
  1040fb:	66 89 15 6a 89 2d 00 	mov    %dx,0x2d896a
  104102:	eb c4                	jmp    1040c8 <ppu_io_write+0x104>
  104104:	89 55 f4             	mov    %edx,-0xc(%ebp)
  104107:	e8 70 f3 ff ff       	call   10347c <ppu_get_real_ram_address.part.0>
  10410c:	0f b7 c0             	movzwl %ax,%eax
  10410f:	8b 55 f4             	mov    -0xc(%ebp),%edx
  104112:	e9 30 ff ff ff       	jmp    104047 <ppu_io_write+0x83>
  104117:	90                   	nop
  104118:	66 81 fe ff 3f       	cmp    $0x3fff,%si
  10411d:	77 15                	ja     104134 <ppu_io_write+0x170>
  10411f:	89 55 f4             	mov    %edx,-0xc(%ebp)
  104122:	e8 55 f3 ff ff       	call   10347c <ppu_get_real_ram_address.part.0>
  104127:	0f b7 c0             	movzwl %ax,%eax
  10412a:	8b 55 f4             	mov    -0xc(%ebp),%edx
  10412d:	e9 fc fe ff ff       	jmp    10402e <ppu_io_write+0x6a>
  104132:	66 90                	xchg   %ax,%ax
  104134:	b8 ff ff 00 00       	mov    $0xffff,%eax
  104139:	e9 f0 fe ff ff       	jmp    10402e <ppu_io_write+0x6a>
  10413e:	66 90                	xchg   %ax,%ax

00104140 <ppu_init>:
  104140:	55                   	push   %ebp
  104141:	89 e5                	mov    %esp,%ebp
  104143:	57                   	push   %edi
  104144:	56                   	push   %esi
  104145:	53                   	push   %ebx
  104146:	83 ec 0c             	sub    $0xc,%esp
  104149:	c7 05 60 89 2d 00 00 	movl   $0xa00000,0x2d8960
  104150:	00 a0 00 
  104153:	c7 05 68 89 2d 00 00 	movl   $0x0,0x2d8968
  10415a:	00 00 00 
  10415d:	66 c7 05 6c 89 2d 00 	movw   $0x0,0x2d896c
  104164:	00 00 
  104166:	c7 05 04 09 2c 00 01 	movl   $0x1,0x2c0904
  10416d:	00 00 00 
  104170:	c7 45 e8 00 00 00 00 	movl   $0x0,-0x18(%ebp)
  104177:	31 ff                	xor    %edi,%edi
  104179:	8b 45 e8             	mov    -0x18(%ebp),%eax
  10417c:	89 45 ec             	mov    %eax,-0x14(%ebp)
  10417f:	31 f6                	xor    %esi,%esi
  104181:	8d 76 00             	lea    0x0(%esi),%esi
  104184:	8b 5d ec             	mov    -0x14(%ebp),%ebx
  104187:	31 d2                	xor    %edx,%edx
  104189:	89 7d f0             	mov    %edi,-0x10(%ebp)
  10418c:	b9 07 00 00 00       	mov    $0x7,%ecx
  104191:	29 d1                	sub    %edx,%ecx
  104193:	8b 45 f0             	mov    -0x10(%ebp),%eax
  104196:	d3 f8                	sar    %cl,%eax
  104198:	01 c0                	add    %eax,%eax
  10419a:	83 e0 02             	and    $0x2,%eax
  10419d:	89 f7                	mov    %esi,%edi
  10419f:	d3 ff                	sar    %cl,%edi
  1041a1:	89 f9                	mov    %edi,%ecx
  1041a3:	83 e1 01             	and    $0x1,%ecx
  1041a6:	09 c8                	or     %ecx,%eax
  1041a8:	88 83 20 c8 22 00    	mov    %al,0x22c820(%ebx)
  1041ae:	8b 45 f0             	mov    -0x10(%ebp),%eax
  1041b1:	88 d1                	mov    %dl,%cl
  1041b3:	d3 f8                	sar    %cl,%eax
  1041b5:	01 c0                	add    %eax,%eax
  1041b7:	83 e0 02             	and    $0x2,%eax
  1041ba:	89 f7                	mov    %esi,%edi
  1041bc:	d3 ff                	sar    %cl,%edi
  1041be:	89 f9                	mov    %edi,%ecx
  1041c0:	83 e1 01             	and    $0x1,%ecx
  1041c3:	09 c8                	or     %ecx,%eax
  1041c5:	88 83 20 c8 1a 00    	mov    %al,0x1ac820(%ebx)
  1041cb:	42                   	inc    %edx
  1041cc:	43                   	inc    %ebx
  1041cd:	83 fa 08             	cmp    $0x8,%edx
  1041d0:	75 ba                	jne    10418c <ppu_init+0x4c>
  1041d2:	8b 7d f0             	mov    -0x10(%ebp),%edi
  1041d5:	46                   	inc    %esi
  1041d6:	81 45 ec 00 08 00 00 	addl   $0x800,-0x14(%ebp)
  1041dd:	81 fe 00 01 00 00    	cmp    $0x100,%esi
  1041e3:	75 9f                	jne    104184 <ppu_init+0x44>
  1041e5:	47                   	inc    %edi
  1041e6:	83 45 e8 08          	addl   $0x8,-0x18(%ebp)
  1041ea:	81 ff 00 01 00 00    	cmp    $0x100,%edi
  1041f0:	75 87                	jne    104179 <ppu_init+0x39>
  1041f2:	83 c4 0c             	add    $0xc,%esp
  1041f5:	5b                   	pop    %ebx
  1041f6:	5e                   	pop    %esi
  1041f7:	5f                   	pop    %edi
  1041f8:	5d                   	pop    %ebp
  1041f9:	c3                   	ret    
  1041fa:	66 90                	xchg   %ax,%ax

001041fc <ppu_sprram_write>:
  1041fc:	55                   	push   %ebp
  1041fd:	89 e5                	mov    %esp,%ebp
  1041ff:	0f b6 05 63 89 2d 00 	movzbl 0x2d8963,%eax
  104206:	8d 50 01             	lea    0x1(%eax),%edx
  104209:	88 15 63 89 2d 00    	mov    %dl,0x2d8963
  10420f:	8b 55 08             	mov    0x8(%ebp),%edx
  104212:	88 90 00 08 2c 00    	mov    %dl,0x2c0800(%eax)
  104218:	5d                   	pop    %ebp
  104219:	c3                   	ret    
  10421a:	66 90                	xchg   %ax,%ax

0010421c <ppu_set_background_color>:
  10421c:	c3                   	ret    
  10421d:	8d 76 00             	lea    0x0(%esi),%esi

00104220 <ppu_set_mirroring>:
  104220:	55                   	push   %ebp
  104221:	89 e5                	mov    %esp,%ebp
  104223:	0f b6 4d 08          	movzbl 0x8(%ebp),%ecx
  104227:	89 0d 7c 89 2d 00    	mov    %ecx,0x2d897c
  10422d:	b8 00 04 00 00       	mov    $0x400,%eax
  104232:	d3 e0                	shl    %cl,%eax
  104234:	a3 80 89 2d 00       	mov    %eax,0x2d8980
  104239:	5d                   	pop    %ebp
  10423a:	c3                   	ret    
  10423b:	90                   	nop

0010423c <cpu_address_implied>:
  10423c:	c3                   	ret    
  10423d:	8d 76 00             	lea    0x0(%esi),%esi

00104240 <cpu_address_immediate>:
  104240:	55                   	push   %ebp
  104241:	89 e5                	mov    %esp,%ebp
  104243:	83 ec 14             	sub    $0x14,%esp
  104246:	0f b7 05 28 09 2c 00 	movzwl 0x2c0928,%eax
  10424d:	50                   	push   %eax
  10424e:	e8 dd ef ff ff       	call   103230 <memory_readb>
  104253:	0f b6 c0             	movzbl %al,%eax
  104256:	a3 20 09 2c 00       	mov    %eax,0x2c0920
  10425b:	66 ff 05 28 09 2c 00 	incw   0x2c0928
  104262:	83 c4 10             	add    $0x10,%esp
  104265:	c9                   	leave  
  104266:	c3                   	ret    
  104267:	90                   	nop

00104268 <cpu_address_zero_page>:
  104268:	55                   	push   %ebp
  104269:	89 e5                	mov    %esp,%ebp
  10426b:	83 ec 14             	sub    $0x14,%esp
  10426e:	0f b7 05 28 09 2c 00 	movzwl 0x2c0928,%eax
  104275:	50                   	push   %eax
  104276:	e8 b5 ef ff ff       	call   103230 <memory_readb>
  10427b:	0f b6 c0             	movzbl %al,%eax
  10427e:	a3 24 09 2c 00       	mov    %eax,0x2c0924
  104283:	0f b6 80 40 09 2c 00 	movzbl 0x2c0940(%eax),%eax
  10428a:	a3 20 09 2c 00       	mov    %eax,0x2c0920
  10428f:	66 ff 05 28 09 2c 00 	incw   0x2c0928
  104296:	83 c4 10             	add    $0x10,%esp
  104299:	c9                   	leave  
  10429a:	c3                   	ret    
  10429b:	90                   	nop

0010429c <cpu_address_zero_page_x>:
  10429c:	55                   	push   %ebp
  10429d:	89 e5                	mov    %esp,%ebp
  10429f:	83 ec 14             	sub    $0x14,%esp
  1042a2:	0f b7 05 28 09 2c 00 	movzwl 0x2c0928,%eax
  1042a9:	50                   	push   %eax
  1042aa:	e8 81 ef ff ff       	call   103230 <memory_readb>
  1042af:	02 05 2c 09 2c 00    	add    0x2c092c,%al
  1042b5:	0f b6 c0             	movzbl %al,%eax
  1042b8:	a3 24 09 2c 00       	mov    %eax,0x2c0924
  1042bd:	0f b6 80 40 09 2c 00 	movzbl 0x2c0940(%eax),%eax
  1042c4:	a3 20 09 2c 00       	mov    %eax,0x2c0920
  1042c9:	66 ff 05 28 09 2c 00 	incw   0x2c0928
  1042d0:	83 c4 10             	add    $0x10,%esp
  1042d3:	c9                   	leave  
  1042d4:	c3                   	ret    
  1042d5:	8d 76 00             	lea    0x0(%esi),%esi

001042d8 <cpu_address_zero_page_y>:
  1042d8:	55                   	push   %ebp
  1042d9:	89 e5                	mov    %esp,%ebp
  1042db:	83 ec 14             	sub    $0x14,%esp
  1042de:	0f b7 05 28 09 2c 00 	movzwl 0x2c0928,%eax
  1042e5:	50                   	push   %eax
  1042e6:	e8 45 ef ff ff       	call   103230 <memory_readb>
  1042eb:	02 05 2d 09 2c 00    	add    0x2c092d,%al
  1042f1:	0f b6 c0             	movzbl %al,%eax
  1042f4:	a3 24 09 2c 00       	mov    %eax,0x2c0924
  1042f9:	0f b6 80 40 09 2c 00 	movzbl 0x2c0940(%eax),%eax
  104300:	a3 20 09 2c 00       	mov    %eax,0x2c0920
  104305:	66 ff 05 28 09 2c 00 	incw   0x2c0928
  10430c:	83 c4 10             	add    $0x10,%esp
  10430f:	c9                   	leave  
  104310:	c3                   	ret    
  104311:	8d 76 00             	lea    0x0(%esi),%esi

00104314 <cpu_address_absolute>:
  104314:	55                   	push   %ebp
  104315:	89 e5                	mov    %esp,%ebp
  104317:	83 ec 14             	sub    $0x14,%esp
  10431a:	0f b7 05 28 09 2c 00 	movzwl 0x2c0928,%eax
  104321:	50                   	push   %eax
  104322:	e8 41 f0 ff ff       	call   103368 <memory_readw>
  104327:	0f b7 c0             	movzwl %ax,%eax
  10432a:	a3 24 09 2c 00       	mov    %eax,0x2c0924
  10432f:	89 04 24             	mov    %eax,(%esp)
  104332:	e8 f9 ee ff ff       	call   103230 <memory_readb>
  104337:	0f b6 c0             	movzbl %al,%eax
  10433a:	a3 20 09 2c 00       	mov    %eax,0x2c0920
  10433f:	66 83 05 28 09 2c 00 	addw   $0x2,0x2c0928
  104346:	02 
  104347:	83 c4 10             	add    $0x10,%esp
  10434a:	c9                   	leave  
  10434b:	c3                   	ret    

0010434c <cpu_address_absolute_x>:
  10434c:	55                   	push   %ebp
  10434d:	89 e5                	mov    %esp,%ebp
  10434f:	83 ec 14             	sub    $0x14,%esp
  104352:	0f b7 05 28 09 2c 00 	movzwl 0x2c0928,%eax
  104359:	50                   	push   %eax
  10435a:	e8 09 f0 ff ff       	call   103368 <memory_readw>
  10435f:	0f b6 15 2c 09 2c 00 	movzbl 0x2c092c,%edx
  104366:	0f b7 c0             	movzwl %ax,%eax
  104369:	01 d0                	add    %edx,%eax
  10436b:	a3 24 09 2c 00       	mov    %eax,0x2c0924
  104370:	0f b7 c0             	movzwl %ax,%eax
  104373:	89 04 24             	mov    %eax,(%esp)
  104376:	e8 b5 ee ff ff       	call   103230 <memory_readb>
  10437b:	0f b6 c0             	movzbl %al,%eax
  10437e:	a3 20 09 2c 00       	mov    %eax,0x2c0920
  104383:	66 a1 28 09 2c 00    	mov    0x2c0928,%ax
  104389:	83 c0 02             	add    $0x2,%eax
  10438c:	66 a3 28 09 2c 00    	mov    %ax,0x2c0928
  104392:	8b 15 24 09 2c 00    	mov    0x2c0924,%edx
  104398:	c1 fa 08             	sar    $0x8,%edx
  10439b:	0f b6 c4             	movzbl %ah,%eax
  10439e:	83 c4 10             	add    $0x10,%esp
  1043a1:	39 c2                	cmp    %eax,%edx
  1043a3:	74 06                	je     1043ab <cpu_address_absolute_x+0x5f>
  1043a5:	ff 05 40 89 2c 00    	incl   0x2c8940
  1043ab:	c9                   	leave  
  1043ac:	c3                   	ret    
  1043ad:	8d 76 00             	lea    0x0(%esi),%esi

001043b0 <cpu_address_absolute_y>:
  1043b0:	55                   	push   %ebp
  1043b1:	89 e5                	mov    %esp,%ebp
  1043b3:	83 ec 14             	sub    $0x14,%esp
  1043b6:	0f b7 05 28 09 2c 00 	movzwl 0x2c0928,%eax
  1043bd:	50                   	push   %eax
  1043be:	e8 a5 ef ff ff       	call   103368 <memory_readw>
  1043c3:	0f b6 15 2d 09 2c 00 	movzbl 0x2c092d,%edx
  1043ca:	01 d0                	add    %edx,%eax
  1043cc:	0f b7 c0             	movzwl %ax,%eax
  1043cf:	a3 24 09 2c 00       	mov    %eax,0x2c0924
  1043d4:	89 04 24             	mov    %eax,(%esp)
  1043d7:	e8 54 ee ff ff       	call   103230 <memory_readb>
  1043dc:	0f b6 c0             	movzbl %al,%eax
  1043df:	a3 20 09 2c 00       	mov    %eax,0x2c0920
  1043e4:	66 a1 28 09 2c 00    	mov    0x2c0928,%ax
  1043ea:	83 c0 02             	add    $0x2,%eax
  1043ed:	66 a3 28 09 2c 00    	mov    %ax,0x2c0928
  1043f3:	8b 15 24 09 2c 00    	mov    0x2c0924,%edx
  1043f9:	c1 fa 08             	sar    $0x8,%edx
  1043fc:	0f b6 c4             	movzbl %ah,%eax
  1043ff:	83 c4 10             	add    $0x10,%esp
  104402:	39 c2                	cmp    %eax,%edx
  104404:	74 06                	je     10440c <cpu_address_absolute_y+0x5c>
  104406:	ff 05 40 89 2c 00    	incl   0x2c8940
  10440c:	c9                   	leave  
  10440d:	c3                   	ret    
  10440e:	66 90                	xchg   %ax,%ax

00104410 <cpu_address_relative>:
  104410:	55                   	push   %ebp
  104411:	89 e5                	mov    %esp,%ebp
  104413:	83 ec 14             	sub    $0x14,%esp
  104416:	0f b7 05 28 09 2c 00 	movzwl 0x2c0928,%eax
  10441d:	50                   	push   %eax
  10441e:	e8 0d ee ff ff       	call   103230 <memory_readb>
  104423:	0f b6 c8             	movzbl %al,%ecx
  104426:	66 8b 15 28 09 2c 00 	mov    0x2c0928,%dx
  10442d:	42                   	inc    %edx
  10442e:	66 89 15 28 09 2c 00 	mov    %dx,0x2c0928
  104435:	83 c4 10             	add    $0x10,%esp
  104438:	84 c0                	test   %al,%al
  10443a:	79 06                	jns    104442 <cpu_address_relative+0x32>
  10443c:	81 e9 00 01 00 00    	sub    $0x100,%ecx
  104442:	0f b7 c2             	movzwl %dx,%eax
  104445:	01 c8                	add    %ecx,%eax
  104447:	a3 24 09 2c 00       	mov    %eax,0x2c0924
  10444c:	c1 f8 08             	sar    $0x8,%eax
  10444f:	0f b6 d6             	movzbl %dh,%edx
  104452:	39 d0                	cmp    %edx,%eax
  104454:	74 06                	je     10445c <cpu_address_relative+0x4c>
  104456:	ff 05 40 89 2c 00    	incl   0x2c8940
  10445c:	c9                   	leave  
  10445d:	c3                   	ret    
  10445e:	66 90                	xchg   %ax,%ax

00104460 <cpu_address_indirect>:
  104460:	55                   	push   %ebp
  104461:	89 e5                	mov    %esp,%ebp
  104463:	56                   	push   %esi
  104464:	53                   	push   %ebx
  104465:	83 ec 0c             	sub    $0xc,%esp
  104468:	0f b7 05 28 09 2c 00 	movzwl 0x2c0928,%eax
  10446f:	50                   	push   %eax
  104470:	e8 f3 ee ff ff       	call   103368 <memory_readw>
  104475:	0f b7 f0             	movzwl %ax,%esi
  104478:	0f b6 d0             	movzbl %al,%edx
  10447b:	83 c4 10             	add    $0x10,%esp
  10447e:	66 81 fa ff 00       	cmp    $0xff,%dx
  104483:	74 23                	je     1044a8 <cpu_address_indirect+0x48>
  104485:	83 ec 0c             	sub    $0xc,%esp
  104488:	56                   	push   %esi
  104489:	e8 da ee ff ff       	call   103368 <memory_readw>
  10448e:	0f b7 c0             	movzwl %ax,%eax
  104491:	a3 24 09 2c 00       	mov    %eax,0x2c0924
  104496:	83 c4 10             	add    $0x10,%esp
  104499:	66 83 05 28 09 2c 00 	addw   $0x2,0x2c0928
  1044a0:	02 
  1044a1:	8d 65 f8             	lea    -0x8(%ebp),%esp
  1044a4:	5b                   	pop    %ebx
  1044a5:	5e                   	pop    %esi
  1044a6:	5d                   	pop    %ebp
  1044a7:	c3                   	ret    
  1044a8:	83 ec 0c             	sub    $0xc,%esp
  1044ab:	25 00 ff 00 00       	and    $0xff00,%eax
  1044b0:	50                   	push   %eax
  1044b1:	e8 7a ed ff ff       	call   103230 <memory_readb>
  1044b6:	0f b6 d8             	movzbl %al,%ebx
  1044b9:	89 34 24             	mov    %esi,(%esp)
  1044bc:	e8 6f ed ff ff       	call   103230 <memory_readb>
  1044c1:	c1 e3 08             	shl    $0x8,%ebx
  1044c4:	0f b6 c0             	movzbl %al,%eax
  1044c7:	01 c3                	add    %eax,%ebx
  1044c9:	89 1d 24 09 2c 00    	mov    %ebx,0x2c0924
  1044cf:	83 c4 10             	add    $0x10,%esp
  1044d2:	66 83 05 28 09 2c 00 	addw   $0x2,0x2c0928
  1044d9:	02 
  1044da:	8d 65 f8             	lea    -0x8(%ebp),%esp
  1044dd:	5b                   	pop    %ebx
  1044de:	5e                   	pop    %esi
  1044df:	5d                   	pop    %ebp
  1044e0:	c3                   	ret    
  1044e1:	8d 76 00             	lea    0x0(%esi),%esi

001044e4 <cpu_address_indirect_x>:
  1044e4:	55                   	push   %ebp
  1044e5:	89 e5                	mov    %esp,%ebp
  1044e7:	56                   	push   %esi
  1044e8:	53                   	push   %ebx
  1044e9:	83 ec 0c             	sub    $0xc,%esp
  1044ec:	0f b7 05 28 09 2c 00 	movzwl 0x2c0928,%eax
  1044f3:	50                   	push   %eax
  1044f4:	e8 37 ed ff ff       	call   103230 <memory_readb>
  1044f9:	0f b6 c8             	movzbl %al,%ecx
  1044fc:	89 cb                	mov    %ecx,%ebx
  1044fe:	0f b6 05 2c 09 2c 00 	movzbl 0x2c092c,%eax
  104505:	8d 44 08 01          	lea    0x1(%eax,%ecx,1),%eax
  104509:	0f b6 c0             	movzbl %al,%eax
  10450c:	89 04 24             	mov    %eax,(%esp)
  10450f:	e8 1c ed ff ff       	call   103230 <memory_readb>
  104514:	89 c6                	mov    %eax,%esi
  104516:	8a 15 2c 09 2c 00    	mov    0x2c092c,%dl
  10451c:	01 da                	add    %ebx,%edx
  10451e:	0f b6 d2             	movzbl %dl,%edx
  104521:	89 14 24             	mov    %edx,(%esp)
  104524:	e8 07 ed ff ff       	call   103230 <memory_readb>
  104529:	89 f1                	mov    %esi,%ecx
  10452b:	0f b6 d9             	movzbl %cl,%ebx
  10452e:	c1 e3 08             	shl    $0x8,%ebx
  104531:	0f b6 c0             	movzbl %al,%eax
  104534:	09 d8                	or     %ebx,%eax
  104536:	a3 24 09 2c 00       	mov    %eax,0x2c0924
  10453b:	89 04 24             	mov    %eax,(%esp)
  10453e:	e8 ed ec ff ff       	call   103230 <memory_readb>
  104543:	0f b6 c0             	movzbl %al,%eax
  104546:	a3 20 09 2c 00       	mov    %eax,0x2c0920
  10454b:	66 ff 05 28 09 2c 00 	incw   0x2c0928
  104552:	83 c4 10             	add    $0x10,%esp
  104555:	8d 65 f8             	lea    -0x8(%ebp),%esp
  104558:	5b                   	pop    %ebx
  104559:	5e                   	pop    %esi
  10455a:	5d                   	pop    %ebp
  10455b:	c3                   	ret    

0010455c <cpu_address_indirect_y>:
  10455c:	55                   	push   %ebp
  10455d:	89 e5                	mov    %esp,%ebp
  10455f:	56                   	push   %esi
  104560:	53                   	push   %ebx
  104561:	83 ec 0c             	sub    $0xc,%esp
  104564:	0f b7 05 28 09 2c 00 	movzwl 0x2c0928,%eax
  10456b:	50                   	push   %eax
  10456c:	e8 bf ec ff ff       	call   103230 <memory_readb>
  104571:	89 c6                	mov    %eax,%esi
  104573:	8d 46 01             	lea    0x1(%esi),%eax
  104576:	0f b6 c0             	movzbl %al,%eax
  104579:	89 04 24             	mov    %eax,(%esp)
  10457c:	e8 af ec ff ff       	call   103230 <memory_readb>
  104581:	0f b6 d8             	movzbl %al,%ebx
  104584:	89 f0                	mov    %esi,%eax
  104586:	0f b6 f0             	movzbl %al,%esi
  104589:	89 34 24             	mov    %esi,(%esp)
  10458c:	e8 9f ec ff ff       	call   103230 <memory_readb>
  104591:	c1 e3 08             	shl    $0x8,%ebx
  104594:	0f b6 c0             	movzbl %al,%eax
  104597:	09 c3                	or     %eax,%ebx
  104599:	0f b6 05 2d 09 2c 00 	movzbl 0x2c092d,%eax
  1045a0:	01 d8                	add    %ebx,%eax
  1045a2:	0f b7 c0             	movzwl %ax,%eax
  1045a5:	a3 24 09 2c 00       	mov    %eax,0x2c0924
  1045aa:	89 04 24             	mov    %eax,(%esp)
  1045ad:	e8 7e ec ff ff       	call   103230 <memory_readb>
  1045b2:	0f b6 c0             	movzbl %al,%eax
  1045b5:	a3 20 09 2c 00       	mov    %eax,0x2c0920
  1045ba:	66 a1 28 09 2c 00    	mov    0x2c0928,%ax
  1045c0:	40                   	inc    %eax
  1045c1:	66 a3 28 09 2c 00    	mov    %ax,0x2c0928
  1045c7:	8b 15 24 09 2c 00    	mov    0x2c0924,%edx
  1045cd:	c1 fa 08             	sar    $0x8,%edx
  1045d0:	0f b6 c4             	movzbl %ah,%eax
  1045d3:	83 c4 10             	add    $0x10,%esp
  1045d6:	39 c2                	cmp    %eax,%edx
  1045d8:	74 06                	je     1045e0 <cpu_address_indirect_y+0x84>
  1045da:	ff 05 40 89 2c 00    	incl   0x2c8940
  1045e0:	8d 65 f8             	lea    -0x8(%ebp),%esp
  1045e3:	5b                   	pop    %ebx
  1045e4:	5e                   	pop    %esi
  1045e5:	5d                   	pop    %ebp
  1045e6:	c3                   	ret    
  1045e7:	90                   	nop

001045e8 <_putc>:
  1045e8:	55                   	push   %ebp
  1045e9:	89 e5                	mov    %esp,%ebp
  1045eb:	8b 45 08             	mov    0x8(%ebp),%eax
  1045ee:	ba f8 03 00 00       	mov    $0x3f8,%edx
  1045f3:	ee                   	out    %al,(%dx)
  1045f4:	5d                   	pop    %ebp
  1045f5:	c3                   	ret    
  1045f6:	66 90                	xchg   %ax,%ax

001045f8 <_halt>:
  1045f8:	55                   	push   %ebp
  1045f9:	89 e5                	mov    %esp,%ebp
  1045fb:	8b 45 08             	mov    0x8(%ebp),%eax
  1045fe:	d6                   	(bad)  
  1045ff:	eb fe                	jmp    1045ff <_halt+0x7>
  104601:	66 90                	xchg   %ax,%ax
  104603:	90                   	nop

00104604 <_trm_init>:
  104604:	55                   	push   %ebp
  104605:	89 e5                	mov    %esp,%ebp
  104607:	83 ec 14             	sub    $0x14,%esp
  10460a:	68 00 00 00 00       	push   $0x0
  10460f:	e8 40 e9 ff ff       	call   102f54 <main>
  104614:	d6                   	(bad)  
  104615:	83 c4 10             	add    $0x10,%esp
  104618:	eb fe                	jmp    104618 <_trm_init+0x14>
  10461a:	66 90                	xchg   %ax,%ax

0010461c <_ioe_init>:
  10461c:	55                   	push   %ebp
  10461d:	89 e5                	mov    %esp,%ebp
  10461f:	83 ec 08             	sub    $0x8,%esp
  104622:	e8 19 02 00 00       	call   104840 <__am_vga_init>
  104627:	e8 34 01 00 00       	call   104760 <__am_timer_init>
  10462c:	31 c0                	xor    %eax,%eax
  10462e:	c9                   	leave  
  10462f:	c3                   	ret    

00104630 <_io_read>:
  104630:	55                   	push   %ebp
  104631:	89 e5                	mov    %esp,%ebp
  104633:	53                   	push   %ebx
  104634:	8b 45 08             	mov    0x8(%ebp),%eax
  104637:	8b 55 0c             	mov    0xc(%ebp),%edx
  10463a:	8b 4d 10             	mov    0x10(%ebp),%ecx
  10463d:	8b 5d 14             	mov    0x14(%ebp),%ebx
  104640:	3d 03 ac 00 00       	cmp    $0xac03,%eax
  104645:	74 15                	je     10465c <_io_read+0x2c>
  104647:	3d 04 ac 00 00       	cmp    $0xac04,%eax
  10464c:	74 2e                	je     10467c <_io_read+0x4c>
  10464e:	3d 02 ac 00 00       	cmp    $0xac02,%eax
  104653:	74 17                	je     10466c <_io_read+0x3c>
  104655:	31 c0                	xor    %eax,%eax
  104657:	5b                   	pop    %ebx
  104658:	5d                   	pop    %ebp
  104659:	c3                   	ret    
  10465a:	66 90                	xchg   %ax,%ax
  10465c:	89 5d 10             	mov    %ebx,0x10(%ebp)
  10465f:	89 4d 0c             	mov    %ecx,0xc(%ebp)
  104662:	89 55 08             	mov    %edx,0x8(%ebp)
  104665:	5b                   	pop    %ebx
  104666:	5d                   	pop    %ebp
  104667:	e9 90 00 00 00       	jmp    1046fc <__am_timer_read>
  10466c:	89 5d 10             	mov    %ebx,0x10(%ebp)
  10466f:	89 4d 0c             	mov    %ecx,0xc(%ebp)
  104672:	89 55 08             	mov    %edx,0x8(%ebp)
  104675:	5b                   	pop    %ebx
  104676:	5d                   	pop    %ebp
  104677:	e9 3c 00 00 00       	jmp    1046b8 <__am_input_read>
  10467c:	89 5d 10             	mov    %ebx,0x10(%ebp)
  10467f:	89 4d 0c             	mov    %ecx,0xc(%ebp)
  104682:	89 55 08             	mov    %edx,0x8(%ebp)
  104685:	5b                   	pop    %ebx
  104686:	5d                   	pop    %ebp
  104687:	e9 e0 00 00 00       	jmp    10476c <__am_video_read>

0010468c <_io_write>:
  10468c:	55                   	push   %ebp
  10468d:	89 e5                	mov    %esp,%ebp
  10468f:	8b 45 0c             	mov    0xc(%ebp),%eax
  104692:	8b 55 10             	mov    0x10(%ebp),%edx
  104695:	8b 4d 14             	mov    0x14(%ebp),%ecx
  104698:	81 7d 08 04 ac 00 00 	cmpl   $0xac04,0x8(%ebp)
  10469f:	74 07                	je     1046a8 <_io_write+0x1c>
  1046a1:	31 c0                	xor    %eax,%eax
  1046a3:	5d                   	pop    %ebp
  1046a4:	c3                   	ret    
  1046a5:	8d 76 00             	lea    0x0(%esi),%esi
  1046a8:	89 4d 10             	mov    %ecx,0x10(%ebp)
  1046ab:	89 55 0c             	mov    %edx,0xc(%ebp)
  1046ae:	89 45 08             	mov    %eax,0x8(%ebp)
  1046b1:	5d                   	pop    %ebp
  1046b2:	e9 dd 00 00 00       	jmp    104794 <__am_video_write>
  1046b7:	90                   	nop

001046b8 <__am_input_read>:
  1046b8:	55                   	push   %ebp
  1046b9:	89 e5                	mov    %esp,%ebp
  1046bb:	83 7d 08 01          	cmpl   $0x1,0x8(%ebp)
  1046bf:	74 07                	je     1046c8 <__am_input_read+0x10>
  1046c1:	31 c0                	xor    %eax,%eax
  1046c3:	5d                   	pop    %ebp
  1046c4:	c3                   	ret    
  1046c5:	8d 76 00             	lea    0x0(%esi),%esi
  1046c8:	ba 60 00 00 00       	mov    $0x60,%edx
  1046cd:	ed                   	in     (%dx),%eax
  1046ce:	8b 4d 0c             	mov    0xc(%ebp),%ecx
  1046d1:	89 41 04             	mov    %eax,0x4(%ecx)
  1046d4:	f6 c4 80             	test   $0x80,%ah
  1046d7:	74 13                	je     1046ec <__am_input_read+0x34>
  1046d9:	80 f4 80             	xor    $0x80,%ah
  1046dc:	89 41 04             	mov    %eax,0x4(%ecx)
  1046df:	c7 01 01 00 00 00    	movl   $0x1,(%ecx)
  1046e5:	b8 08 00 00 00       	mov    $0x8,%eax
  1046ea:	5d                   	pop    %ebp
  1046eb:	c3                   	ret    
  1046ec:	8b 45 0c             	mov    0xc(%ebp),%eax
  1046ef:	c7 00 00 00 00 00    	movl   $0x0,(%eax)
  1046f5:	b8 08 00 00 00       	mov    $0x8,%eax
  1046fa:	5d                   	pop    %ebp
  1046fb:	c3                   	ret    

001046fc <__am_timer_read>:
  1046fc:	55                   	push   %ebp
  1046fd:	89 e5                	mov    %esp,%ebp
  1046ff:	8b 45 08             	mov    0x8(%ebp),%eax
  104702:	8b 4d 0c             	mov    0xc(%ebp),%ecx
  104705:	83 f8 01             	cmp    $0x1,%eax
  104708:	74 3a                	je     104744 <__am_timer_read+0x48>
  10470a:	83 f8 02             	cmp    $0x2,%eax
  10470d:	75 31                	jne    104740 <__am_timer_read+0x44>
  10470f:	c7 41 14 00 00 00 00 	movl   $0x0,0x14(%ecx)
  104716:	c7 41 10 00 00 00 00 	movl   $0x0,0x10(%ecx)
  10471d:	c7 41 0c 00 00 00 00 	movl   $0x0,0xc(%ecx)
  104724:	c7 41 08 00 00 00 00 	movl   $0x0,0x8(%ecx)
  10472b:	c7 41 04 00 00 00 00 	movl   $0x0,0x4(%ecx)
  104732:	c7 01 d0 07 00 00    	movl   $0x7d0,(%ecx)
  104738:	b8 18 00 00 00       	mov    $0x18,%eax
  10473d:	5d                   	pop    %ebp
  10473e:	c3                   	ret    
  10473f:	90                   	nop
  104740:	31 c0                	xor    %eax,%eax
  104742:	5d                   	pop    %ebp
  104743:	c3                   	ret    
  104744:	c7 01 00 00 00 00    	movl   $0x0,(%ecx)
  10474a:	ba 48 00 00 00       	mov    $0x48,%edx
  10474f:	ed                   	in     (%dx),%eax
  104750:	2b 05 8c 89 2d 00    	sub    0x2d898c,%eax
  104756:	89 41 04             	mov    %eax,0x4(%ecx)
  104759:	b8 08 00 00 00       	mov    $0x8,%eax
  10475e:	5d                   	pop    %ebp
  10475f:	c3                   	ret    

00104760 <__am_timer_init>:
  104760:	ba 48 00 00 00       	mov    $0x48,%edx
  104765:	ed                   	in     (%dx),%eax
  104766:	a3 8c 89 2d 00       	mov    %eax,0x2d898c
  10476b:	c3                   	ret    

0010476c <__am_video_read>:
  10476c:	55                   	push   %ebp
  10476d:	89 e5                	mov    %esp,%ebp
  10476f:	83 7d 08 01          	cmpl   $0x1,0x8(%ebp)
  104773:	74 07                	je     10477c <__am_video_read+0x10>
  104775:	31 c0                	xor    %eax,%eax
  104777:	5d                   	pop    %ebp
  104778:	c3                   	ret    
  104779:	8d 76 00             	lea    0x0(%esi),%esi
  10477c:	8b 45 0c             	mov    0xc(%ebp),%eax
  10477f:	c7 00 90 01 00 00    	movl   $0x190,(%eax)
  104785:	c7 40 04 2c 01 00 00 	movl   $0x12c,0x4(%eax)
  10478c:	b8 08 00 00 00       	mov    $0x8,%eax
  104791:	5d                   	pop    %ebp
  104792:	c3                   	ret    
  104793:	90                   	nop

00104794 <__am_video_write>:
  104794:	55                   	push   %ebp
  104795:	89 e5                	mov    %esp,%ebp
  104797:	57                   	push   %edi
  104798:	56                   	push   %esi
  104799:	53                   	push   %ebx
  10479a:	83 ec 1c             	sub    $0x1c,%esp
  10479d:	83 7d 08 02          	cmpl   $0x2,0x8(%ebp)
  1047a1:	74 0d                	je     1047b0 <__am_video_write+0x1c>
  1047a3:	31 c0                	xor    %eax,%eax
  1047a5:	8d 65 f4             	lea    -0xc(%ebp),%esp
  1047a8:	5b                   	pop    %ebx
  1047a9:	5e                   	pop    %esi
  1047aa:	5f                   	pop    %edi
  1047ab:	5d                   	pop    %ebp
  1047ac:	c3                   	ret    
  1047ad:	8d 76 00             	lea    0x0(%esi),%esi
  1047b0:	8b 45 0c             	mov    0xc(%ebp),%eax
  1047b3:	8b 08                	mov    (%eax),%ecx
  1047b5:	8b 50 04             	mov    0x4(%eax),%edx
  1047b8:	8b 40 10             	mov    0x10(%eax),%eax
  1047bb:	8b 5d 0c             	mov    0xc(%ebp),%ebx
  1047be:	8b 73 08             	mov    0x8(%ebx),%esi
  1047c1:	8b 5b 0c             	mov    0xc(%ebx),%ebx
  1047c4:	89 5d e4             	mov    %ebx,-0x1c(%ebp)
  1047c7:	c1 e3 02             	shl    $0x2,%ebx
  1047ca:	85 c0                	test   %eax,%eax
  1047cc:	7e 47                	jle    104815 <__am_video_write+0x81>
  1047ce:	89 55 e4             	mov    %edx,-0x1c(%ebp)
  1047d1:	8d 14 92             	lea    (%edx,%edx,4),%edx
  1047d4:	8d 14 92             	lea    (%edx,%edx,4),%edx
  1047d7:	c1 e2 04             	shl    $0x4,%edx
  1047da:	01 ca                	add    %ecx,%edx
  1047dc:	8d 3c 95 00 00 00 a0 	lea    -0x60000000(,%edx,4),%edi
  1047e3:	03 45 e4             	add    -0x1c(%ebp),%eax
  1047e6:	8d 04 80             	lea    (%eax,%eax,4),%eax
  1047e9:	8d 04 80             	lea    (%eax,%eax,4),%eax
  1047ec:	c1 e0 04             	shl    $0x4,%eax
  1047ef:	8d 84 01 00 00 00 28 	lea    0x28000000(%ecx,%eax,1),%eax
  1047f6:	c1 e0 02             	shl    $0x2,%eax
  1047f9:	89 45 e4             	mov    %eax,-0x1c(%ebp)
  1047fc:	52                   	push   %edx
  1047fd:	53                   	push   %ebx
  1047fe:	56                   	push   %esi
  1047ff:	57                   	push   %edi
  104800:	e8 13 02 00 00       	call   104a18 <memcpy>
  104805:	01 de                	add    %ebx,%esi
  104807:	81 c7 40 06 00 00    	add    $0x640,%edi
  10480d:	83 c4 10             	add    $0x10,%esp
  104810:	3b 7d e4             	cmp    -0x1c(%ebp),%edi
  104813:	75 e7                	jne    1047fc <__am_video_write+0x68>
  104815:	8b 45 0c             	mov    0xc(%ebp),%eax
  104818:	8b 40 14             	mov    0x14(%eax),%eax
  10481b:	85 c0                	test   %eax,%eax
  10481d:	74 15                	je     104834 <__am_video_write+0xa0>
  10481f:	31 c0                	xor    %eax,%eax
  104821:	ba 04 01 00 00       	mov    $0x104,%edx
  104826:	ef                   	out    %eax,(%dx)
  104827:	8b 45 10             	mov    0x10(%ebp),%eax
  10482a:	8d 65 f4             	lea    -0xc(%ebp),%esp
  10482d:	5b                   	pop    %ebx
  10482e:	5e                   	pop    %esi
  10482f:	5f                   	pop    %edi
  104830:	5d                   	pop    %ebp
  104831:	c3                   	ret    
  104832:	66 90                	xchg   %ax,%ax
  104834:	8b 45 10             	mov    0x10(%ebp),%eax
  104837:	8d 65 f4             	lea    -0xc(%ebp),%esp
  10483a:	5b                   	pop    %ebx
  10483b:	5e                   	pop    %esi
  10483c:	5f                   	pop    %edi
  10483d:	5d                   	pop    %ebp
  10483e:	c3                   	ret    
  10483f:	90                   	nop

00104840 <__am_vga_init>:
  104840:	55                   	push   %ebp
  104841:	89 e5                	mov    %esp,%ebp
  104843:	53                   	push   %ebx
  104844:	52                   	push   %edx
  104845:	e8 12 03 00 00       	call   104b5c <screen_width>
  10484a:	89 c3                	mov    %eax,%ebx
  10484c:	e8 2b 03 00 00       	call   104b7c <screen_height>
  104851:	0f af c3             	imul   %ebx,%eax
  104854:	85 c0                	test   %eax,%eax
  104856:	7e 19                	jle    104871 <__am_vga_init+0x31>
  104858:	8d 14 85 00 00 00 a0 	lea    -0x60000000(,%eax,4),%edx
  10485f:	b8 00 00 00 a0       	mov    $0xa0000000,%eax
  104864:	c7 00 00 00 00 00    	movl   $0x0,(%eax)
  10486a:	83 c0 04             	add    $0x4,%eax
  10486d:	39 d0                	cmp    %edx,%eax
  10486f:	75 f3                	jne    104864 <__am_vga_init+0x24>
  104871:	58                   	pop    %eax
  104872:	5b                   	pop    %ebx
  104873:	5d                   	pop    %ebp
  104874:	e9 9b 02 00 00       	jmp    104b14 <draw_sync>
  104879:	66 90                	xchg   %ax,%ax
  10487b:	90                   	nop

0010487c <vsprintf>:
  10487c:	55                   	push   %ebp
  10487d:	89 e5                	mov    %esp,%ebp
  10487f:	57                   	push   %edi
  104880:	56                   	push   %esi
  104881:	53                   	push   %ebx
  104882:	83 ec 0c             	sub    $0xc,%esp
  104885:	8b 7d 08             	mov    0x8(%ebp),%edi
  104888:	8b 45 10             	mov    0x10(%ebp),%eax
  10488b:	8b 75 0c             	mov    0xc(%ebp),%esi
  10488e:	8a 16                	mov    (%esi),%dl
  104890:	84 d2                	test   %dl,%dl
  104892:	75 19                	jne    1048ad <vsprintf+0x31>
  104894:	eb 59                	jmp    1048ef <vsprintf+0x73>
  104896:	66 90                	xchg   %ax,%ax
  104898:	88 17                	mov    %dl,(%edi)
  10489a:	47                   	inc    %edi
  10489b:	89 f2                	mov    %esi,%edx
  10489d:	8b 75 0c             	mov    0xc(%ebp),%esi
  1048a0:	89 55 0c             	mov    %edx,0xc(%ebp)
  1048a3:	c6 07 00             	movb   $0x0,(%edi)
  1048a6:	8a 56 01             	mov    0x1(%esi),%dl
  1048a9:	84 d2                	test   %dl,%dl
  1048ab:	74 42                	je     1048ef <vsprintf+0x73>
  1048ad:	8b 75 0c             	mov    0xc(%ebp),%esi
  1048b0:	46                   	inc    %esi
  1048b1:	80 fa 25             	cmp    $0x25,%dl
  1048b4:	75 e2                	jne    104898 <vsprintf+0x1c>
  1048b6:	8b 5d 0c             	mov    0xc(%ebp),%ebx
  1048b9:	8a 53 01             	mov    0x1(%ebx),%dl
  1048bc:	83 45 0c 02          	addl   $0x2,0xc(%ebp)
  1048c0:	80 fa 64             	cmp    $0x64,%dl
  1048c3:	74 37                	je     1048fc <vsprintf+0x80>
  1048c5:	80 fa 73             	cmp    $0x73,%dl
  1048c8:	75 d9                	jne    1048a3 <vsprintf+0x27>
  1048ca:	8d 50 04             	lea    0x4(%eax),%edx
  1048cd:	8b 08                	mov    (%eax),%ecx
  1048cf:	8a 01                	mov    (%ecx),%al
  1048d1:	84 c0                	test   %al,%al
  1048d3:	74 0d                	je     1048e2 <vsprintf+0x66>
  1048d5:	8d 76 00             	lea    0x0(%esi),%esi
  1048d8:	88 07                	mov    %al,(%edi)
  1048da:	41                   	inc    %ecx
  1048db:	47                   	inc    %edi
  1048dc:	8a 01                	mov    (%ecx),%al
  1048de:	84 c0                	test   %al,%al
  1048e0:	75 f6                	jne    1048d8 <vsprintf+0x5c>
  1048e2:	47                   	inc    %edi
  1048e3:	89 d0                	mov    %edx,%eax
  1048e5:	c6 07 00             	movb   $0x0,(%edi)
  1048e8:	8a 56 01             	mov    0x1(%esi),%dl
  1048eb:	84 d2                	test   %dl,%dl
  1048ed:	75 be                	jne    1048ad <vsprintf+0x31>
  1048ef:	31 c0                	xor    %eax,%eax
  1048f1:	83 c4 0c             	add    $0xc,%esp
  1048f4:	5b                   	pop    %ebx
  1048f5:	5e                   	pop    %esi
  1048f6:	5f                   	pop    %edi
  1048f7:	5d                   	pop    %ebp
  1048f8:	c3                   	ret    
  1048f9:	8d 76 00             	lea    0x0(%esi),%esi
  1048fc:	8d 58 04             	lea    0x4(%eax),%ebx
  1048ff:	89 5d f0             	mov    %ebx,-0x10(%ebp)
  104902:	8b 08                	mov    (%eax),%ecx
  104904:	85 c9                	test   %ecx,%ecx
  104906:	75 0c                	jne    104914 <vsprintf+0x98>
  104908:	c6 07 30             	movb   $0x30,(%edi)
  10490b:	47                   	inc    %edi
  10490c:	8b 45 f0             	mov    -0x10(%ebp),%eax
  10490f:	eb 92                	jmp    1048a3 <vsprintf+0x27>
  104911:	8d 76 00             	lea    0x0(%esi),%esi
  104914:	89 cb                	mov    %ecx,%ebx
  104916:	31 c0                	xor    %eax,%eax
  104918:	89 75 e8             	mov    %esi,-0x18(%ebp)
  10491b:	89 c6                	mov    %eax,%esi
  10491d:	8d 76 00             	lea    0x0(%esi),%esi
  104920:	46                   	inc    %esi
  104921:	b8 67 66 66 66       	mov    $0x66666667,%eax
  104926:	f7 eb                	imul   %ebx
  104928:	89 d0                	mov    %edx,%eax
  10492a:	c1 f8 02             	sar    $0x2,%eax
  10492d:	c1 fb 1f             	sar    $0x1f,%ebx
  104930:	29 d8                	sub    %ebx,%eax
  104932:	89 c3                	mov    %eax,%ebx
  104934:	75 ea                	jne    104920 <vsprintf+0xa4>
  104936:	89 f3                	mov    %esi,%ebx
  104938:	89 75 ec             	mov    %esi,-0x14(%ebp)
  10493b:	8b 75 e8             	mov    -0x18(%ebp),%esi
  10493e:	66 90                	xchg   %ax,%ax
  104940:	b8 67 66 66 66       	mov    $0x66666667,%eax
  104945:	f7 e9                	imul   %ecx
  104947:	89 d0                	mov    %edx,%eax
  104949:	c1 f8 02             	sar    $0x2,%eax
  10494c:	89 ca                	mov    %ecx,%edx
  10494e:	c1 fa 1f             	sar    $0x1f,%edx
  104951:	29 d0                	sub    %edx,%eax
  104953:	8d 14 80             	lea    (%eax,%eax,4),%edx
  104956:	01 d2                	add    %edx,%edx
  104958:	29 d1                	sub    %edx,%ecx
  10495a:	83 c1 30             	add    $0x30,%ecx
  10495d:	88 4c 1f ff          	mov    %cl,-0x1(%edi,%ebx,1)
  104961:	89 c1                	mov    %eax,%ecx
  104963:	4b                   	dec    %ebx
  104964:	75 da                	jne    104940 <vsprintf+0xc4>
  104966:	03 7d ec             	add    -0x14(%ebp),%edi
  104969:	eb a1                	jmp    10490c <vsprintf+0x90>
  10496b:	90                   	nop

0010496c <printf>:
  10496c:	55                   	push   %ebp
  10496d:	89 e5                	mov    %esp,%ebp
  10496f:	53                   	push   %ebx
  104970:	81 ec 04 04 00 00    	sub    $0x404,%esp
  104976:	8d 45 0c             	lea    0xc(%ebp),%eax
  104979:	50                   	push   %eax
  10497a:	ff 75 08             	pushl  0x8(%ebp)
  10497d:	8d 9d f8 fb ff ff    	lea    -0x408(%ebp),%ebx
  104983:	53                   	push   %ebx
  104984:	e8 f3 fe ff ff       	call   10487c <vsprintf>
  104989:	0f be 85 f8 fb ff ff 	movsbl -0x408(%ebp),%eax
  104990:	83 c4 0c             	add    $0xc,%esp
  104993:	84 c0                	test   %al,%al
  104995:	74 15                	je     1049ac <printf+0x40>
  104997:	90                   	nop
  104998:	83 ec 0c             	sub    $0xc,%esp
  10499b:	50                   	push   %eax
  10499c:	e8 47 fc ff ff       	call   1045e8 <_putc>
  1049a1:	43                   	inc    %ebx
  1049a2:	0f be 03             	movsbl (%ebx),%eax
  1049a5:	83 c4 10             	add    $0x10,%esp
  1049a8:	84 c0                	test   %al,%al
  1049aa:	75 ec                	jne    104998 <printf+0x2c>
  1049ac:	31 c0                	xor    %eax,%eax
  1049ae:	8b 5d fc             	mov    -0x4(%ebp),%ebx
  1049b1:	c9                   	leave  
  1049b2:	c3                   	ret    
  1049b3:	90                   	nop

001049b4 <strcmp>:
  1049b4:	55                   	push   %ebp
  1049b5:	89 e5                	mov    %esp,%ebp
  1049b7:	56                   	push   %esi
  1049b8:	53                   	push   %ebx
  1049b9:	8b 5d 08             	mov    0x8(%ebp),%ebx
  1049bc:	8b 75 0c             	mov    0xc(%ebp),%esi
  1049bf:	8a 13                	mov    (%ebx),%dl
  1049c1:	8a 06                	mov    (%esi),%al
  1049c3:	84 d2                	test   %dl,%dl
  1049c5:	74 28                	je     1049ef <strcmp+0x3b>
  1049c7:	84 c0                	test   %al,%al
  1049c9:	74 35                	je     104a00 <strcmp+0x4c>
  1049cb:	38 c2                	cmp    %al,%dl
  1049cd:	7f 31                	jg     104a00 <strcmp+0x4c>
  1049cf:	7c 3b                	jl     104a0c <strcmp+0x58>
  1049d1:	ba 01 00 00 00       	mov    $0x1,%edx
  1049d6:	eb 0d                	jmp    1049e5 <strcmp+0x31>
  1049d8:	84 c0                	test   %al,%al
  1049da:	74 24                	je     104a00 <strcmp+0x4c>
  1049dc:	38 c1                	cmp    %al,%cl
  1049de:	7f 20                	jg     104a00 <strcmp+0x4c>
  1049e0:	42                   	inc    %edx
  1049e1:	38 c1                	cmp    %al,%cl
  1049e3:	7c 27                	jl     104a0c <strcmp+0x58>
  1049e5:	8a 0c 13             	mov    (%ebx,%edx,1),%cl
  1049e8:	8a 04 16             	mov    (%esi,%edx,1),%al
  1049eb:	84 c9                	test   %cl,%cl
  1049ed:	75 e9                	jne    1049d8 <strcmp+0x24>
  1049ef:	84 c0                	test   %al,%al
  1049f1:	0f 95 c0             	setne  %al
  1049f4:	0f b6 c0             	movzbl %al,%eax
  1049f7:	f7 d8                	neg    %eax
  1049f9:	5b                   	pop    %ebx
  1049fa:	5e                   	pop    %esi
  1049fb:	5d                   	pop    %ebp
  1049fc:	c3                   	ret    
  1049fd:	8d 76 00             	lea    0x0(%esi),%esi
  104a00:	b8 01 00 00 00       	mov    $0x1,%eax
  104a05:	5b                   	pop    %ebx
  104a06:	5e                   	pop    %esi
  104a07:	5d                   	pop    %ebp
  104a08:	c3                   	ret    
  104a09:	8d 76 00             	lea    0x0(%esi),%esi
  104a0c:	b8 ff ff ff ff       	mov    $0xffffffff,%eax
  104a11:	5b                   	pop    %ebx
  104a12:	5e                   	pop    %esi
  104a13:	5d                   	pop    %ebp
  104a14:	c3                   	ret    
  104a15:	66 90                	xchg   %ax,%ax
  104a17:	90                   	nop

00104a18 <memcpy>:
  104a18:	55                   	push   %ebp
  104a19:	89 e5                	mov    %esp,%ebp
  104a1b:	56                   	push   %esi
  104a1c:	53                   	push   %ebx
  104a1d:	8b 75 08             	mov    0x8(%ebp),%esi
  104a20:	8b 4d 0c             	mov    0xc(%ebp),%ecx
  104a23:	8b 5d 10             	mov    0x10(%ebp),%ebx
  104a26:	85 db                	test   %ebx,%ebx
  104a28:	74 10                	je     104a3a <memcpy+0x22>
  104a2a:	01 f3                	add    %esi,%ebx
  104a2c:	89 f2                	mov    %esi,%edx
  104a2e:	66 90                	xchg   %ax,%ax
  104a30:	8a 01                	mov    (%ecx),%al
  104a32:	88 02                	mov    %al,(%edx)
  104a34:	42                   	inc    %edx
  104a35:	41                   	inc    %ecx
  104a36:	39 da                	cmp    %ebx,%edx
  104a38:	75 f6                	jne    104a30 <memcpy+0x18>
  104a3a:	89 f0                	mov    %esi,%eax
  104a3c:	5b                   	pop    %ebx
  104a3d:	5e                   	pop    %esi
  104a3e:	5d                   	pop    %ebp
  104a3f:	c3                   	ret    

00104a40 <memcmp>:
  104a40:	55                   	push   %ebp
  104a41:	89 e5                	mov    %esp,%ebp
  104a43:	53                   	push   %ebx
  104a44:	8b 45 08             	mov    0x8(%ebp),%eax
  104a47:	8b 55 0c             	mov    0xc(%ebp),%edx
  104a4a:	8b 4d 10             	mov    0x10(%ebp),%ecx
  104a4d:	85 c9                	test   %ecx,%ecx
  104a4f:	74 1d                	je     104a6e <memcmp+0x2e>
  104a51:	8a 1a                	mov    (%edx),%bl
  104a53:	38 18                	cmp    %bl,(%eax)
  104a55:	7f 1d                	jg     104a74 <memcmp+0x34>
  104a57:	7c 23                	jl     104a7c <memcmp+0x3c>
  104a59:	01 c1                	add    %eax,%ecx
  104a5b:	eb 0b                	jmp    104a68 <memcmp+0x28>
  104a5d:	8d 76 00             	lea    0x0(%esi),%esi
  104a60:	8a 1a                	mov    (%edx),%bl
  104a62:	38 18                	cmp    %bl,(%eax)
  104a64:	7f 0e                	jg     104a74 <memcmp+0x34>
  104a66:	7c 14                	jl     104a7c <memcmp+0x3c>
  104a68:	40                   	inc    %eax
  104a69:	42                   	inc    %edx
  104a6a:	39 c8                	cmp    %ecx,%eax
  104a6c:	75 f2                	jne    104a60 <memcmp+0x20>
  104a6e:	31 c0                	xor    %eax,%eax
  104a70:	5b                   	pop    %ebx
  104a71:	5d                   	pop    %ebp
  104a72:	c3                   	ret    
  104a73:	90                   	nop
  104a74:	b8 01 00 00 00       	mov    $0x1,%eax
  104a79:	5b                   	pop    %ebx
  104a7a:	5d                   	pop    %ebp
  104a7b:	c3                   	ret    
  104a7c:	b8 ff ff ff ff       	mov    $0xffffffff,%eax
  104a81:	5b                   	pop    %ebx
  104a82:	5d                   	pop    %ebp
  104a83:	c3                   	ret    

00104a84 <uptime>:
  104a84:	55                   	push   %ebp
  104a85:	89 e5                	mov    %esp,%ebp
  104a87:	83 ec 18             	sub    $0x18,%esp
  104a8a:	6a 08                	push   $0x8
  104a8c:	8d 45 f0             	lea    -0x10(%ebp),%eax
  104a8f:	50                   	push   %eax
  104a90:	6a 01                	push   $0x1
  104a92:	68 03 ac 00 00       	push   $0xac03
  104a97:	e8 94 fb ff ff       	call   104630 <_io_read>
  104a9c:	8b 45 f4             	mov    -0xc(%ebp),%eax
  104a9f:	c9                   	leave  
  104aa0:	c3                   	ret    
  104aa1:	66 90                	xchg   %ax,%ax
  104aa3:	90                   	nop

00104aa4 <read_key>:
  104aa4:	55                   	push   %ebp
  104aa5:	89 e5                	mov    %esp,%ebp
  104aa7:	83 ec 18             	sub    $0x18,%esp
  104aaa:	6a 08                	push   $0x8
  104aac:	8d 45 f0             	lea    -0x10(%ebp),%eax
  104aaf:	50                   	push   %eax
  104ab0:	6a 01                	push   $0x1
  104ab2:	68 02 ac 00 00       	push   $0xac02
  104ab7:	e8 74 fb ff ff       	call   104630 <_io_read>
  104abc:	8b 45 f4             	mov    -0xc(%ebp),%eax
  104abf:	83 c4 10             	add    $0x10,%esp
  104ac2:	8b 55 f0             	mov    -0x10(%ebp),%edx
  104ac5:	85 d2                	test   %edx,%edx
  104ac7:	74 03                	je     104acc <read_key+0x28>
  104ac9:	80 cc 80             	or     $0x80,%ah
  104acc:	c9                   	leave  
  104acd:	c3                   	ret    
  104ace:	66 90                	xchg   %ax,%ax

00104ad0 <draw_rect>:
  104ad0:	55                   	push   %ebp
  104ad1:	89 e5                	mov    %esp,%ebp
  104ad3:	83 ec 28             	sub    $0x28,%esp
  104ad6:	8b 45 0c             	mov    0xc(%ebp),%eax
  104ad9:	89 45 e0             	mov    %eax,-0x20(%ebp)
  104adc:	8b 45 10             	mov    0x10(%ebp),%eax
  104adf:	89 45 e4             	mov    %eax,-0x1c(%ebp)
  104ae2:	8b 45 08             	mov    0x8(%ebp),%eax
  104ae5:	89 45 e8             	mov    %eax,-0x18(%ebp)
  104ae8:	8b 45 14             	mov    0x14(%ebp),%eax
  104aeb:	89 45 ec             	mov    %eax,-0x14(%ebp)
  104aee:	8b 45 18             	mov    0x18(%ebp),%eax
  104af1:	89 45 f0             	mov    %eax,-0x10(%ebp)
  104af4:	c7 45 f4 00 00 00 00 	movl   $0x0,-0xc(%ebp)
  104afb:	6a 18                	push   $0x18
  104afd:	8d 45 e0             	lea    -0x20(%ebp),%eax
  104b00:	50                   	push   %eax
  104b01:	6a 02                	push   $0x2
  104b03:	68 04 ac 00 00       	push   $0xac04
  104b08:	e8 7f fb ff ff       	call   10468c <_io_write>
  104b0d:	83 c4 10             	add    $0x10,%esp
  104b10:	c9                   	leave  
  104b11:	c3                   	ret    
  104b12:	66 90                	xchg   %ax,%ax

00104b14 <draw_sync>:
  104b14:	55                   	push   %ebp
  104b15:	89 e5                	mov    %esp,%ebp
  104b17:	83 ec 28             	sub    $0x28,%esp
  104b1a:	c7 45 e8 00 00 00 00 	movl   $0x0,-0x18(%ebp)
  104b21:	c7 45 f0 00 00 00 00 	movl   $0x0,-0x10(%ebp)
  104b28:	c7 45 ec 00 00 00 00 	movl   $0x0,-0x14(%ebp)
  104b2f:	c7 45 e4 00 00 00 00 	movl   $0x0,-0x1c(%ebp)
  104b36:	c7 45 e0 00 00 00 00 	movl   $0x0,-0x20(%ebp)
  104b3d:	c7 45 f4 01 00 00 00 	movl   $0x1,-0xc(%ebp)
  104b44:	6a 18                	push   $0x18
  104b46:	8d 45 e0             	lea    -0x20(%ebp),%eax
  104b49:	50                   	push   %eax
  104b4a:	6a 02                	push   $0x2
  104b4c:	68 04 ac 00 00       	push   $0xac04
  104b51:	e8 36 fb ff ff       	call   10468c <_io_write>
  104b56:	83 c4 10             	add    $0x10,%esp
  104b59:	c9                   	leave  
  104b5a:	c3                   	ret    
  104b5b:	90                   	nop

00104b5c <screen_width>:
  104b5c:	55                   	push   %ebp
  104b5d:	89 e5                	mov    %esp,%ebp
  104b5f:	83 ec 18             	sub    $0x18,%esp
  104b62:	6a 08                	push   $0x8
  104b64:	8d 45 f0             	lea    -0x10(%ebp),%eax
  104b67:	50                   	push   %eax
  104b68:	6a 01                	push   $0x1
  104b6a:	68 04 ac 00 00       	push   $0xac04
  104b6f:	e8 bc fa ff ff       	call   104630 <_io_read>
  104b74:	8b 45 f0             	mov    -0x10(%ebp),%eax
  104b77:	c9                   	leave  
  104b78:	c3                   	ret    
  104b79:	66 90                	xchg   %ax,%ax
  104b7b:	90                   	nop

00104b7c <screen_height>:
  104b7c:	55                   	push   %ebp
  104b7d:	89 e5                	mov    %esp,%ebp
  104b7f:	83 ec 18             	sub    $0x18,%esp
  104b82:	6a 08                	push   $0x8
  104b84:	8d 45 f0             	lea    -0x10(%ebp),%eax
  104b87:	50                   	push   %eax
  104b88:	6a 01                	push   $0x1
  104b8a:	68 04 ac 00 00       	push   $0xac04
  104b8f:	e8 9c fa ff ff       	call   104630 <_io_read>
  104b94:	8b 45 f4             	mov    -0xc(%ebp),%eax
  104b97:	c9                   	leave  
  104b98:	c3                   	ret    
