
/home/piper/ics2019/nexus-am/tests/amtest/build/amtest-x86-nemu.elf:     file format elf32-i386


Disassembly of section .text:

00100000 <_start>:
  100000:	bd 00 00 00 00       	mov    $0x0,%ebp
  100005:	bc 00 10 17 00       	mov    $0x171000,%esp
  10000a:	e8 45 0a 00 00       	call   100a54 <_trm_init>
  10000f:	90                   	nop

00100010 <main>:
  100010:	8d 4c 24 04          	lea    0x4(%esp),%ecx
  100014:	83 e4 f0             	and    $0xfffffff0,%esp
  100017:	ff 71 fc             	pushl  -0x4(%ecx)
  10001a:	55                   	push   %ebp
  10001b:	89 e5                	mov    %esp,%ebp
  10001d:	53                   	push   %ebx
  10001e:	51                   	push   %ecx
  10001f:	8b 01                	mov    (%ecx),%eax
  100021:	8a 00                	mov    (%eax),%al
  100023:	83 e8 64             	sub    $0x64,%eax
  100026:	3c 12                	cmp    $0x12,%al
  100028:	0f 87 04 01 00 00    	ja     100132 <main+0x122>
  10002e:	0f b6 c0             	movzbl %al,%eax
  100031:	ff 24 85 20 13 10 00 	jmp    *0x101320(,%eax,4)
  100038:	c7 05 00 20 10 00 d4 	movl   $0x1009d4,0x102000
  10003f:	09 10 00 
  100042:	e8 25 0a 00 00       	call   100a6c <_ioe_init>
  100047:	e8 88 09 00 00       	call   1009d4 <video_test>
  10004c:	31 c0                	xor    %eax,%eax
  10004e:	8d 65 f8             	lea    -0x8(%ebp),%esp
  100051:	59                   	pop    %ecx
  100052:	5b                   	pop    %ebx
  100053:	5d                   	pop    %ebp
  100054:	8d 61 fc             	lea    -0x4(%ecx),%esp
  100057:	c3                   	ret    
  100058:	c7 05 00 20 10 00 14 	movl   $0x100414,0x102000
  10005f:	04 10 00 
  100062:	e8 05 0a 00 00       	call   100a6c <_ioe_init>
  100067:	e8 a8 03 00 00       	call   100414 <devscan>
  10006c:	eb de                	jmp    10004c <main+0x3c>
  10006e:	c7 05 00 20 10 00 68 	movl   $0x100768,0x102000
  100075:	07 10 00 
  100078:	e8 eb 06 00 00       	call   100768 <hello>
  10007d:	eb cd                	jmp    10004c <main+0x3c>
  10007f:	c7 05 00 20 10 00 6c 	movl   $0x10066c,0x102000
  100086:	06 10 00 
  100089:	e8 de 09 00 00       	call   100a6c <_ioe_init>
  10008e:	83 ec 0c             	sub    $0xc,%esp
  100091:	68 00 06 10 00       	push   $0x100600
  100096:	e8 8d 0c 00 00       	call   100d28 <_cte_init>
  10009b:	e8 cc 05 00 00       	call   10066c <hello_intr>
  1000a0:	83 c4 10             	add    $0x10,%esp
  1000a3:	eb a7                	jmp    10004c <main+0x3c>
  1000a5:	c7 05 00 20 10 00 bc 	movl   $0x1003bc,0x102000
  1000ac:	03 10 00 
  1000af:	e8 b8 09 00 00       	call   100a6c <_ioe_init>
  1000b4:	e8 03 03 00 00       	call   1003bc <keyboard_test>
  1000b9:	eb 91                	jmp    10004c <main+0x3c>
  1000bb:	c7 05 00 20 10 00 c4 	movl   $0x1006c4,0x102000
  1000c2:	06 10 00 
  1000c5:	83 ec 0c             	sub    $0xc,%esp
  1000c8:	68 c4 06 10 00       	push   $0x1006c4
  1000cd:	e8 5e 0e 00 00       	call   100f30 <_mpe_init>
  1000d2:	e8 ed 05 00 00       	call   1006c4 <mp_print>
  1000d7:	83 c4 10             	add    $0x10,%esp
  1000da:	e9 6d ff ff ff       	jmp    10004c <main+0x3c>
  1000df:	c7 05 00 20 10 00 bc 	movl   $0x1002bc,0x102000
  1000e6:	02 10 00 
  1000e9:	e8 7e 09 00 00       	call   100a6c <_ioe_init>
  1000ee:	83 ec 0c             	sub    $0xc,%esp
  1000f1:	68 c8 01 10 00       	push   $0x1001c8
  1000f6:	e8 2d 0c 00 00       	call   100d28 <_cte_init>
  1000fb:	59                   	pop    %ecx
  1000fc:	5b                   	pop    %ebx
  1000fd:	68 c4 01 10 00       	push   $0x1001c4
  100102:	68 7c 01 10 00       	push   $0x10017c
  100107:	e8 10 0d 00 00       	call   100e1c <_vme_init>
  10010c:	e8 ab 01 00 00       	call   1002bc <vm_test>
  100111:	83 c4 10             	add    $0x10,%esp
  100114:	e9 33 ff ff ff       	jmp    10004c <main+0x3c>
  100119:	c7 05 00 20 10 00 e4 	movl   $0x1006e4,0x102000
  100120:	06 10 00 
  100123:	e8 44 09 00 00       	call   100a6c <_ioe_init>
  100128:	e8 b7 05 00 00       	call   1006e4 <rtc_test>
  10012d:	e9 1a ff ff ff       	jmp    10004c <main+0x3c>
  100132:	83 ec 0c             	sub    $0xc,%esp
  100135:	68 40 12 10 00       	push   $0x101240
  10013a:	e8 ed 0e 00 00       	call   10102c <printf>
  10013f:	83 c4 10             	add    $0x10,%esp
  100142:	31 db                	xor    %ebx,%ebx
  100144:	43                   	inc    %ebx
  100145:	81 fb 00 01 00 00    	cmp    $0x100,%ebx
  10014b:	0f 84 fb fe ff ff    	je     10004c <main+0x3c>
  100151:	8b 04 9d 80 13 10 00 	mov    0x101380(,%ebx,4),%eax
  100158:	85 c0                	test   %eax,%eax
  10015a:	74 e8                	je     100144 <main+0x134>
  10015c:	52                   	push   %edx
  10015d:	50                   	push   %eax
  10015e:	53                   	push   %ebx
  10015f:	68 5c 12 10 00       	push   $0x10125c
  100164:	e8 c3 0e 00 00       	call   10102c <printf>
  100169:	83 c4 10             	add    $0x10,%esp
  10016c:	43                   	inc    %ebx
  10016d:	81 fb 00 01 00 00    	cmp    $0x100,%ebx
  100173:	75 dc                	jne    100151 <main+0x141>
  100175:	e9 d2 fe ff ff       	jmp    10004c <main+0x3c>
  10017a:	66 90                	xchg   %ax,%ax

0010017c <simple_pgalloc>:
  10017c:	55                   	push   %ebp
  10017d:	89 e5                	mov    %esp,%ebp
  10017f:	56                   	push   %esi
  100180:	53                   	push   %ebx
  100181:	8b 5d 08             	mov    0x8(%ebp),%ebx
  100184:	8b 0d 20 30 10 00    	mov    0x103020,%ecx
  10018a:	85 c9                	test   %ecx,%ecx
  10018c:	75 06                	jne    100194 <simple_pgalloc+0x18>
  10018e:	8b 0d e0 1f 10 00    	mov    0x101fe0,%ecx
  100194:	89 c8                	mov    %ecx,%eax
  100196:	31 d2                	xor    %edx,%edx
  100198:	f7 f3                	div    %ebx
  10019a:	85 d2                	test   %edx,%edx
  10019c:	74 15                	je     1001b3 <simple_pgalloc+0x37>
  10019e:	41                   	inc    %ecx
  10019f:	eb 05                	jmp    1001a6 <simple_pgalloc+0x2a>
  1001a1:	8d 76 00             	lea    0x0(%esi),%esi
  1001a4:	89 f1                	mov    %esi,%ecx
  1001a6:	8d 71 01             	lea    0x1(%ecx),%esi
  1001a9:	89 c8                	mov    %ecx,%eax
  1001ab:	31 d2                	xor    %edx,%edx
  1001ad:	f7 f3                	div    %ebx
  1001af:	85 d2                	test   %edx,%edx
  1001b1:	75 f1                	jne    1001a4 <simple_pgalloc+0x28>
  1001b3:	01 cb                	add    %ecx,%ebx
  1001b5:	89 1d 20 30 10 00    	mov    %ebx,0x103020
  1001bb:	89 c8                	mov    %ecx,%eax
  1001bd:	5b                   	pop    %ebx
  1001be:	5e                   	pop    %esi
  1001bf:	5d                   	pop    %ebp
  1001c0:	c3                   	ret    
  1001c1:	8d 76 00             	lea    0x0(%esi),%esi

001001c4 <simple_pgfree>:
  1001c4:	c3                   	ret    
  1001c5:	8d 76 00             	lea    0x0(%esi),%esi

001001c8 <vm_handler>:
  1001c8:	55                   	push   %ebp
  1001c9:	89 e5                	mov    %esp,%ebp
  1001cb:	83 ec 08             	sub    $0x8,%esp
  1001ce:	83 7d 08 06          	cmpl   $0x6,0x8(%ebp)
  1001d2:	0f 87 c4 00 00 00    	ja     10029c <vm_handler+0xd4>
  1001d8:	8b 45 08             	mov    0x8(%ebp),%eax
  1001db:	ff 24 85 64 18 10 00 	jmp    *0x101864(,%eax,4)
  1001e2:	66 90                	xchg   %ax,%ax
  1001e4:	8b 45 0c             	mov    0xc(%ebp),%eax
  1001e7:	a8 04                	test   $0x4,%al
  1001e9:	0f 85 89 00 00 00    	jne    100278 <vm_handler+0xb0>
  1001ef:	b9 4d 1a 10 00       	mov    $0x101a4d,%ecx
  1001f4:	a8 02                	test   $0x2,%al
  1001f6:	0f 85 89 00 00 00    	jne    100285 <vm_handler+0xbd>
  1001fc:	ba 4d 1a 10 00       	mov    $0x101a4d,%edx
  100201:	a8 01                	test   $0x1,%al
  100203:	0f 85 89 00 00 00    	jne    100292 <vm_handler+0xca>
  100209:	b8 4d 1a 10 00       	mov    $0x101a4d,%eax
  10020e:	83 ec 0c             	sub    $0xc,%esp
  100211:	51                   	push   %ecx
  100212:	52                   	push   %edx
  100213:	50                   	push   %eax
  100214:	ff 75 10             	pushl  0x10(%ebp)
  100217:	68 c1 17 10 00       	push   $0x1017c1
  10021c:	e8 0b 0e 00 00       	call   10102c <printf>
  100221:	83 c4 20             	add    $0x20,%esp
  100224:	a1 34 30 10 00       	mov    0x103034,%eax
  100229:	85 c0                	test   %eax,%eax
  10022b:	74 2e                	je     10025b <vm_handler+0x93>
  10022d:	c7 05 34 30 10 00 00 	movl   $0x0,0x103034
  100234:	00 00 00 
  100237:	c9                   	leave  
  100238:	c3                   	ret    
  100239:	8d 76 00             	lea    0x0(%esi),%esi
  10023c:	83 ec 08             	sub    $0x8,%esp
  10023f:	8b 45 18             	mov    0x18(%ebp),%eax
  100242:	ff 70 08             	pushl  0x8(%eax)
  100245:	68 d0 17 10 00       	push   $0x1017d0
  10024a:	e8 dd 0d 00 00       	call   10102c <printf>
  10024f:	83 c4 10             	add    $0x10,%esp
  100252:	a1 34 30 10 00       	mov    0x103034,%eax
  100257:	85 c0                	test   %eax,%eax
  100259:	75 d2                	jne    10022d <vm_handler+0x65>
  10025b:	8b 45 18             	mov    0x18(%ebp),%eax
  10025e:	c9                   	leave  
  10025f:	c3                   	ret    
  100260:	83 ec 08             	sub    $0x8,%esp
  100263:	ff 75 14             	pushl  0x14(%ebp)
  100266:	68 a7 17 10 00       	push   $0x1017a7
  10026b:	e8 bc 0d 00 00       	call   10102c <printf>
  100270:	83 c4 10             	add    $0x10,%esp
  100273:	eb af                	jmp    100224 <vm_handler+0x5c>
  100275:	8d 76 00             	lea    0x0(%esi),%esi
  100278:	b9 80 17 10 00       	mov    $0x101780,%ecx
  10027d:	a8 02                	test   $0x2,%al
  10027f:	0f 84 77 ff ff ff    	je     1001fc <vm_handler+0x34>
  100285:	ba 8d 17 10 00       	mov    $0x10178d,%edx
  10028a:	a8 01                	test   $0x1,%al
  10028c:	0f 84 77 ff ff ff    	je     100209 <vm_handler+0x41>
  100292:	b8 99 17 10 00       	mov    $0x101799,%eax
  100297:	e9 72 ff ff ff       	jmp    10020e <vm_handler+0x46>
  10029c:	50                   	push   %eax
  10029d:	6a 25                	push   $0x25
  10029f:	68 28 18 10 00       	push   $0x101828
  1002a4:	68 d4 17 10 00       	push   $0x1017d4
  1002a9:	e8 7e 0d 00 00       	call   10102c <printf>
  1002ae:	c7 04 24 01 00 00 00 	movl   $0x1,(%esp)
  1002b5:	e8 8e 07 00 00       	call   100a48 <_halt>
  1002ba:	66 90                	xchg   %ax,%ax

001002bc <vm_test>:
  1002bc:	55                   	push   %ebp
  1002bd:	89 e5                	mov    %esp,%ebp
  1002bf:	57                   	push   %edi
  1002c0:	56                   	push   %esi
  1002c1:	53                   	push   %ebx
  1002c2:	83 ec 14             	sub    $0x14,%esp
  1002c5:	68 ed 17 10 00       	push   $0x1017ed
  1002ca:	68 ed 17 10 00       	push   $0x1017ed
  1002cf:	e8 a0 0d 00 00       	call   101074 <strcmp>
  1002d4:	83 c4 10             	add    $0x10,%esp
  1002d7:	85 c0                	test   %eax,%eax
  1002d9:	0f 85 c7 00 00 00    	jne    1003a6 <vm_test+0xea>
  1002df:	83 ec 0c             	sub    $0xc,%esp
  1002e2:	68 24 30 10 00       	push   $0x103024
  1002e7:	e8 08 0c 00 00       	call   100ef4 <_protect>
  1002ec:	a1 28 30 10 00       	mov    0x103028,%eax
  1002f1:	8b 35 2c 30 10 00    	mov    0x10302c,%esi
  1002f7:	29 c6                	sub    %eax,%esi
  1002f9:	d1 ee                	shr    %esi
  1002fb:	01 c6                	add    %eax,%esi
  1002fd:	8b 1d 20 30 10 00    	mov    0x103020,%ebx
  100303:	83 c4 10             	add    $0x10,%esp
  100306:	85 db                	test   %ebx,%ebx
  100308:	0f 84 8d 00 00 00    	je     10039b <vm_test+0xdf>
  10030e:	f7 c3 ff 0f 00 00    	test   $0xfff,%ebx
  100314:	74 10                	je     100326 <vm_test+0x6a>
  100316:	43                   	inc    %ebx
  100317:	eb 02                	jmp    10031b <vm_test+0x5f>
  100319:	89 c3                	mov    %eax,%ebx
  10031b:	8d 43 01             	lea    0x1(%ebx),%eax
  10031e:	f7 c3 ff 0f 00 00    	test   $0xfff,%ebx
  100324:	75 f3                	jne    100319 <vm_test+0x5d>
  100326:	8d 83 00 10 00 00    	lea    0x1000(%ebx),%eax
  10032c:	a3 20 30 10 00       	mov    %eax,0x103020
  100331:	6a 04                	push   $0x4
  100333:	53                   	push   %ebx
  100334:	56                   	push   %esi
  100335:	68 24 30 10 00       	push   $0x103024
  10033a:	e8 e9 0b 00 00       	call   100f28 <_map>
  10033f:	83 c4 0c             	add    $0xc,%esp
  100342:	6a 0f                	push   $0xf
  100344:	68 c0 1b 10 00       	push   $0x101bc0
  100349:	53                   	push   %ebx
  10034a:	e8 89 0d 00 00       	call   1010d8 <memcpy>
  10034f:	58                   	pop    %eax
  100350:	5a                   	pop    %edx
  100351:	56                   	push   %esi
  100352:	68 0d 18 10 00       	push   $0x10180d
  100357:	e8 d0 0c 00 00       	call   10102c <printf>
  10035c:	b9 20 20 10 00       	mov    $0x102020,%ecx
  100361:	bb 20 30 10 00       	mov    $0x103020,%ebx
  100366:	8d be 00 10 00 00    	lea    0x1000(%esi),%edi
  10036c:	83 c4 0c             	add    $0xc,%esp
  10036f:	6a 00                	push   $0x0
  100371:	56                   	push   %esi
  100372:	53                   	push   %ebx
  100373:	51                   	push   %ecx
  100374:	57                   	push   %edi
  100375:	57                   	push   %edi
  100376:	68 24 30 10 00       	push   $0x103024
  10037b:	e8 ac 0b 00 00       	call   100f2c <_ucontext>
  100380:	a3 34 30 10 00       	mov    %eax,0x103034
  100385:	83 c4 14             	add    $0x14,%esp
  100388:	6a 01                	push   $0x1
  10038a:	e8 61 0a 00 00       	call   100df0 <_intr_write>
  10038f:	83 c4 10             	add    $0x10,%esp
  100392:	66 90                	xchg   %ax,%ax
  100394:	e8 53 0a 00 00       	call   100dec <_yield>
  100399:	eb f9                	jmp    100394 <vm_test+0xd8>
  10039b:	8b 1d e0 1f 10 00    	mov    0x101fe0,%ebx
  1003a1:	e9 68 ff ff ff       	jmp    10030e <vm_test+0x52>
  1003a6:	83 ec 0c             	sub    $0xc,%esp
  1003a9:	68 f1 17 10 00       	push   $0x1017f1
  1003ae:	e8 79 0c 00 00       	call   10102c <printf>
  1003b3:	8d 65 f4             	lea    -0xc(%ebp),%esp
  1003b6:	5b                   	pop    %ebx
  1003b7:	5e                   	pop    %esi
  1003b8:	5f                   	pop    %edi
  1003b9:	5d                   	pop    %ebp
  1003ba:	c3                   	ret    
  1003bb:	90                   	nop

001003bc <keyboard_test>:
  1003bc:	55                   	push   %ebp
  1003bd:	89 e5                	mov    %esp,%ebp
  1003bf:	83 ec 14             	sub    $0x14,%esp
  1003c2:	68 88 18 10 00       	push   $0x101888
  1003c7:	e8 60 0c 00 00       	call   10102c <printf>
  1003cc:	83 c4 10             	add    $0x10,%esp
  1003cf:	90                   	nop
  1003d0:	e8 67 0d 00 00       	call   10113c <read_key>
  1003d5:	89 c2                	mov    %eax,%edx
  1003d7:	81 e2 00 80 00 00    	and    $0x8000,%edx
  1003dd:	74 08                	je     1003e7 <keyboard_test+0x2b>
  1003df:	80 f4 80             	xor    $0x80,%ah
  1003e2:	ba 01 00 00 00       	mov    $0x1,%edx
  1003e7:	85 c0                	test   %eax,%eax
  1003e9:	74 e5                	je     1003d0 <keyboard_test+0x14>
  1003eb:	85 d2                	test   %edx,%edx
  1003ed:	75 1d                	jne    10040c <keyboard_test+0x50>
  1003ef:	ba 85 18 10 00       	mov    $0x101885,%edx
  1003f4:	52                   	push   %edx
  1003f5:	ff 34 85 e0 1b 10 00 	pushl  0x101be0(,%eax,4)
  1003fc:	50                   	push   %eax
  1003fd:	68 a1 18 10 00       	push   $0x1018a1
  100402:	e8 25 0c 00 00       	call   10102c <printf>
  100407:	83 c4 10             	add    $0x10,%esp
  10040a:	eb c4                	jmp    1003d0 <keyboard_test+0x14>
  10040c:	ba 80 18 10 00       	mov    $0x101880,%edx
  100411:	eb e1                	jmp    1003f4 <keyboard_test+0x38>
  100413:	90                   	nop

00100414 <devscan>:
  100414:	55                   	push   %ebp
  100415:	89 e5                	mov    %esp,%ebp
  100417:	57                   	push   %edi
  100418:	56                   	push   %esi
  100419:	53                   	push   %ebx
  10041a:	83 ec 50             	sub    $0x50,%esp
  10041d:	ff 35 e4 1f 10 00    	pushl  0x101fe4
  100423:	ff 35 e0 1f 10 00    	pushl  0x101fe0
  100429:	68 dd 19 10 00       	push   $0x1019dd
  10042e:	e8 f9 0b 00 00       	call   10102c <printf>
  100433:	c7 04 24 f3 19 10 00 	movl   $0x1019f3,(%esp)
  10043a:	e8 ed 0b 00 00       	call   10102c <printf>
  10043f:	6a 08                	push   $0x8
  100441:	8d 75 d0             	lea    -0x30(%ebp),%esi
  100444:	56                   	push   %esi
  100445:	6a 01                	push   $0x1
  100447:	68 03 ac 00 00       	push   $0xac03
  10044c:	e8 2f 06 00 00       	call   100a80 <_io_read>
  100451:	8b 5d d4             	mov    -0x2c(%ebp),%ebx
  100454:	c7 45 c4 00 00 00 00 	movl   $0x0,-0x3c(%ebp)
  10045b:	8b 45 c4             	mov    -0x3c(%ebp),%eax
  10045e:	83 c4 20             	add    $0x20,%esp
  100461:	3d 7f 96 98 00       	cmp    $0x98967f,%eax
  100466:	7f 11                	jg     100479 <devscan+0x65>
  100468:	8b 45 c4             	mov    -0x3c(%ebp),%eax
  10046b:	40                   	inc    %eax
  10046c:	89 45 c4             	mov    %eax,-0x3c(%ebp)
  10046f:	8b 45 c4             	mov    -0x3c(%ebp),%eax
  100472:	3d 7f 96 98 00       	cmp    $0x98967f,%eax
  100477:	7e ef                	jle    100468 <devscan+0x54>
  100479:	6a 08                	push   $0x8
  10047b:	56                   	push   %esi
  10047c:	6a 01                	push   $0x1
  10047e:	68 03 ac 00 00       	push   $0xac03
  100483:	e8 f8 05 00 00       	call   100a80 <_io_read>
  100488:	58                   	pop    %eax
  100489:	5a                   	pop    %edx
  10048a:	8b 45 d4             	mov    -0x2c(%ebp),%eax
  10048d:	29 d8                	sub    %ebx,%eax
  10048f:	50                   	push   %eax
  100490:	68 0f 1a 10 00       	push   $0x101a0f
  100495:	e8 92 0b 00 00       	call   10102c <printf>
  10049a:	6a 08                	push   $0x8
  10049c:	8d 45 c8             	lea    -0x38(%ebp),%eax
  10049f:	50                   	push   %eax
  1004a0:	6a 01                	push   $0x1
  1004a2:	68 04 ac 00 00       	push   $0xac04
  1004a7:	e8 d4 05 00 00       	call   100a80 <_io_read>
  1004ac:	83 c4 1c             	add    $0x1c,%esp
  1004af:	ff 75 cc             	pushl  -0x34(%ebp)
  1004b2:	ff 75 c8             	pushl  -0x38(%ebp)
  1004b5:	68 2d 1a 10 00       	push   $0x101a2d
  1004ba:	e8 6d 0b 00 00       	call   10102c <printf>
  1004bf:	83 c4 10             	add    $0x10,%esp
  1004c2:	31 db                	xor    %ebx,%ebx
  1004c4:	31 ff                	xor    %edi,%edi
  1004c6:	66 90                	xchg   %ax,%ax
  1004c8:	c7 45 c0 5f 00 6a 00 	movl   $0x6a005f,-0x40(%ebp)
  1004cf:	8b 55 c8             	mov    -0x38(%ebp),%edx
  1004d2:	89 d0                	mov    %edx,%eax
  1004d4:	c1 e8 1f             	shr    $0x1f,%eax
  1004d7:	01 d0                	add    %edx,%eax
  1004d9:	d1 f8                	sar    %eax
  1004db:	8d 44 03 ce          	lea    -0x32(%ebx,%eax,1),%eax
  1004df:	89 45 d0             	mov    %eax,-0x30(%ebp)
  1004e2:	8b 55 cc             	mov    -0x34(%ebp),%edx
  1004e5:	89 d0                	mov    %edx,%eax
  1004e7:	c1 e8 1f             	shr    $0x1f,%eax
  1004ea:	01 d0                	add    %edx,%eax
  1004ec:	d1 f8                	sar    %eax
  1004ee:	8d 44 07 ce          	lea    -0x32(%edi,%eax,1),%eax
  1004f2:	89 45 d4             	mov    %eax,-0x2c(%ebp)
  1004f5:	c7 45 e0 01 00 00 00 	movl   $0x1,-0x20(%ebp)
  1004fc:	c7 45 dc 01 00 00 00 	movl   $0x1,-0x24(%ebp)
  100503:	c7 45 e4 01 00 00 00 	movl   $0x1,-0x1c(%ebp)
  10050a:	8d 45 c0             	lea    -0x40(%ebp),%eax
  10050d:	89 45 d8             	mov    %eax,-0x28(%ebp)
  100510:	6a 18                	push   $0x18
  100512:	56                   	push   %esi
  100513:	6a 02                	push   $0x2
  100515:	68 04 ac 00 00       	push   $0xac04
  10051a:	e8 bd 05 00 00       	call   100adc <_io_write>
  10051f:	47                   	inc    %edi
  100520:	83 c4 10             	add    $0x10,%esp
  100523:	83 ff 64             	cmp    $0x64,%edi
  100526:	75 a0                	jne    1004c8 <devscan+0xb4>
  100528:	43                   	inc    %ebx
  100529:	83 fb 64             	cmp    $0x64,%ebx
  10052c:	75 96                	jne    1004c4 <devscan+0xb0>
  10052e:	83 ec 0c             	sub    $0xc,%esp
  100531:	68 50 1a 10 00       	push   $0x101a50
  100536:	e8 f1 0a 00 00       	call   10102c <printf>
  10053b:	83 c4 10             	add    $0x10,%esp
  10053e:	c7 45 ac 00 00 00 00 	movl   $0x0,-0x54(%ebp)
  100545:	8b 45 ac             	mov    -0x54(%ebp),%eax
  100548:	c1 e0 10             	shl    $0x10,%eax
  10054b:	89 45 b4             	mov    %eax,-0x4c(%ebp)
  10054e:	31 db                	xor    %ebx,%ebx
  100550:	eb 18                	jmp    10056a <devscan+0x156>
  100552:	66 90                	xchg   %ax,%ax
  100554:	83 ec 0c             	sub    $0xc,%esp
  100557:	68 4c 1a 10 00       	push   $0x101a4c
  10055c:	e8 cb 0a 00 00       	call   10102c <printf>
  100561:	83 c4 10             	add    $0x10,%esp
  100564:	43                   	inc    %ebx
  100565:	83 fb 20             	cmp    $0x20,%ebx
  100568:	74 73                	je     1005dd <devscan+0x1c9>
  10056a:	6a 04                	push   $0x4
  10056c:	56                   	push   %esi
  10056d:	89 d8                	mov    %ebx,%eax
  10056f:	c1 e0 0b             	shl    $0xb,%eax
  100572:	0b 45 b4             	or     -0x4c(%ebp),%eax
  100575:	0d 00 00 00 80       	or     $0x80000000,%eax
  10057a:	50                   	push   %eax
  10057b:	68 80 00 00 00       	push   $0x80
  100580:	e8 fb 04 00 00       	call   100a80 <_io_read>
  100585:	83 c4 10             	add    $0x10,%esp
  100588:	85 c0                	test   %eax,%eax
  10058a:	74 d8                	je     100564 <devscan+0x150>
  10058c:	8b 7d d0             	mov    -0x30(%ebp),%edi
  10058f:	89 f9                	mov    %edi,%ecx
  100591:	c1 e9 10             	shr    $0x10,%ecx
  100594:	66 83 ff ff          	cmp    $0xffff,%di
  100598:	74 ca                	je     100564 <devscan+0x150>
  10059a:	83 ec 0c             	sub    $0xc,%esp
  10059d:	0f b7 c7             	movzwl %di,%eax
  1005a0:	50                   	push   %eax
  1005a1:	51                   	push   %ecx
  1005a2:	89 4d b0             	mov    %ecx,-0x50(%ebp)
  1005a5:	53                   	push   %ebx
  1005a6:	ff 75 ac             	pushl  -0x54(%ebp)
  1005a9:	68 80 1a 10 00       	push   $0x101a80
  1005ae:	e8 79 0a 00 00       	call   10102c <printf>
  1005b3:	83 c4 20             	add    $0x20,%esp
  1005b6:	8b 4d b0             	mov    -0x50(%ebp),%ecx
  1005b9:	81 f9 0e 10 00 00    	cmp    $0x100e,%ecx
  1005bf:	75 93                	jne    100554 <devscan+0x140>
  1005c1:	66 81 ff 86 80       	cmp    $0x8086,%di
  1005c6:	75 8c                	jne    100554 <devscan+0x140>
  1005c8:	83 ec 0c             	sub    $0xc,%esp
  1005cb:	68 a4 1a 10 00       	push   $0x101aa4
  1005d0:	e8 57 0a 00 00       	call   10102c <printf>
  1005d5:	83 c4 10             	add    $0x10,%esp
  1005d8:	e9 77 ff ff ff       	jmp    100554 <devscan+0x140>
  1005dd:	ff 45 ac             	incl   -0x54(%ebp)
  1005e0:	8b 45 ac             	mov    -0x54(%ebp),%eax
  1005e3:	3d 00 01 00 00       	cmp    $0x100,%eax
  1005e8:	0f 85 57 ff ff ff    	jne    100545 <devscan+0x131>
  1005ee:	83 ec 0c             	sub    $0xc,%esp
  1005f1:	68 43 1a 10 00       	push   $0x101a43
  1005f6:	e8 31 0a 00 00       	call   10102c <printf>
  1005fb:	83 c4 10             	add    $0x10,%esp
  1005fe:	eb fe                	jmp    1005fe <devscan+0x1ea>

00100600 <simple_trap>:
  100600:	55                   	push   %ebp
  100601:	89 e5                	mov    %esp,%ebp
  100603:	83 ec 08             	sub    $0x8,%esp
  100606:	8b 45 08             	mov    0x8(%ebp),%eax
  100609:	83 f8 03             	cmp    $0x3,%eax
  10060c:	74 12                	je     100620 <simple_trap+0x20>
  10060e:	83 f8 05             	cmp    $0x5,%eax
  100611:	74 41                	je     100654 <simple_trap+0x54>
  100613:	83 f8 02             	cmp    $0x2,%eax
  100616:	74 24                	je     10063c <simple_trap+0x3c>
  100618:	8b 45 18             	mov    0x18(%ebp),%eax
  10061b:	c9                   	leave  
  10061c:	c3                   	ret    
  10061d:	8d 76 00             	lea    0x0(%esi),%esi
  100620:	83 ec 0c             	sub    $0xc,%esp
  100623:	68 09 1b 10 00       	push   $0x101b09
  100628:	e8 ff 09 00 00       	call   10102c <printf>
  10062d:	e8 0a 0b 00 00       	call   10113c <read_key>
  100632:	83 c4 10             	add    $0x10,%esp
  100635:	8b 45 18             	mov    0x18(%ebp),%eax
  100638:	c9                   	leave  
  100639:	c3                   	ret    
  10063a:	66 90                	xchg   %ax,%ax
  10063c:	83 ec 0c             	sub    $0xc,%esp
  10063f:	68 a6 12 10 00       	push   $0x1012a6
  100644:	e8 e3 09 00 00       	call   10102c <printf>
  100649:	83 c4 10             	add    $0x10,%esp
  10064c:	8b 45 18             	mov    0x18(%ebp),%eax
  10064f:	c9                   	leave  
  100650:	c3                   	ret    
  100651:	8d 76 00             	lea    0x0(%esi),%esi
  100654:	83 ec 0c             	sub    $0xc,%esp
  100657:	68 ca 1a 10 00       	push   $0x101aca
  10065c:	e8 cb 09 00 00       	call   10102c <printf>
  100661:	83 c4 10             	add    $0x10,%esp
  100664:	8b 45 18             	mov    0x18(%ebp),%eax
  100667:	c9                   	leave  
  100668:	c3                   	ret    
  100669:	8d 76 00             	lea    0x0(%esi),%esi

0010066c <hello_intr>:
  10066c:	55                   	push   %ebp
  10066d:	89 e5                	mov    %esp,%ebp
  10066f:	83 ec 24             	sub    $0x24,%esp
  100672:	68 cc 1a 10 00       	push   $0x101acc
  100677:	e8 b0 09 00 00       	call   10102c <printf>
  10067c:	c7 04 24 e4 1a 10 00 	movl   $0x101ae4,(%esp)
  100683:	e8 a4 09 00 00       	call   10102c <printf>
  100688:	c7 04 24 01 00 00 00 	movl   $0x1,(%esp)
  10068f:	e8 5c 07 00 00       	call   100df0 <_intr_write>
  100694:	83 c4 10             	add    $0x10,%esp
  100697:	90                   	nop
  100698:	c7 45 f4 00 00 00 00 	movl   $0x0,-0xc(%ebp)
  10069f:	8b 45 f4             	mov    -0xc(%ebp),%eax
  1006a2:	3d 7f 96 98 00       	cmp    $0x98967f,%eax
  1006a7:	7f 11                	jg     1006ba <hello_intr+0x4e>
  1006a9:	8b 45 f4             	mov    -0xc(%ebp),%eax
  1006ac:	40                   	inc    %eax
  1006ad:	89 45 f4             	mov    %eax,-0xc(%ebp)
  1006b0:	8b 45 f4             	mov    -0xc(%ebp),%eax
  1006b3:	3d 7f 96 98 00       	cmp    $0x98967f,%eax
  1006b8:	7e ef                	jle    1006a9 <hello_intr+0x3d>
  1006ba:	e8 2d 07 00 00       	call   100dec <_yield>
  1006bf:	eb d7                	jmp    100698 <hello_intr+0x2c>
  1006c1:	66 90                	xchg   %ax,%ax
  1006c3:	90                   	nop

001006c4 <mp_print>:
  1006c4:	55                   	push   %ebp
  1006c5:	89 e5                	mov    %esp,%ebp
  1006c7:	83 ec 08             	sub    $0x8,%esp
  1006ca:	66 90                	xchg   %ax,%ax
  1006cc:	e8 67 08 00 00       	call   100f38 <_cpu>
  1006d1:	83 ec 08             	sub    $0x8,%esp
  1006d4:	50                   	push   %eax
  1006d5:	68 08 1b 10 00       	push   $0x101b08
  1006da:	e8 4d 09 00 00       	call   10102c <printf>
  1006df:	83 c4 10             	add    $0x10,%esp
  1006e2:	eb e8                	jmp    1006cc <mp_print+0x8>

001006e4 <rtc_test>:
  1006e4:	55                   	push   %ebp
  1006e5:	89 e5                	mov    %esp,%ebp
  1006e7:	57                   	push   %edi
  1006e8:	56                   	push   %esi
  1006e9:	53                   	push   %ebx
  1006ea:	83 ec 2c             	sub    $0x2c,%esp
  1006ed:	e8 7a 03 00 00       	call   100a6c <_ioe_init>
  1006f2:	bb e8 03 00 00       	mov    $0x3e8,%ebx
  1006f7:	be 01 00 00 00       	mov    $0x1,%esi
  1006fc:	8d 7d d0             	lea    -0x30(%ebp),%edi
  1006ff:	90                   	nop
  100700:	e8 fb 09 00 00       	call   101100 <uptime>
  100705:	39 d8                	cmp    %ebx,%eax
  100707:	72 f7                	jb     100700 <rtc_test+0x1c>
  100709:	83 ec 0c             	sub    $0xc,%esp
  10070c:	57                   	push   %edi
  10070d:	e8 0e 0a 00 00       	call   101120 <get_timeofday>
  100712:	83 c4 0c             	add    $0xc,%esp
  100715:	ff 75 e4             	pushl  -0x1c(%ebp)
  100718:	ff 75 e0             	pushl  -0x20(%ebp)
  10071b:	ff 75 dc             	pushl  -0x24(%ebp)
  10071e:	ff 75 d8             	pushl  -0x28(%ebp)
  100721:	ff 75 d4             	pushl  -0x2c(%ebp)
  100724:	ff 75 d0             	pushl  -0x30(%ebp)
  100727:	68 0b 1b 10 00       	push   $0x101b0b
  10072c:	e8 fb 08 00 00       	call   10102c <printf>
  100731:	83 c4 20             	add    $0x20,%esp
  100734:	83 fe 01             	cmp    $0x1,%esi
  100737:	75 1b                	jne    100754 <rtc_test+0x70>
  100739:	83 ec 08             	sub    $0x8,%esp
  10073c:	6a 01                	push   $0x1
  10073e:	68 29 1b 10 00       	push   $0x101b29
  100743:	e8 e4 08 00 00       	call   10102c <printf>
  100748:	83 c4 10             	add    $0x10,%esp
  10074b:	46                   	inc    %esi
  10074c:	81 c3 e8 03 00 00    	add    $0x3e8,%ebx
  100752:	eb ac                	jmp    100700 <rtc_test+0x1c>
  100754:	83 ec 08             	sub    $0x8,%esp
  100757:	56                   	push   %esi
  100758:	68 36 1b 10 00       	push   $0x101b36
  10075d:	e8 ca 08 00 00       	call   10102c <printf>
  100762:	83 c4 10             	add    $0x10,%esp
  100765:	eb e4                	jmp    10074b <rtc_test+0x67>
  100767:	90                   	nop

00100768 <hello>:
  100768:	55                   	push   %ebp
  100769:	89 e5                	mov    %esp,%ebp
  10076b:	57                   	push   %edi
  10076c:	56                   	push   %esi
  10076d:	53                   	push   %ebx
  10076e:	83 ec 0c             	sub    $0xc,%esp
  100771:	bf 0a 00 00 00       	mov    $0xa,%edi
  100776:	66 90                	xchg   %ax,%ax
  100778:	b3 65                	mov    $0x65,%bl
  10077a:	be cc 1a 10 00       	mov    $0x101acc,%esi
  10077f:	b8 48 00 00 00       	mov    $0x48,%eax
  100784:	eb 08                	jmp    10078e <hello+0x26>
  100786:	66 90                	xchg   %ax,%ax
  100788:	0f be c3             	movsbl %bl,%eax
  10078b:	8a 5e 01             	mov    0x1(%esi),%bl
  10078e:	83 ec 0c             	sub    $0xc,%esp
  100791:	50                   	push   %eax
  100792:	e8 a1 02 00 00       	call   100a38 <_putc>
  100797:	46                   	inc    %esi
  100798:	83 c4 10             	add    $0x10,%esp
  10079b:	84 db                	test   %bl,%bl
  10079d:	75 e9                	jne    100788 <hello+0x20>
  10079f:	4f                   	dec    %edi
  1007a0:	75 d6                	jne    100778 <hello+0x10>
  1007a2:	8d 65 f4             	lea    -0xc(%ebp),%esp
  1007a5:	5b                   	pop    %ebx
  1007a6:	5e                   	pop    %esi
  1007a7:	5f                   	pop    %edi
  1007a8:	5d                   	pop    %ebp
  1007a9:	c3                   	ret    
  1007aa:	66 90                	xchg   %ax,%ax

001007ac <redraw>:
  1007ac:	55                   	push   %ebp
  1007ad:	89 e5                	mov    %esp,%ebp
  1007af:	57                   	push   %edi
  1007b0:	56                   	push   %esi
  1007b1:	53                   	push   %ebx
  1007b2:	83 ec 1c             	sub    $0x1c,%esp
  1007b5:	e8 3a 0a 00 00       	call   1011f4 <screen_width>
  1007ba:	85 c0                	test   %eax,%eax
  1007bc:	79 03                	jns    1007c1 <redraw+0x15>
  1007be:	83 c0 1f             	add    $0x1f,%eax
  1007c1:	c1 f8 05             	sar    $0x5,%eax
  1007c4:	89 45 e4             	mov    %eax,-0x1c(%ebp)
  1007c7:	e8 48 0a 00 00       	call   101214 <screen_height>
  1007cc:	85 c0                	test   %eax,%eax
  1007ce:	79 03                	jns    1007d3 <redraw+0x27>
  1007d0:	83 c0 1f             	add    $0x1f,%eax
  1007d3:	c1 f8 05             	sar    $0x5,%eax
  1007d6:	89 45 d8             	mov    %eax,-0x28(%ebp)
  1007d9:	8b 5d e4             	mov    -0x1c(%ebp),%ebx
  1007dc:	0f af d8             	imul   %eax,%ebx
  1007df:	81 fb 00 04 00 00    	cmp    $0x400,%ebx
  1007e5:	77 74                	ja     10085b <redraw+0xaf>
  1007e7:	c7 45 e0 e0 50 10 00 	movl   $0x1050e0,-0x20(%ebp)
  1007ee:	c7 45 dc 00 00 00 00 	movl   $0x0,-0x24(%ebp)
  1007f5:	8b 45 e0             	mov    -0x20(%ebp),%eax
  1007f8:	8d 78 80             	lea    -0x80(%eax),%edi
  1007fb:	31 f6                	xor    %esi,%esi
  1007fd:	8d 76 00             	lea    0x0(%esi),%esi
  100800:	85 db                	test   %ebx,%ebx
  100802:	74 10                	je     100814 <redraw+0x68>
  100804:	8b 17                	mov    (%edi),%edx
  100806:	31 c0                	xor    %eax,%eax
  100808:	89 14 85 60 30 10 00 	mov    %edx,0x103060(,%eax,4)
  10080f:	40                   	inc    %eax
  100810:	39 c3                	cmp    %eax,%ebx
  100812:	75 f4                	jne    100808 <redraw+0x5c>
  100814:	83 ec 0c             	sub    $0xc,%esp
  100817:	ff 75 d8             	pushl  -0x28(%ebp)
  10081a:	ff 75 e4             	pushl  -0x1c(%ebp)
  10081d:	ff 75 dc             	pushl  -0x24(%ebp)
  100820:	56                   	push   %esi
  100821:	68 60 30 10 00       	push   $0x103060
  100826:	e8 3d 09 00 00       	call   101168 <draw_rect>
  10082b:	03 75 e4             	add    -0x1c(%ebp),%esi
  10082e:	83 c7 04             	add    $0x4,%edi
  100831:	83 c4 20             	add    $0x20,%esp
  100834:	3b 7d e0             	cmp    -0x20(%ebp),%edi
  100837:	75 c7                	jne    100800 <redraw+0x54>
  100839:	8b 4d d8             	mov    -0x28(%ebp),%ecx
  10083c:	01 4d dc             	add    %ecx,-0x24(%ebp)
  10083f:	8d 87 80 00 00 00    	lea    0x80(%edi),%eax
  100845:	89 45 e0             	mov    %eax,-0x20(%ebp)
  100848:	3d e0 60 10 00       	cmp    $0x1060e0,%eax
  10084d:	75 a6                	jne    1007f5 <redraw+0x49>
  10084f:	8d 65 f4             	lea    -0xc(%ebp),%esp
  100852:	5b                   	pop    %ebx
  100853:	5e                   	pop    %esi
  100854:	5f                   	pop    %edi
  100855:	5d                   	pop    %ebp
  100856:	e9 51 09 00 00       	jmp    1011ac <draw_sync>
  10085b:	50                   	push   %eax
  10085c:	6a 16                	push   $0x16
  10085e:	68 44 1b 10 00       	push   $0x101b44
  100863:	68 d4 17 10 00       	push   $0x1017d4
  100868:	e8 bf 07 00 00       	call   10102c <printf>
  10086d:	c7 04 24 01 00 00 00 	movl   $0x1,(%esp)
  100874:	e8 cf 01 00 00       	call   100a48 <_halt>
  100879:	8d 76 00             	lea    0x0(%esi),%esi

0010087c <update>:
  10087c:	55                   	push   %ebp
  10087d:	89 e5                	mov    %esp,%ebp
  10087f:	57                   	push   %edi
  100880:	56                   	push   %esi
  100881:	53                   	push   %ebx
  100882:	83 ec 10             	sub    $0x10,%esp
  100885:	a1 40 30 10 00       	mov    0x103040,%eax
  10088a:	40                   	inc    %eax
  10088b:	89 45 e8             	mov    %eax,-0x18(%ebp)
  10088e:	a3 40 30 10 00       	mov    %eax,0x103040
  100893:	ba e0 40 10 00       	mov    $0x1040e0,%edx
  100898:	b9 e0 50 10 00       	mov    $0x1050e0,%ecx
  10089d:	8d 76 00             	lea    0x0(%esi),%esi
  1008a0:	8d 42 80             	lea    -0x80(%edx),%eax
  1008a3:	90                   	nop
  1008a4:	c7 00 00 00 00 00    	movl   $0x0,(%eax)
  1008aa:	83 c0 04             	add    $0x4,%eax
  1008ad:	39 d0                	cmp    %edx,%eax
  1008af:	75 f3                	jne    1008a4 <update+0x28>
  1008b1:	8d 90 80 00 00 00    	lea    0x80(%eax),%edx
  1008b7:	39 d1                	cmp    %edx,%ecx
  1008b9:	75 e5                	jne    1008a0 <update+0x24>
  1008bb:	8b 4d e8             	mov    -0x18(%ebp),%ecx
  1008be:	88 c8                	mov    %cl,%al
  1008c0:	8d 04 40             	lea    (%eax,%eax,2),%eax
  1008c3:	d1 e0                	shl    %eax
  1008c5:	0f b6 c0             	movzbl %al,%eax
  1008c8:	c1 e0 10             	shl    $0x10,%eax
  1008cb:	89 ce                	mov    %ecx,%esi
  1008cd:	8d 14 f5 00 00 00 00 	lea    0x0(,%esi,8),%edx
  1008d4:	29 ca                	sub    %ecx,%edx
  1008d6:	0f b6 d2             	movzbl %dl,%edx
  1008d9:	c1 e2 08             	shl    $0x8,%edx
  1008dc:	09 d0                	or     %edx,%eax
  1008de:	0f b6 d1             	movzbl %cl,%edx
  1008e1:	09 d0                	or     %edx,%eax
  1008e3:	a3 60 50 10 00       	mov    %eax,0x105060
  1008e8:	c7 05 60 40 10 00 01 	movl   $0x1,0x104060
  1008ef:	00 00 00 
  1008f2:	bb 01 00 00 00       	mov    $0x1,%ebx
  1008f7:	31 d2                	xor    %edx,%edx
  1008f9:	c7 45 f0 01 00 00 00 	movl   $0x1,-0x10(%ebp)
  100900:	31 c0                	xor    %eax,%eax
  100902:	c7 45 ec 00 00 00 00 	movl   $0x0,-0x14(%ebp)
  100909:	31 f6                	xor    %esi,%esi
  10090b:	90                   	nop
  10090c:	b9 04 00 00 00       	mov    $0x4,%ecx
  100911:	01 f2                	add    %esi,%edx
  100913:	83 fa 1f             	cmp    $0x1f,%edx
  100916:	77 19                	ja     100931 <update+0xb5>
  100918:	03 5d ec             	add    -0x14(%ebp),%ebx
  10091b:	83 fb 1f             	cmp    $0x1f,%ebx
  10091e:	77 11                	ja     100931 <update+0xb5>
  100920:	89 d7                	mov    %edx,%edi
  100922:	c1 e7 05             	shl    $0x5,%edi
  100925:	01 df                	add    %ebx,%edi
  100927:	83 3c bd 60 40 10 00 	cmpl   $0x0,0x104060(,%edi,4)
  10092e:	00 
  10092f:	74 41                	je     100972 <update+0xf6>
  100931:	40                   	inc    %eax
  100932:	83 e0 03             	and    $0x3,%eax
  100935:	49                   	dec    %ecx
  100936:	74 1c                	je     100954 <update+0xd8>
  100938:	8b 14 85 a0 1b 10 00 	mov    0x101ba0(,%eax,4),%edx
  10093f:	8b 1c 85 90 1b 10 00 	mov    0x101b90(,%eax,4),%ebx
  100946:	01 f2                	add    %esi,%edx
  100948:	83 fa 1f             	cmp    $0x1f,%edx
  10094b:	76 cb                	jbe    100918 <update+0x9c>
  10094d:	40                   	inc    %eax
  10094e:	83 e0 03             	and    $0x3,%eax
  100951:	49                   	dec    %ecx
  100952:	75 e4                	jne    100938 <update+0xbc>
  100954:	ff 45 f0             	incl   -0x10(%ebp)
  100957:	8b 7d f0             	mov    -0x10(%ebp),%edi
  10095a:	81 ff 00 04 00 00    	cmp    $0x400,%edi
  100960:	74 68                	je     1009ca <update+0x14e>
  100962:	8b 14 85 a0 1b 10 00 	mov    0x101ba0(,%eax,4),%edx
  100969:	8b 1c 85 90 1b 10 00 	mov    0x101b90(,%eax,4),%ebx
  100970:	eb 9a                	jmp    10090c <update+0x90>
  100972:	89 55 e4             	mov    %edx,-0x1c(%ebp)
  100975:	c7 04 bd 60 40 10 00 	movl   $0x1,0x104060(,%edi,4)
  10097c:	01 00 00 00 
  100980:	8b 75 f0             	mov    -0x10(%ebp),%esi
  100983:	d1 fe                	sar    %esi
  100985:	03 75 e8             	add    -0x18(%ebp),%esi
  100988:	8d 0c 76             	lea    (%esi,%esi,2),%ecx
  10098b:	d1 e1                	shl    %ecx
  10098d:	0f b6 c9             	movzbl %cl,%ecx
  100990:	c1 e1 10             	shl    $0x10,%ecx
  100993:	89 4d ec             	mov    %ecx,-0x14(%ebp)
  100996:	8d 0c f5 00 00 00 00 	lea    0x0(,%esi,8),%ecx
  10099d:	89 f2                	mov    %esi,%edx
  10099f:	29 d1                	sub    %edx,%ecx
  1009a1:	0f b6 c9             	movzbl %cl,%ecx
  1009a4:	c1 e1 08             	shl    $0x8,%ecx
  1009a7:	0b 4d ec             	or     -0x14(%ebp),%ecx
  1009aa:	0f b6 f2             	movzbl %dl,%esi
  1009ad:	09 f1                	or     %esi,%ecx
  1009af:	89 0c bd 60 50 10 00 	mov    %ecx,0x105060(,%edi,4)
  1009b6:	89 5d ec             	mov    %ebx,-0x14(%ebp)
  1009b9:	8b 75 e4             	mov    -0x1c(%ebp),%esi
  1009bc:	ff 45 f0             	incl   -0x10(%ebp)
  1009bf:	8b 7d f0             	mov    -0x10(%ebp),%edi
  1009c2:	81 ff 00 04 00 00    	cmp    $0x400,%edi
  1009c8:	75 98                	jne    100962 <update+0xe6>
  1009ca:	83 c4 10             	add    $0x10,%esp
  1009cd:	5b                   	pop    %ebx
  1009ce:	5e                   	pop    %esi
  1009cf:	5f                   	pop    %edi
  1009d0:	5d                   	pop    %ebp
  1009d1:	c3                   	ret    
  1009d2:	66 90                	xchg   %ax,%ax

001009d4 <video_test>:
  1009d4:	55                   	push   %ebp
  1009d5:	89 e5                	mov    %esp,%ebp
  1009d7:	57                   	push   %edi
  1009d8:	56                   	push   %esi
  1009d9:	53                   	push   %ebx
  1009da:	83 ec 1c             	sub    $0x1c,%esp
  1009dd:	31 ff                	xor    %edi,%edi
  1009df:	31 f6                	xor    %esi,%esi
  1009e1:	c7 45 e4 00 00 00 00 	movl   $0x0,-0x1c(%ebp)
  1009e8:	e8 13 07 00 00       	call   101100 <uptime>
  1009ed:	89 c3                	mov    %eax,%ebx
  1009ef:	2b 45 e4             	sub    -0x1c(%ebp),%eax
  1009f2:	83 f8 21             	cmp    $0x21,%eax
  1009f5:	77 2e                	ja     100a25 <video_test+0x51>
  1009f7:	89 d8                	mov    %ebx,%eax
  1009f9:	29 f0                	sub    %esi,%eax
  1009fb:	3d e8 03 00 00       	cmp    $0x3e8,%eax
  100a00:	76 e6                	jbe    1009e8 <video_test+0x14>
  100a02:	50                   	push   %eax
  100a03:	57                   	push   %edi
  100a04:	53                   	push   %ebx
  100a05:	68 80 1b 10 00       	push   $0x101b80
  100a0a:	e8 1d 06 00 00       	call   10102c <printf>
  100a0f:	83 c4 10             	add    $0x10,%esp
  100a12:	89 de                	mov    %ebx,%esi
  100a14:	31 ff                	xor    %edi,%edi
  100a16:	e8 e5 06 00 00       	call   101100 <uptime>
  100a1b:	89 c3                	mov    %eax,%ebx
  100a1d:	2b 45 e4             	sub    -0x1c(%ebp),%eax
  100a20:	83 f8 21             	cmp    $0x21,%eax
  100a23:	76 d2                	jbe    1009f7 <video_test+0x23>
  100a25:	e8 52 fe ff ff       	call   10087c <update>
  100a2a:	e8 7d fd ff ff       	call   1007ac <redraw>
  100a2f:	47                   	inc    %edi
  100a30:	89 5d e4             	mov    %ebx,-0x1c(%ebp)
  100a33:	eb c2                	jmp    1009f7 <video_test+0x23>
  100a35:	66 90                	xchg   %ax,%ax
  100a37:	90                   	nop

00100a38 <_putc>:
  100a38:	55                   	push   %ebp
  100a39:	89 e5                	mov    %esp,%ebp
  100a3b:	8b 45 08             	mov    0x8(%ebp),%eax
  100a3e:	ba f8 03 00 00       	mov    $0x3f8,%edx
  100a43:	ee                   	out    %al,(%dx)
  100a44:	5d                   	pop    %ebp
  100a45:	c3                   	ret    
  100a46:	66 90                	xchg   %ax,%ax

00100a48 <_halt>:
  100a48:	55                   	push   %ebp
  100a49:	89 e5                	mov    %esp,%ebp
  100a4b:	8b 45 08             	mov    0x8(%ebp),%eax
  100a4e:	d6                   	(bad)  
  100a4f:	eb fe                	jmp    100a4f <_halt+0x7>
  100a51:	66 90                	xchg   %ax,%ax
  100a53:	90                   	nop

00100a54 <_trm_init>:
  100a54:	55                   	push   %ebp
  100a55:	89 e5                	mov    %esp,%ebp
  100a57:	83 ec 14             	sub    $0x14,%esp
  100a5a:	68 00 00 00 00       	push   $0x0
  100a5f:	e8 ac f5 ff ff       	call   100010 <main>
  100a64:	d6                   	(bad)  
  100a65:	83 c4 10             	add    $0x10,%esp
  100a68:	eb fe                	jmp    100a68 <_trm_init+0x14>
  100a6a:	66 90                	xchg   %ax,%ax

00100a6c <_ioe_init>:
  100a6c:	55                   	push   %ebp
  100a6d:	89 e5                	mov    %esp,%ebp
  100a6f:	83 ec 08             	sub    $0x8,%esp
  100a72:	e8 19 02 00 00       	call   100c90 <__am_vga_init>
  100a77:	e8 34 01 00 00       	call   100bb0 <__am_timer_init>
  100a7c:	31 c0                	xor    %eax,%eax
  100a7e:	c9                   	leave  
  100a7f:	c3                   	ret    

00100a80 <_io_read>:
  100a80:	55                   	push   %ebp
  100a81:	89 e5                	mov    %esp,%ebp
  100a83:	53                   	push   %ebx
  100a84:	8b 45 08             	mov    0x8(%ebp),%eax
  100a87:	8b 55 0c             	mov    0xc(%ebp),%edx
  100a8a:	8b 4d 10             	mov    0x10(%ebp),%ecx
  100a8d:	8b 5d 14             	mov    0x14(%ebp),%ebx
  100a90:	3d 03 ac 00 00       	cmp    $0xac03,%eax
  100a95:	74 15                	je     100aac <_io_read+0x2c>
  100a97:	3d 04 ac 00 00       	cmp    $0xac04,%eax
  100a9c:	74 2e                	je     100acc <_io_read+0x4c>
  100a9e:	3d 02 ac 00 00       	cmp    $0xac02,%eax
  100aa3:	74 17                	je     100abc <_io_read+0x3c>
  100aa5:	31 c0                	xor    %eax,%eax
  100aa7:	5b                   	pop    %ebx
  100aa8:	5d                   	pop    %ebp
  100aa9:	c3                   	ret    
  100aaa:	66 90                	xchg   %ax,%ax
  100aac:	89 5d 10             	mov    %ebx,0x10(%ebp)
  100aaf:	89 4d 0c             	mov    %ecx,0xc(%ebp)
  100ab2:	89 55 08             	mov    %edx,0x8(%ebp)
  100ab5:	5b                   	pop    %ebx
  100ab6:	5d                   	pop    %ebp
  100ab7:	e9 90 00 00 00       	jmp    100b4c <__am_timer_read>
  100abc:	89 5d 10             	mov    %ebx,0x10(%ebp)
  100abf:	89 4d 0c             	mov    %ecx,0xc(%ebp)
  100ac2:	89 55 08             	mov    %edx,0x8(%ebp)
  100ac5:	5b                   	pop    %ebx
  100ac6:	5d                   	pop    %ebp
  100ac7:	e9 3c 00 00 00       	jmp    100b08 <__am_input_read>
  100acc:	89 5d 10             	mov    %ebx,0x10(%ebp)
  100acf:	89 4d 0c             	mov    %ecx,0xc(%ebp)
  100ad2:	89 55 08             	mov    %edx,0x8(%ebp)
  100ad5:	5b                   	pop    %ebx
  100ad6:	5d                   	pop    %ebp
  100ad7:	e9 e0 00 00 00       	jmp    100bbc <__am_video_read>

00100adc <_io_write>:
  100adc:	55                   	push   %ebp
  100add:	89 e5                	mov    %esp,%ebp
  100adf:	8b 45 0c             	mov    0xc(%ebp),%eax
  100ae2:	8b 55 10             	mov    0x10(%ebp),%edx
  100ae5:	8b 4d 14             	mov    0x14(%ebp),%ecx
  100ae8:	81 7d 08 04 ac 00 00 	cmpl   $0xac04,0x8(%ebp)
  100aef:	74 07                	je     100af8 <_io_write+0x1c>
  100af1:	31 c0                	xor    %eax,%eax
  100af3:	5d                   	pop    %ebp
  100af4:	c3                   	ret    
  100af5:	8d 76 00             	lea    0x0(%esi),%esi
  100af8:	89 4d 10             	mov    %ecx,0x10(%ebp)
  100afb:	89 55 0c             	mov    %edx,0xc(%ebp)
  100afe:	89 45 08             	mov    %eax,0x8(%ebp)
  100b01:	5d                   	pop    %ebp
  100b02:	e9 dd 00 00 00       	jmp    100be4 <__am_video_write>
  100b07:	90                   	nop

00100b08 <__am_input_read>:
  100b08:	55                   	push   %ebp
  100b09:	89 e5                	mov    %esp,%ebp
  100b0b:	83 7d 08 01          	cmpl   $0x1,0x8(%ebp)
  100b0f:	74 07                	je     100b18 <__am_input_read+0x10>
  100b11:	31 c0                	xor    %eax,%eax
  100b13:	5d                   	pop    %ebp
  100b14:	c3                   	ret    
  100b15:	8d 76 00             	lea    0x0(%esi),%esi
  100b18:	ba 60 00 00 00       	mov    $0x60,%edx
  100b1d:	ed                   	in     (%dx),%eax
  100b1e:	8b 4d 0c             	mov    0xc(%ebp),%ecx
  100b21:	89 41 04             	mov    %eax,0x4(%ecx)
  100b24:	f6 c4 80             	test   $0x80,%ah
  100b27:	74 13                	je     100b3c <__am_input_read+0x34>
  100b29:	80 f4 80             	xor    $0x80,%ah
  100b2c:	89 41 04             	mov    %eax,0x4(%ecx)
  100b2f:	c7 01 01 00 00 00    	movl   $0x1,(%ecx)
  100b35:	b8 08 00 00 00       	mov    $0x8,%eax
  100b3a:	5d                   	pop    %ebp
  100b3b:	c3                   	ret    
  100b3c:	8b 45 0c             	mov    0xc(%ebp),%eax
  100b3f:	c7 00 00 00 00 00    	movl   $0x0,(%eax)
  100b45:	b8 08 00 00 00       	mov    $0x8,%eax
  100b4a:	5d                   	pop    %ebp
  100b4b:	c3                   	ret    

00100b4c <__am_timer_read>:
  100b4c:	55                   	push   %ebp
  100b4d:	89 e5                	mov    %esp,%ebp
  100b4f:	8b 45 08             	mov    0x8(%ebp),%eax
  100b52:	8b 4d 0c             	mov    0xc(%ebp),%ecx
  100b55:	83 f8 01             	cmp    $0x1,%eax
  100b58:	74 3a                	je     100b94 <__am_timer_read+0x48>
  100b5a:	83 f8 02             	cmp    $0x2,%eax
  100b5d:	75 31                	jne    100b90 <__am_timer_read+0x44>
  100b5f:	c7 41 14 00 00 00 00 	movl   $0x0,0x14(%ecx)
  100b66:	c7 41 10 00 00 00 00 	movl   $0x0,0x10(%ecx)
  100b6d:	c7 41 0c 00 00 00 00 	movl   $0x0,0xc(%ecx)
  100b74:	c7 41 08 00 00 00 00 	movl   $0x0,0x8(%ecx)
  100b7b:	c7 41 04 00 00 00 00 	movl   $0x0,0x4(%ecx)
  100b82:	c7 01 d0 07 00 00    	movl   $0x7d0,(%ecx)
  100b88:	b8 18 00 00 00       	mov    $0x18,%eax
  100b8d:	5d                   	pop    %ebp
  100b8e:	c3                   	ret    
  100b8f:	90                   	nop
  100b90:	31 c0                	xor    %eax,%eax
  100b92:	5d                   	pop    %ebp
  100b93:	c3                   	ret    
  100b94:	c7 01 00 00 00 00    	movl   $0x0,(%ecx)
  100b9a:	ba 48 00 00 00       	mov    $0x48,%edx
  100b9f:	ed                   	in     (%dx),%eax
  100ba0:	2b 05 00 80 16 00    	sub    0x168000,%eax
  100ba6:	89 41 04             	mov    %eax,0x4(%ecx)
  100ba9:	b8 08 00 00 00       	mov    $0x8,%eax
  100bae:	5d                   	pop    %ebp
  100baf:	c3                   	ret    

00100bb0 <__am_timer_init>:
  100bb0:	ba 48 00 00 00       	mov    $0x48,%edx
  100bb5:	ed                   	in     (%dx),%eax
  100bb6:	a3 00 80 16 00       	mov    %eax,0x168000
  100bbb:	c3                   	ret    

00100bbc <__am_video_read>:
  100bbc:	55                   	push   %ebp
  100bbd:	89 e5                	mov    %esp,%ebp
  100bbf:	83 7d 08 01          	cmpl   $0x1,0x8(%ebp)
  100bc3:	74 07                	je     100bcc <__am_video_read+0x10>
  100bc5:	31 c0                	xor    %eax,%eax
  100bc7:	5d                   	pop    %ebp
  100bc8:	c3                   	ret    
  100bc9:	8d 76 00             	lea    0x0(%esi),%esi
  100bcc:	8b 45 0c             	mov    0xc(%ebp),%eax
  100bcf:	c7 00 90 01 00 00    	movl   $0x190,(%eax)
  100bd5:	c7 40 04 2c 01 00 00 	movl   $0x12c,0x4(%eax)
  100bdc:	b8 08 00 00 00       	mov    $0x8,%eax
  100be1:	5d                   	pop    %ebp
  100be2:	c3                   	ret    
  100be3:	90                   	nop

00100be4 <__am_video_write>:
  100be4:	55                   	push   %ebp
  100be5:	89 e5                	mov    %esp,%ebp
  100be7:	57                   	push   %edi
  100be8:	56                   	push   %esi
  100be9:	53                   	push   %ebx
  100bea:	83 ec 1c             	sub    $0x1c,%esp
  100bed:	83 7d 08 02          	cmpl   $0x2,0x8(%ebp)
  100bf1:	74 0d                	je     100c00 <__am_video_write+0x1c>
  100bf3:	31 c0                	xor    %eax,%eax
  100bf5:	8d 65 f4             	lea    -0xc(%ebp),%esp
  100bf8:	5b                   	pop    %ebx
  100bf9:	5e                   	pop    %esi
  100bfa:	5f                   	pop    %edi
  100bfb:	5d                   	pop    %ebp
  100bfc:	c3                   	ret    
  100bfd:	8d 76 00             	lea    0x0(%esi),%esi
  100c00:	8b 45 0c             	mov    0xc(%ebp),%eax
  100c03:	8b 08                	mov    (%eax),%ecx
  100c05:	8b 50 04             	mov    0x4(%eax),%edx
  100c08:	8b 40 10             	mov    0x10(%eax),%eax
  100c0b:	8b 5d 0c             	mov    0xc(%ebp),%ebx
  100c0e:	8b 73 08             	mov    0x8(%ebx),%esi
  100c11:	8b 5b 0c             	mov    0xc(%ebx),%ebx
  100c14:	89 5d e4             	mov    %ebx,-0x1c(%ebp)
  100c17:	c1 e3 02             	shl    $0x2,%ebx
  100c1a:	85 c0                	test   %eax,%eax
  100c1c:	7e 47                	jle    100c65 <__am_video_write+0x81>
  100c1e:	89 55 e4             	mov    %edx,-0x1c(%ebp)
  100c21:	8d 14 92             	lea    (%edx,%edx,4),%edx
  100c24:	8d 14 92             	lea    (%edx,%edx,4),%edx
  100c27:	c1 e2 04             	shl    $0x4,%edx
  100c2a:	01 ca                	add    %ecx,%edx
  100c2c:	8d 3c 95 00 00 00 a0 	lea    -0x60000000(,%edx,4),%edi
  100c33:	03 45 e4             	add    -0x1c(%ebp),%eax
  100c36:	8d 04 80             	lea    (%eax,%eax,4),%eax
  100c39:	8d 04 80             	lea    (%eax,%eax,4),%eax
  100c3c:	c1 e0 04             	shl    $0x4,%eax
  100c3f:	8d 84 01 00 00 00 28 	lea    0x28000000(%ecx,%eax,1),%eax
  100c46:	c1 e0 02             	shl    $0x2,%eax
  100c49:	89 45 e4             	mov    %eax,-0x1c(%ebp)
  100c4c:	52                   	push   %edx
  100c4d:	53                   	push   %ebx
  100c4e:	56                   	push   %esi
  100c4f:	57                   	push   %edi
  100c50:	e8 83 04 00 00       	call   1010d8 <memcpy>
  100c55:	01 de                	add    %ebx,%esi
  100c57:	81 c7 40 06 00 00    	add    $0x640,%edi
  100c5d:	83 c4 10             	add    $0x10,%esp
  100c60:	3b 7d e4             	cmp    -0x1c(%ebp),%edi
  100c63:	75 e7                	jne    100c4c <__am_video_write+0x68>
  100c65:	8b 45 0c             	mov    0xc(%ebp),%eax
  100c68:	8b 40 14             	mov    0x14(%eax),%eax
  100c6b:	85 c0                	test   %eax,%eax
  100c6d:	74 15                	je     100c84 <__am_video_write+0xa0>
  100c6f:	31 c0                	xor    %eax,%eax
  100c71:	ba 04 01 00 00       	mov    $0x104,%edx
  100c76:	ef                   	out    %eax,(%dx)
  100c77:	8b 45 10             	mov    0x10(%ebp),%eax
  100c7a:	8d 65 f4             	lea    -0xc(%ebp),%esp
  100c7d:	5b                   	pop    %ebx
  100c7e:	5e                   	pop    %esi
  100c7f:	5f                   	pop    %edi
  100c80:	5d                   	pop    %ebp
  100c81:	c3                   	ret    
  100c82:	66 90                	xchg   %ax,%ax
  100c84:	8b 45 10             	mov    0x10(%ebp),%eax
  100c87:	8d 65 f4             	lea    -0xc(%ebp),%esp
  100c8a:	5b                   	pop    %ebx
  100c8b:	5e                   	pop    %esi
  100c8c:	5f                   	pop    %edi
  100c8d:	5d                   	pop    %ebp
  100c8e:	c3                   	ret    
  100c8f:	90                   	nop

00100c90 <__am_vga_init>:
  100c90:	55                   	push   %ebp
  100c91:	89 e5                	mov    %esp,%ebp
  100c93:	53                   	push   %ebx
  100c94:	52                   	push   %edx
  100c95:	e8 5a 05 00 00       	call   1011f4 <screen_width>
  100c9a:	89 c3                	mov    %eax,%ebx
  100c9c:	e8 73 05 00 00       	call   101214 <screen_height>
  100ca1:	0f af c3             	imul   %ebx,%eax
  100ca4:	85 c0                	test   %eax,%eax
  100ca6:	7e 19                	jle    100cc1 <__am_vga_init+0x31>
  100ca8:	8d 14 85 00 00 00 a0 	lea    -0x60000000(,%eax,4),%edx
  100caf:	b8 00 00 00 a0       	mov    $0xa0000000,%eax
  100cb4:	c7 00 00 00 00 00    	movl   $0x0,(%eax)
  100cba:	83 c0 04             	add    $0x4,%eax
  100cbd:	39 d0                	cmp    %edx,%eax
  100cbf:	75 f3                	jne    100cb4 <__am_vga_init+0x24>
  100cc1:	58                   	pop    %eax
  100cc2:	5b                   	pop    %ebx
  100cc3:	5d                   	pop    %ebp
  100cc4:	e9 e3 04 00 00       	jmp    1011ac <draw_sync>
  100cc9:	66 90                	xchg   %ax,%ax
  100ccb:	90                   	nop

00100ccc <__am_irq_handle>:
  100ccc:	55                   	push   %ebp
  100ccd:	89 e5                	mov    %esp,%ebp
  100ccf:	53                   	push   %ebx
  100cd0:	83 ec 14             	sub    $0x14,%esp
  100cd3:	8b 15 80 68 10 00    	mov    0x106880,%edx
  100cd9:	85 d2                	test   %edx,%edx
  100cdb:	74 43                	je     100d20 <__am_irq_handle+0x54>
  100cdd:	31 c9                	xor    %ecx,%ecx
  100cdf:	31 c0                	xor    %eax,%eax
  100ce1:	89 4c 05 ec          	mov    %ecx,-0x14(%ebp,%eax,1)
  100ce5:	83 c0 04             	add    $0x4,%eax
  100ce8:	83 f8 0c             	cmp    $0xc,%eax
  100ceb:	72 f4                	jb     100ce1 <__am_irq_handle+0x15>
  100ced:	c7 45 e8 01 00 00 00 	movl   $0x1,-0x18(%ebp)
  100cf4:	83 ec 0c             	sub    $0xc,%esp
  100cf7:	ff 75 08             	pushl  0x8(%ebp)
  100cfa:	83 ec 10             	sub    $0x10,%esp
  100cfd:	89 e3                	mov    %esp,%ebx
  100cff:	31 c0                	xor    %eax,%eax
  100d01:	8b 4c 05 e8          	mov    -0x18(%ebp,%eax,1),%ecx
  100d05:	89 0c 03             	mov    %ecx,(%ebx,%eax,1)
  100d08:	83 c0 04             	add    $0x4,%eax
  100d0b:	83 f8 10             	cmp    $0x10,%eax
  100d0e:	72 f1                	jb     100d01 <__am_irq_handle+0x35>
  100d10:	ff d2                	call   *%edx
  100d12:	83 c4 20             	add    $0x20,%esp
  100d15:	85 c0                	test   %eax,%eax
  100d17:	74 07                	je     100d20 <__am_irq_handle+0x54>
  100d19:	8b 5d fc             	mov    -0x4(%ebp),%ebx
  100d1c:	c9                   	leave  
  100d1d:	c3                   	ret    
  100d1e:	66 90                	xchg   %ax,%ax
  100d20:	8b 45 08             	mov    0x8(%ebp),%eax
  100d23:	8b 5d fc             	mov    -0x4(%ebp),%ebx
  100d26:	c9                   	leave  
  100d27:	c3                   	ret    

00100d28 <_cte_init>:
  100d28:	55                   	push   %ebp
  100d29:	89 e5                	mov    %esp,%ebp
  100d2b:	53                   	push   %ebx
  100d2c:	ba 03 0e 10 00       	mov    $0x100e03,%edx
  100d31:	89 d0                	mov    %edx,%eax
  100d33:	c1 e8 10             	shr    $0x10,%eax
  100d36:	89 c1                	mov    %eax,%ecx
  100d38:	31 c0                	xor    %eax,%eax
  100d3a:	bb 80 60 10 00       	mov    $0x106080,%ebx
  100d3f:	90                   	nop
  100d40:	66 89 14 c5 80 60 10 	mov    %dx,0x106080(,%eax,8)
  100d47:	00 
  100d48:	c7 04 c5 82 60 10 00 	movl   $0x8f000008,0x106082(,%eax,8)
  100d4f:	08 00 00 8f 
  100d53:	66 89 0c c5 86 60 10 	mov    %cx,0x106086(,%eax,8)
  100d5a:	00 
  100d5b:	40                   	inc    %eax
  100d5c:	3d 00 01 00 00       	cmp    $0x100,%eax
  100d61:	75 dd                	jne    100d40 <_cte_init+0x18>
  100d63:	b8 ff 0d 10 00       	mov    $0x100dff,%eax
  100d68:	66 a3 80 61 10 00    	mov    %ax,0x106180
  100d6e:	c7 05 82 61 10 00 08 	movl   $0x8e000008,0x106182
  100d75:	00 00 8e 
  100d78:	c1 e8 10             	shr    $0x10,%eax
  100d7b:	66 a3 86 61 10 00    	mov    %ax,0x106186
  100d81:	b8 f1 0d 10 00       	mov    $0x100df1,%eax
  100d86:	66 a3 80 64 10 00    	mov    %ax,0x106480
  100d8c:	c7 05 82 64 10 00 08 	movl   $0xef000008,0x106482
  100d93:	00 00 ef 
  100d96:	c1 e8 10             	shr    $0x10,%eax
  100d99:	66 a3 86 64 10 00    	mov    %ax,0x106486
  100d9f:	b8 f8 0d 10 00       	mov    $0x100df8,%eax
  100da4:	66 a3 88 64 10 00    	mov    %ax,0x106488
  100daa:	c7 05 8a 64 10 00 08 	movl   $0x8f000008,0x10648a
  100db1:	00 00 8f 
  100db4:	c1 e8 10             	shr    $0x10,%eax
  100db7:	66 a3 8e 64 10 00    	mov    %ax,0x10648e
  100dbd:	66 c7 05 60 60 10 00 	movw   $0x7ff,0x106060
  100dc4:	ff 07 
  100dc6:	66 89 1d 62 60 10 00 	mov    %bx,0x106062
  100dcd:	c1 eb 10             	shr    $0x10,%ebx
  100dd0:	66 89 1d 64 60 10 00 	mov    %bx,0x106064
  100dd7:	b8 60 60 10 00       	mov    $0x106060,%eax
  100ddc:	0f 01 18             	lidtl  (%eax)
  100ddf:	8b 45 08             	mov    0x8(%ebp),%eax
  100de2:	a3 80 68 10 00       	mov    %eax,0x106880
  100de7:	31 c0                	xor    %eax,%eax
  100de9:	5b                   	pop    %ebx
  100dea:	5d                   	pop    %ebp
  100deb:	c3                   	ret    

00100dec <_yield>:
  100dec:	cd 81                	int    $0x81
  100dee:	c3                   	ret    
  100def:	90                   	nop

00100df0 <_intr_write>:
  100df0:	c3                   	ret    

00100df1 <__am_vecsys>:
  100df1:	68 80 00 00 00       	push   $0x80
  100df6:	eb 0f                	jmp    100e07 <__am_asm_trap>

00100df8 <__am_vectrap>:
  100df8:	68 81 00 00 00       	push   $0x81
  100dfd:	eb 08                	jmp    100e07 <__am_asm_trap>

00100dff <__am_irq0>:
  100dff:	6a 20                	push   $0x20
  100e01:	eb 04                	jmp    100e07 <__am_asm_trap>

00100e03 <__am_vecnull>:
  100e03:	6a ff                	push   $0xffffffff
  100e05:	eb 00                	jmp    100e07 <__am_asm_trap>

00100e07 <__am_asm_trap>:
  100e07:	60                   	pusha  
  100e08:	6a 00                	push   $0x0
  100e0a:	54                   	push   %esp
  100e0b:	e8 bc fe ff ff       	call   100ccc <__am_irq_handle>
  100e10:	83 c4 04             	add    $0x4,%esp
  100e13:	83 c4 04             	add    $0x4,%esp
  100e16:	61                   	popa   
  100e17:	83 c4 04             	add    $0x4,%esp
  100e1a:	cf                   	iret   
  100e1b:	90                   	nop

00100e1c <_vme_init>:
  100e1c:	55                   	push   %ebp
  100e1d:	89 e5                	mov    %esp,%ebp
  100e1f:	56                   	push   %esi
  100e20:	53                   	push   %ebx
  100e21:	83 ec 10             	sub    $0x10,%esp
  100e24:	8b 45 08             	mov    0x8(%ebp),%eax
  100e27:	a3 88 68 10 00       	mov    %eax,0x106888
  100e2c:	31 c0                	xor    %eax,%eax
  100e2e:	66 90                	xchg   %ax,%ax
  100e30:	c7 04 85 00 70 16 00 	movl   $0x0,0x167000(,%eax,4)
  100e37:	00 00 00 00 
  100e3b:	40                   	inc    %eax
  100e3c:	3d 00 04 00 00       	cmp    $0x400,%eax
  100e41:	75 ed                	jne    100e30 <_vme_init+0x14>
  100e43:	31 f6                	xor    %esi,%esi
  100e45:	31 db                	xor    %ebx,%ebx
  100e47:	b8 00 70 10 00       	mov    $0x107000,%eax
  100e4c:	89 c2                	mov    %eax,%edx
  100e4e:	83 ca 01             	or     $0x1,%edx
  100e51:	89 14 9d 00 70 16 00 	mov    %edx,0x167000(,%ebx,4)
  100e58:	89 f2                	mov    %esi,%edx
  100e5a:	83 ca 01             	or     $0x1,%edx
  100e5d:	43                   	inc    %ebx
  100e5e:	81 c6 00 00 40 00    	add    $0x400000,%esi
  100e64:	89 f1                	mov    %esi,%ecx
  100e66:	83 c9 01             	or     $0x1,%ecx
  100e69:	39 ca                	cmp    %ecx,%edx
  100e6b:	73 12                	jae    100e7f <_vme_init+0x63>
  100e6d:	8d 76 00             	lea    0x0(%esi),%esi
  100e70:	89 10                	mov    %edx,(%eax)
  100e72:	83 c0 04             	add    $0x4,%eax
  100e75:	81 c2 00 10 00 00    	add    $0x1000,%edx
  100e7b:	39 d1                	cmp    %edx,%ecx
  100e7d:	77 f1                	ja     100e70 <_vme_init+0x54>
  100e7f:	83 fb 20             	cmp    $0x20,%ebx
  100e82:	75 c8                	jne    100e4c <_vme_init+0x30>
  100e84:	bb 80 02 00 00       	mov    $0x280,%ebx
  100e89:	8d 76 00             	lea    0x0(%esi),%esi
  100e8c:	89 c2                	mov    %eax,%edx
  100e8e:	83 ca 01             	or     $0x1,%edx
  100e91:	89 14 9d 00 70 16 00 	mov    %edx,0x167000(,%ebx,4)
  100e98:	89 d9                	mov    %ebx,%ecx
  100e9a:	c1 e1 16             	shl    $0x16,%ecx
  100e9d:	89 ca                	mov    %ecx,%edx
  100e9f:	83 ca 01             	or     $0x1,%edx
  100ea2:	43                   	inc    %ebx
  100ea3:	81 c1 00 00 40 00    	add    $0x400000,%ecx
  100ea9:	83 c9 01             	or     $0x1,%ecx
  100eac:	39 ca                	cmp    %ecx,%edx
  100eae:	73 0f                	jae    100ebf <_vme_init+0xa3>
  100eb0:	89 10                	mov    %edx,(%eax)
  100eb2:	83 c0 04             	add    $0x4,%eax
  100eb5:	81 c2 00 10 00 00    	add    $0x1000,%edx
  100ebb:	39 d1                	cmp    %edx,%ecx
  100ebd:	77 f1                	ja     100eb0 <_vme_init+0x94>
  100ebf:	81 fb c0 02 00 00    	cmp    $0x2c0,%ebx
  100ec5:	75 c5                	jne    100e8c <_vme_init+0x70>
  100ec7:	b8 00 70 16 00       	mov    $0x167000,%eax
  100ecc:	0f 22 d8             	mov    %eax,%cr3
  100ecf:	0f 20 c0             	mov    %cr0,%eax
  100ed2:	89 45 f4             	mov    %eax,-0xc(%ebp)
  100ed5:	8b 45 f4             	mov    -0xc(%ebp),%eax
  100ed8:	0d 00 00 00 80       	or     $0x80000000,%eax
  100edd:	0f 22 c0             	mov    %eax,%cr0
  100ee0:	c7 05 84 68 10 00 01 	movl   $0x1,0x106884
  100ee7:	00 00 00 
  100eea:	31 c0                	xor    %eax,%eax
  100eec:	83 c4 10             	add    $0x10,%esp
  100eef:	5b                   	pop    %ebx
  100ef0:	5e                   	pop    %esi
  100ef1:	5d                   	pop    %ebp
  100ef2:	c3                   	ret    
  100ef3:	90                   	nop

00100ef4 <_protect>:
  100ef4:	55                   	push   %ebp
  100ef5:	89 e5                	mov    %esp,%ebp
  100ef7:	83 ec 14             	sub    $0x14,%esp
  100efa:	6a 01                	push   $0x1
  100efc:	ff 15 88 68 10 00    	call   *0x106888
  100f02:	8b 55 08             	mov    0x8(%ebp),%edx
  100f05:	89 42 0c             	mov    %eax,0xc(%edx)
  100f08:	83 c4 10             	add    $0x10,%esp
  100f0b:	31 d2                	xor    %edx,%edx
  100f0d:	8d 76 00             	lea    0x0(%esi),%esi
  100f10:	8b 0c 95 00 70 16 00 	mov    0x167000(,%edx,4),%ecx
  100f17:	89 0c 90             	mov    %ecx,(%eax,%edx,4)
  100f1a:	42                   	inc    %edx
  100f1b:	81 fa 00 04 00 00    	cmp    $0x400,%edx
  100f21:	75 ed                	jne    100f10 <_protect+0x1c>
  100f23:	31 c0                	xor    %eax,%eax
  100f25:	c9                   	leave  
  100f26:	c3                   	ret    
  100f27:	90                   	nop

00100f28 <_map>:
  100f28:	31 c0                	xor    %eax,%eax
  100f2a:	c3                   	ret    
  100f2b:	90                   	nop

00100f2c <_ucontext>:
  100f2c:	31 c0                	xor    %eax,%eax
  100f2e:	c3                   	ret    
  100f2f:	90                   	nop

00100f30 <_mpe_init>:
  100f30:	b8 01 00 00 00       	mov    $0x1,%eax
  100f35:	c3                   	ret    
  100f36:	66 90                	xchg   %ax,%ax

00100f38 <_cpu>:
  100f38:	31 c0                	xor    %eax,%eax
  100f3a:	c3                   	ret    
  100f3b:	90                   	nop

00100f3c <vsprintf>:
  100f3c:	55                   	push   %ebp
  100f3d:	89 e5                	mov    %esp,%ebp
  100f3f:	57                   	push   %edi
  100f40:	56                   	push   %esi
  100f41:	53                   	push   %ebx
  100f42:	83 ec 0c             	sub    $0xc,%esp
  100f45:	8b 7d 08             	mov    0x8(%ebp),%edi
  100f48:	8b 45 10             	mov    0x10(%ebp),%eax
  100f4b:	8b 75 0c             	mov    0xc(%ebp),%esi
  100f4e:	8a 16                	mov    (%esi),%dl
  100f50:	84 d2                	test   %dl,%dl
  100f52:	75 19                	jne    100f6d <vsprintf+0x31>
  100f54:	eb 59                	jmp    100faf <vsprintf+0x73>
  100f56:	66 90                	xchg   %ax,%ax
  100f58:	88 17                	mov    %dl,(%edi)
  100f5a:	47                   	inc    %edi
  100f5b:	89 f2                	mov    %esi,%edx
  100f5d:	8b 75 0c             	mov    0xc(%ebp),%esi
  100f60:	89 55 0c             	mov    %edx,0xc(%ebp)
  100f63:	c6 07 00             	movb   $0x0,(%edi)
  100f66:	8a 56 01             	mov    0x1(%esi),%dl
  100f69:	84 d2                	test   %dl,%dl
  100f6b:	74 42                	je     100faf <vsprintf+0x73>
  100f6d:	8b 75 0c             	mov    0xc(%ebp),%esi
  100f70:	46                   	inc    %esi
  100f71:	80 fa 25             	cmp    $0x25,%dl
  100f74:	75 e2                	jne    100f58 <vsprintf+0x1c>
  100f76:	8b 5d 0c             	mov    0xc(%ebp),%ebx
  100f79:	8a 53 01             	mov    0x1(%ebx),%dl
  100f7c:	83 45 0c 02          	addl   $0x2,0xc(%ebp)
  100f80:	80 fa 64             	cmp    $0x64,%dl
  100f83:	74 37                	je     100fbc <vsprintf+0x80>
  100f85:	80 fa 73             	cmp    $0x73,%dl
  100f88:	75 d9                	jne    100f63 <vsprintf+0x27>
  100f8a:	8d 50 04             	lea    0x4(%eax),%edx
  100f8d:	8b 08                	mov    (%eax),%ecx
  100f8f:	8a 01                	mov    (%ecx),%al
  100f91:	84 c0                	test   %al,%al
  100f93:	74 0d                	je     100fa2 <vsprintf+0x66>
  100f95:	8d 76 00             	lea    0x0(%esi),%esi
  100f98:	88 07                	mov    %al,(%edi)
  100f9a:	41                   	inc    %ecx
  100f9b:	47                   	inc    %edi
  100f9c:	8a 01                	mov    (%ecx),%al
  100f9e:	84 c0                	test   %al,%al
  100fa0:	75 f6                	jne    100f98 <vsprintf+0x5c>
  100fa2:	47                   	inc    %edi
  100fa3:	89 d0                	mov    %edx,%eax
  100fa5:	c6 07 00             	movb   $0x0,(%edi)
  100fa8:	8a 56 01             	mov    0x1(%esi),%dl
  100fab:	84 d2                	test   %dl,%dl
  100fad:	75 be                	jne    100f6d <vsprintf+0x31>
  100faf:	31 c0                	xor    %eax,%eax
  100fb1:	83 c4 0c             	add    $0xc,%esp
  100fb4:	5b                   	pop    %ebx
  100fb5:	5e                   	pop    %esi
  100fb6:	5f                   	pop    %edi
  100fb7:	5d                   	pop    %ebp
  100fb8:	c3                   	ret    
  100fb9:	8d 76 00             	lea    0x0(%esi),%esi
  100fbc:	8d 58 04             	lea    0x4(%eax),%ebx
  100fbf:	89 5d f0             	mov    %ebx,-0x10(%ebp)
  100fc2:	8b 08                	mov    (%eax),%ecx
  100fc4:	85 c9                	test   %ecx,%ecx
  100fc6:	75 0c                	jne    100fd4 <vsprintf+0x98>
  100fc8:	c6 07 30             	movb   $0x30,(%edi)
  100fcb:	47                   	inc    %edi
  100fcc:	8b 45 f0             	mov    -0x10(%ebp),%eax
  100fcf:	eb 92                	jmp    100f63 <vsprintf+0x27>
  100fd1:	8d 76 00             	lea    0x0(%esi),%esi
  100fd4:	89 cb                	mov    %ecx,%ebx
  100fd6:	31 c0                	xor    %eax,%eax
  100fd8:	89 75 e8             	mov    %esi,-0x18(%ebp)
  100fdb:	89 c6                	mov    %eax,%esi
  100fdd:	8d 76 00             	lea    0x0(%esi),%esi
  100fe0:	46                   	inc    %esi
  100fe1:	b8 67 66 66 66       	mov    $0x66666667,%eax
  100fe6:	f7 eb                	imul   %ebx
  100fe8:	89 d0                	mov    %edx,%eax
  100fea:	c1 f8 02             	sar    $0x2,%eax
  100fed:	c1 fb 1f             	sar    $0x1f,%ebx
  100ff0:	29 d8                	sub    %ebx,%eax
  100ff2:	89 c3                	mov    %eax,%ebx
  100ff4:	75 ea                	jne    100fe0 <vsprintf+0xa4>
  100ff6:	89 f3                	mov    %esi,%ebx
  100ff8:	89 75 ec             	mov    %esi,-0x14(%ebp)
  100ffb:	8b 75 e8             	mov    -0x18(%ebp),%esi
  100ffe:	66 90                	xchg   %ax,%ax
  101000:	b8 67 66 66 66       	mov    $0x66666667,%eax
  101005:	f7 e9                	imul   %ecx
  101007:	89 d0                	mov    %edx,%eax
  101009:	c1 f8 02             	sar    $0x2,%eax
  10100c:	89 ca                	mov    %ecx,%edx
  10100e:	c1 fa 1f             	sar    $0x1f,%edx
  101011:	29 d0                	sub    %edx,%eax
  101013:	8d 14 80             	lea    (%eax,%eax,4),%edx
  101016:	01 d2                	add    %edx,%edx
  101018:	29 d1                	sub    %edx,%ecx
  10101a:	83 c1 30             	add    $0x30,%ecx
  10101d:	88 4c 1f ff          	mov    %cl,-0x1(%edi,%ebx,1)
  101021:	89 c1                	mov    %eax,%ecx
  101023:	4b                   	dec    %ebx
  101024:	75 da                	jne    101000 <vsprintf+0xc4>
  101026:	03 7d ec             	add    -0x14(%ebp),%edi
  101029:	eb a1                	jmp    100fcc <vsprintf+0x90>
  10102b:	90                   	nop

0010102c <printf>:
  10102c:	55                   	push   %ebp
  10102d:	89 e5                	mov    %esp,%ebp
  10102f:	53                   	push   %ebx
  101030:	81 ec 04 04 00 00    	sub    $0x404,%esp
  101036:	8d 45 0c             	lea    0xc(%ebp),%eax
  101039:	50                   	push   %eax
  10103a:	ff 75 08             	pushl  0x8(%ebp)
  10103d:	8d 9d f8 fb ff ff    	lea    -0x408(%ebp),%ebx
  101043:	53                   	push   %ebx
  101044:	e8 f3 fe ff ff       	call   100f3c <vsprintf>
  101049:	0f be 85 f8 fb ff ff 	movsbl -0x408(%ebp),%eax
  101050:	83 c4 0c             	add    $0xc,%esp
  101053:	84 c0                	test   %al,%al
  101055:	74 15                	je     10106c <printf+0x40>
  101057:	90                   	nop
  101058:	83 ec 0c             	sub    $0xc,%esp
  10105b:	50                   	push   %eax
  10105c:	e8 d7 f9 ff ff       	call   100a38 <_putc>
  101061:	43                   	inc    %ebx
  101062:	0f be 03             	movsbl (%ebx),%eax
  101065:	83 c4 10             	add    $0x10,%esp
  101068:	84 c0                	test   %al,%al
  10106a:	75 ec                	jne    101058 <printf+0x2c>
  10106c:	31 c0                	xor    %eax,%eax
  10106e:	8b 5d fc             	mov    -0x4(%ebp),%ebx
  101071:	c9                   	leave  
  101072:	c3                   	ret    
  101073:	90                   	nop

00101074 <strcmp>:
  101074:	55                   	push   %ebp
  101075:	89 e5                	mov    %esp,%ebp
  101077:	56                   	push   %esi
  101078:	53                   	push   %ebx
  101079:	8b 5d 08             	mov    0x8(%ebp),%ebx
  10107c:	8b 75 0c             	mov    0xc(%ebp),%esi
  10107f:	8a 13                	mov    (%ebx),%dl
  101081:	8a 06                	mov    (%esi),%al
  101083:	84 d2                	test   %dl,%dl
  101085:	74 28                	je     1010af <strcmp+0x3b>
  101087:	84 c0                	test   %al,%al
  101089:	74 35                	je     1010c0 <strcmp+0x4c>
  10108b:	38 c2                	cmp    %al,%dl
  10108d:	7f 31                	jg     1010c0 <strcmp+0x4c>
  10108f:	7c 3b                	jl     1010cc <strcmp+0x58>
  101091:	ba 01 00 00 00       	mov    $0x1,%edx
  101096:	eb 0d                	jmp    1010a5 <strcmp+0x31>
  101098:	84 c0                	test   %al,%al
  10109a:	74 24                	je     1010c0 <strcmp+0x4c>
  10109c:	38 c1                	cmp    %al,%cl
  10109e:	7f 20                	jg     1010c0 <strcmp+0x4c>
  1010a0:	42                   	inc    %edx
  1010a1:	38 c1                	cmp    %al,%cl
  1010a3:	7c 27                	jl     1010cc <strcmp+0x58>
  1010a5:	8a 0c 13             	mov    (%ebx,%edx,1),%cl
  1010a8:	8a 04 16             	mov    (%esi,%edx,1),%al
  1010ab:	84 c9                	test   %cl,%cl
  1010ad:	75 e9                	jne    101098 <strcmp+0x24>
  1010af:	84 c0                	test   %al,%al
  1010b1:	0f 95 c0             	setne  %al
  1010b4:	0f b6 c0             	movzbl %al,%eax
  1010b7:	f7 d8                	neg    %eax
  1010b9:	5b                   	pop    %ebx
  1010ba:	5e                   	pop    %esi
  1010bb:	5d                   	pop    %ebp
  1010bc:	c3                   	ret    
  1010bd:	8d 76 00             	lea    0x0(%esi),%esi
  1010c0:	b8 01 00 00 00       	mov    $0x1,%eax
  1010c5:	5b                   	pop    %ebx
  1010c6:	5e                   	pop    %esi
  1010c7:	5d                   	pop    %ebp
  1010c8:	c3                   	ret    
  1010c9:	8d 76 00             	lea    0x0(%esi),%esi
  1010cc:	b8 ff ff ff ff       	mov    $0xffffffff,%eax
  1010d1:	5b                   	pop    %ebx
  1010d2:	5e                   	pop    %esi
  1010d3:	5d                   	pop    %ebp
  1010d4:	c3                   	ret    
  1010d5:	66 90                	xchg   %ax,%ax
  1010d7:	90                   	nop

001010d8 <memcpy>:
  1010d8:	55                   	push   %ebp
  1010d9:	89 e5                	mov    %esp,%ebp
  1010db:	56                   	push   %esi
  1010dc:	53                   	push   %ebx
  1010dd:	8b 75 08             	mov    0x8(%ebp),%esi
  1010e0:	8b 4d 0c             	mov    0xc(%ebp),%ecx
  1010e3:	8b 5d 10             	mov    0x10(%ebp),%ebx
  1010e6:	85 db                	test   %ebx,%ebx
  1010e8:	74 10                	je     1010fa <memcpy+0x22>
  1010ea:	01 f3                	add    %esi,%ebx
  1010ec:	89 f2                	mov    %esi,%edx
  1010ee:	66 90                	xchg   %ax,%ax
  1010f0:	8a 01                	mov    (%ecx),%al
  1010f2:	88 02                	mov    %al,(%edx)
  1010f4:	42                   	inc    %edx
  1010f5:	41                   	inc    %ecx
  1010f6:	39 da                	cmp    %ebx,%edx
  1010f8:	75 f6                	jne    1010f0 <memcpy+0x18>
  1010fa:	89 f0                	mov    %esi,%eax
  1010fc:	5b                   	pop    %ebx
  1010fd:	5e                   	pop    %esi
  1010fe:	5d                   	pop    %ebp
  1010ff:	c3                   	ret    

00101100 <uptime>:
  101100:	55                   	push   %ebp
  101101:	89 e5                	mov    %esp,%ebp
  101103:	83 ec 18             	sub    $0x18,%esp
  101106:	6a 08                	push   $0x8
  101108:	8d 45 f0             	lea    -0x10(%ebp),%eax
  10110b:	50                   	push   %eax
  10110c:	6a 01                	push   $0x1
  10110e:	68 03 ac 00 00       	push   $0xac03
  101113:	e8 68 f9 ff ff       	call   100a80 <_io_read>
  101118:	8b 45 f4             	mov    -0xc(%ebp),%eax
  10111b:	c9                   	leave  
  10111c:	c3                   	ret    
  10111d:	66 90                	xchg   %ax,%ax
  10111f:	90                   	nop

00101120 <get_timeofday>:
  101120:	55                   	push   %ebp
  101121:	89 e5                	mov    %esp,%ebp
  101123:	83 ec 08             	sub    $0x8,%esp
  101126:	6a 18                	push   $0x18
  101128:	ff 75 08             	pushl  0x8(%ebp)
  10112b:	6a 02                	push   $0x2
  10112d:	68 03 ac 00 00       	push   $0xac03
  101132:	e8 49 f9 ff ff       	call   100a80 <_io_read>
  101137:	83 c4 10             	add    $0x10,%esp
  10113a:	c9                   	leave  
  10113b:	c3                   	ret    

0010113c <read_key>:
  10113c:	55                   	push   %ebp
  10113d:	89 e5                	mov    %esp,%ebp
  10113f:	83 ec 18             	sub    $0x18,%esp
  101142:	6a 08                	push   $0x8
  101144:	8d 45 f0             	lea    -0x10(%ebp),%eax
  101147:	50                   	push   %eax
  101148:	6a 01                	push   $0x1
  10114a:	68 02 ac 00 00       	push   $0xac02
  10114f:	e8 2c f9 ff ff       	call   100a80 <_io_read>
  101154:	8b 45 f4             	mov    -0xc(%ebp),%eax
  101157:	83 c4 10             	add    $0x10,%esp
  10115a:	8b 55 f0             	mov    -0x10(%ebp),%edx
  10115d:	85 d2                	test   %edx,%edx
  10115f:	74 03                	je     101164 <read_key+0x28>
  101161:	80 cc 80             	or     $0x80,%ah
  101164:	c9                   	leave  
  101165:	c3                   	ret    
  101166:	66 90                	xchg   %ax,%ax

00101168 <draw_rect>:
  101168:	55                   	push   %ebp
  101169:	89 e5                	mov    %esp,%ebp
  10116b:	83 ec 28             	sub    $0x28,%esp
  10116e:	8b 45 0c             	mov    0xc(%ebp),%eax
  101171:	89 45 e0             	mov    %eax,-0x20(%ebp)
  101174:	8b 45 10             	mov    0x10(%ebp),%eax
  101177:	89 45 e4             	mov    %eax,-0x1c(%ebp)
  10117a:	8b 45 08             	mov    0x8(%ebp),%eax
  10117d:	89 45 e8             	mov    %eax,-0x18(%ebp)
  101180:	8b 45 14             	mov    0x14(%ebp),%eax
  101183:	89 45 ec             	mov    %eax,-0x14(%ebp)
  101186:	8b 45 18             	mov    0x18(%ebp),%eax
  101189:	89 45 f0             	mov    %eax,-0x10(%ebp)
  10118c:	c7 45 f4 00 00 00 00 	movl   $0x0,-0xc(%ebp)
  101193:	6a 18                	push   $0x18
  101195:	8d 45 e0             	lea    -0x20(%ebp),%eax
  101198:	50                   	push   %eax
  101199:	6a 02                	push   $0x2
  10119b:	68 04 ac 00 00       	push   $0xac04
  1011a0:	e8 37 f9 ff ff       	call   100adc <_io_write>
  1011a5:	83 c4 10             	add    $0x10,%esp
  1011a8:	c9                   	leave  
  1011a9:	c3                   	ret    
  1011aa:	66 90                	xchg   %ax,%ax

001011ac <draw_sync>:
  1011ac:	55                   	push   %ebp
  1011ad:	89 e5                	mov    %esp,%ebp
  1011af:	83 ec 28             	sub    $0x28,%esp
  1011b2:	c7 45 e8 00 00 00 00 	movl   $0x0,-0x18(%ebp)
  1011b9:	c7 45 f0 00 00 00 00 	movl   $0x0,-0x10(%ebp)
  1011c0:	c7 45 ec 00 00 00 00 	movl   $0x0,-0x14(%ebp)
  1011c7:	c7 45 e4 00 00 00 00 	movl   $0x0,-0x1c(%ebp)
  1011ce:	c7 45 e0 00 00 00 00 	movl   $0x0,-0x20(%ebp)
  1011d5:	c7 45 f4 01 00 00 00 	movl   $0x1,-0xc(%ebp)
  1011dc:	6a 18                	push   $0x18
  1011de:	8d 45 e0             	lea    -0x20(%ebp),%eax
  1011e1:	50                   	push   %eax
  1011e2:	6a 02                	push   $0x2
  1011e4:	68 04 ac 00 00       	push   $0xac04
  1011e9:	e8 ee f8 ff ff       	call   100adc <_io_write>
  1011ee:	83 c4 10             	add    $0x10,%esp
  1011f1:	c9                   	leave  
  1011f2:	c3                   	ret    
  1011f3:	90                   	nop

001011f4 <screen_width>:
  1011f4:	55                   	push   %ebp
  1011f5:	89 e5                	mov    %esp,%ebp
  1011f7:	83 ec 18             	sub    $0x18,%esp
  1011fa:	6a 08                	push   $0x8
  1011fc:	8d 45 f0             	lea    -0x10(%ebp),%eax
  1011ff:	50                   	push   %eax
  101200:	6a 01                	push   $0x1
  101202:	68 04 ac 00 00       	push   $0xac04
  101207:	e8 74 f8 ff ff       	call   100a80 <_io_read>
  10120c:	8b 45 f0             	mov    -0x10(%ebp),%eax
  10120f:	c9                   	leave  
  101210:	c3                   	ret    
  101211:	66 90                	xchg   %ax,%ax
  101213:	90                   	nop

00101214 <screen_height>:
  101214:	55                   	push   %ebp
  101215:	89 e5                	mov    %esp,%ebp
  101217:	83 ec 18             	sub    $0x18,%esp
  10121a:	6a 08                	push   $0x8
  10121c:	8d 45 f0             	lea    -0x10(%ebp),%eax
  10121f:	50                   	push   %eax
  101220:	6a 01                	push   $0x1
  101222:	68 04 ac 00 00       	push   $0xac04
  101227:	e8 54 f8 ff ff       	call   100a80 <_io_read>
  10122c:	8b 45 f4             	mov    -0xc(%ebp),%eax
  10122f:	c9                   	leave  
  101230:	c3                   	ret    
