
/home/piper/ics2019/nexus-am/apps/microbench/build/microbench-x86-nemu.elf:     file format elf32-i386


Disassembly of section .text:

00100000 <_start>:
  100000:	bd 00 00 00 00       	mov    $0x0,%ebp
  100005:	bc 00 d0 10 00       	mov    $0x10d000,%esp
  10000a:	e8 51 38 00 00       	call   103860 <_trm_init>
  10000f:	90                   	nop

00100010 <bench_md5_prepare>:
  100010:	55                   	push   %ebp
  100011:	89 e5                	mov    %esp,%ebp
  100013:	53                   	push   %ebx
  100014:	83 ec 10             	sub    $0x10,%esp
  100017:	a1 88 49 10 00       	mov    0x104988,%eax
  10001c:	8b 00                	mov    (%eax),%eax
  10001e:	a3 f8 48 10 00       	mov    %eax,0x1048f8
  100023:	6a 01                	push   $0x1
  100025:	e8 8a 23 00 00       	call   1023b4 <bench_srand>
  10002a:	58                   	pop    %eax
  10002b:	ff 35 f8 48 10 00    	pushl  0x1048f8
  100031:	e8 f6 22 00 00       	call   10232c <bench_alloc>
  100036:	a3 f4 48 10 00       	mov    %eax,0x1048f4
  10003b:	83 c4 10             	add    $0x10,%esp
  10003e:	8b 15 f8 48 10 00    	mov    0x1048f8,%edx
  100044:	85 d2                	test   %edx,%edx
  100046:	7e 1b                	jle    100063 <bench_md5_prepare+0x53>
  100048:	31 db                	xor    %ebx,%ebx
  10004a:	66 90                	xchg   %ax,%ax
  10004c:	e8 77 23 00 00       	call   1023c8 <bench_rand>
  100051:	8b 15 f4 48 10 00    	mov    0x1048f4,%edx
  100057:	88 04 1a             	mov    %al,(%edx,%ebx,1)
  10005a:	43                   	inc    %ebx
  10005b:	39 1d f8 48 10 00    	cmp    %ebx,0x1048f8
  100061:	7f e9                	jg     10004c <bench_md5_prepare+0x3c>
  100063:	83 ec 0c             	sub    $0xc,%esp
  100066:	6a 10                	push   $0x10
  100068:	e8 bf 22 00 00       	call   10232c <bench_alloc>
  10006d:	a3 f0 48 10 00       	mov    %eax,0x1048f0
  100072:	83 c4 10             	add    $0x10,%esp
  100075:	8b 5d fc             	mov    -0x4(%ebp),%ebx
  100078:	c9                   	leave  
  100079:	c3                   	ret    
  10007a:	66 90                	xchg   %ax,%ax

0010007c <bench_md5_run>:
  10007c:	55                   	push   %ebp
  10007d:	89 e5                	mov    %esp,%ebp
  10007f:	57                   	push   %edi
  100080:	56                   	push   %esi
  100081:	53                   	push   %ebx
  100082:	83 ec 68             	sub    $0x68,%esp
  100085:	a1 f0 48 10 00       	mov    0x1048f0,%eax
  10008a:	89 45 90             	mov    %eax,-0x70(%ebp)
  10008d:	8b 15 f8 48 10 00    	mov    0x1048f8,%edx
  100093:	a1 f4 48 10 00       	mov    0x1048f4,%eax
  100098:	89 c7                	mov    %eax,%edi
  10009a:	89 45 94             	mov    %eax,-0x6c(%ebp)
  10009d:	8d 42 01             	lea    0x1(%edx),%eax
  1000a0:	8d 0c 17             	lea    (%edi,%edx,1),%ecx
  1000a3:	89 c3                	mov    %eax,%ebx
  1000a5:	83 e3 3f             	and    $0x3f,%ebx
  1000a8:	83 fb 38             	cmp    $0x38,%ebx
  1000ab:	0f 84 87 01 00 00    	je     100238 <bench_md5_run+0x1bc>
  1000b1:	89 c6                	mov    %eax,%esi
  1000b3:	90                   	nop
  1000b4:	46                   	inc    %esi
  1000b5:	89 f3                	mov    %esi,%ebx
  1000b7:	83 e3 3f             	and    $0x3f,%ebx
  1000ba:	83 fb 38             	cmp    $0x38,%ebx
  1000bd:	75 f5                	jne    1000b4 <bench_md5_run+0x38>
  1000bf:	c6 01 80             	movb   $0x80,(%ecx)
  1000c2:	39 f0                	cmp    %esi,%eax
  1000c4:	73 12                	jae    1000d8 <bench_md5_run+0x5c>
  1000c6:	8b 5d 94             	mov    -0x6c(%ebp),%ebx
  1000c9:	01 d8                	add    %ebx,%eax
  1000cb:	8d 0c 33             	lea    (%ebx,%esi,1),%ecx
  1000ce:	66 90                	xchg   %ax,%ax
  1000d0:	c6 00 00             	movb   $0x0,(%eax)
  1000d3:	40                   	inc    %eax
  1000d4:	39 c1                	cmp    %eax,%ecx
  1000d6:	75 f8                	jne    1000d0 <bench_md5_run+0x54>
  1000d8:	8d 04 d5 00 00 00 00 	lea    0x0(,%edx,8),%eax
  1000df:	8b 7d 94             	mov    -0x6c(%ebp),%edi
  1000e2:	89 04 37             	mov    %eax,(%edi,%esi,1)
  1000e5:	8d 44 37 04          	lea    0x4(%edi,%esi,1),%eax
  1000e9:	c1 ea 1d             	shr    $0x1d,%edx
  1000ec:	88 10                	mov    %dl,(%eax)
  1000ee:	66 c7 40 01 00 00    	movw   $0x0,0x1(%eax)
  1000f4:	c6 40 03 00          	movb   $0x0,0x3(%eax)
  1000f8:	c7 45 9c 76 54 32 10 	movl   $0x10325476,-0x64(%ebp)
  1000ff:	c7 45 a0 fe dc ba 98 	movl   $0x98badcfe,-0x60(%ebp)
  100106:	c7 45 a4 89 ab cd ef 	movl   $0xefcdab89,-0x5c(%ebp)
  10010d:	c7 45 a8 01 23 45 67 	movl   $0x67452301,-0x58(%ebp)
  100114:	c7 45 ac 00 00 00 00 	movl   $0x0,-0x54(%ebp)
  10011b:	89 75 8c             	mov    %esi,-0x74(%ebp)
  10011e:	66 90                	xchg   %ax,%ax
  100120:	31 c0                	xor    %eax,%eax
  100122:	8b 7d 94             	mov    -0x6c(%ebp),%edi
  100125:	8b 5d ac             	mov    -0x54(%ebp),%ebx
  100128:	8d 14 1f             	lea    (%edi,%ebx,1),%edx
  10012b:	90                   	nop
  10012c:	8b 0c 82             	mov    (%edx,%eax,4),%ecx
  10012f:	89 4c 85 b4          	mov    %ecx,-0x4c(%ebp,%eax,4)
  100133:	40                   	inc    %eax
  100134:	83 f8 10             	cmp    $0x10,%eax
  100137:	75 f3                	jne    10012c <bench_md5_run+0xb0>
  100139:	8b 7d a8             	mov    -0x58(%ebp),%edi
  10013c:	8b 5d a4             	mov    -0x5c(%ebp),%ebx
  10013f:	8b 75 9c             	mov    -0x64(%ebp),%esi
  100142:	8b 45 a0             	mov    -0x60(%ebp),%eax
  100145:	89 45 b0             	mov    %eax,-0x50(%ebp)
  100148:	31 d2                	xor    %edx,%edx
  10014a:	c7 45 98 07 00 00 00 	movl   $0x7,-0x68(%ebp)
  100151:	b9 78 a4 6a d7       	mov    $0xd76aa478,%ecx
  100156:	01 cf                	add    %ecx,%edi
  100158:	83 fa 0f             	cmp    $0xf,%edx
  10015b:	76 4a                	jbe    1001a7 <bench_md5_run+0x12b>
  10015d:	8d 76 00             	lea    0x0(%esi),%esi
  100160:	83 fa 1f             	cmp    $0x1f,%edx
  100163:	77 4f                	ja     1001b4 <bench_md5_run+0x138>
  100165:	8b 4d b0             	mov    -0x50(%ebp),%ecx
  100168:	89 c8                	mov    %ecx,%eax
  10016a:	31 d8                	xor    %ebx,%eax
  10016c:	21 f0                	and    %esi,%eax
  10016e:	31 c8                	xor    %ecx,%eax
  100170:	8d 4c 92 01          	lea    0x1(%edx,%edx,4),%ecx
  100174:	83 e1 0f             	and    $0xf,%ecx
  100177:	01 f8                	add    %edi,%eax
  100179:	03 44 8d b4          	add    -0x4c(%ebp,%ecx,4),%eax
  10017d:	8a 4d 98             	mov    -0x68(%ebp),%cl
  100180:	d3 c0                	rol    %cl,%eax
  100182:	01 d8                	add    %ebx,%eax
  100184:	8b 0c 95 64 3e 10 00 	mov    0x103e64(,%edx,4),%ecx
  10018b:	8b 3c 95 64 3d 10 00 	mov    0x103d64(,%edx,4),%edi
  100192:	89 7d 98             	mov    %edi,-0x68(%ebp)
  100195:	42                   	inc    %edx
  100196:	89 f7                	mov    %esi,%edi
  100198:	8b 75 b0             	mov    -0x50(%ebp),%esi
  10019b:	89 5d b0             	mov    %ebx,-0x50(%ebp)
  10019e:	89 c3                	mov    %eax,%ebx
  1001a0:	01 cf                	add    %ecx,%edi
  1001a2:	83 fa 0f             	cmp    $0xf,%edx
  1001a5:	77 b9                	ja     100160 <bench_md5_run+0xe4>
  1001a7:	8b 45 b0             	mov    -0x50(%ebp),%eax
  1001aa:	31 f0                	xor    %esi,%eax
  1001ac:	21 d8                	and    %ebx,%eax
  1001ae:	31 f0                	xor    %esi,%eax
  1001b0:	89 d1                	mov    %edx,%ecx
  1001b2:	eb c3                	jmp    100177 <bench_md5_run+0xfb>
  1001b4:	83 fa 2f             	cmp    $0x2f,%edx
  1001b7:	77 13                	ja     1001cc <bench_md5_run+0x150>
  1001b9:	8b 45 b0             	mov    -0x50(%ebp),%eax
  1001bc:	31 f0                	xor    %esi,%eax
  1001be:	31 d8                	xor    %ebx,%eax
  1001c0:	8d 0c 12             	lea    (%edx,%edx,1),%ecx
  1001c3:	8d 4c 0a 05          	lea    0x5(%edx,%ecx,1),%ecx
  1001c7:	83 e1 0f             	and    $0xf,%ecx
  1001ca:	eb ab                	jmp    100177 <bench_md5_run+0xfb>
  1001cc:	89 f0                	mov    %esi,%eax
  1001ce:	f7 d0                	not    %eax
  1001d0:	09 d8                	or     %ebx,%eax
  1001d2:	33 45 b0             	xor    -0x50(%ebp),%eax
  1001d5:	01 c7                	add    %eax,%edi
  1001d7:	8d 04 12             	lea    (%edx,%edx,1),%eax
  1001da:	01 d0                	add    %edx,%eax
  1001dc:	01 c0                	add    %eax,%eax
  1001de:	01 d0                	add    %edx,%eax
  1001e0:	83 e0 0f             	and    $0xf,%eax
  1001e3:	03 7c 85 b4          	add    -0x4c(%ebp,%eax,4),%edi
  1001e7:	8a 4d 98             	mov    -0x68(%ebp),%cl
  1001ea:	d3 c7                	rol    %cl,%edi
  1001ec:	8d 04 1f             	lea    (%edi,%ebx,1),%eax
  1001ef:	83 fa 3f             	cmp    $0x3f,%edx
  1001f2:	75 90                	jne    100184 <bench_md5_run+0x108>
  1001f4:	01 75 a8             	add    %esi,-0x58(%ebp)
  1001f7:	01 45 a4             	add    %eax,-0x5c(%ebp)
  1001fa:	01 5d a0             	add    %ebx,-0x60(%ebp)
  1001fd:	8b 5d b0             	mov    -0x50(%ebp),%ebx
  100200:	01 5d 9c             	add    %ebx,-0x64(%ebp)
  100203:	83 45 ac 40          	addl   $0x40,-0x54(%ebp)
  100207:	8b 45 ac             	mov    -0x54(%ebp),%eax
  10020a:	39 45 8c             	cmp    %eax,-0x74(%ebp)
  10020d:	0f 87 0d ff ff ff    	ja     100120 <bench_md5_run+0xa4>
  100213:	8b 45 90             	mov    -0x70(%ebp),%eax
  100216:	8b 75 a8             	mov    -0x58(%ebp),%esi
  100219:	89 30                	mov    %esi,(%eax)
  10021b:	8b 7d a4             	mov    -0x5c(%ebp),%edi
  10021e:	89 78 04             	mov    %edi,0x4(%eax)
  100221:	8b 5d a0             	mov    -0x60(%ebp),%ebx
  100224:	89 58 08             	mov    %ebx,0x8(%eax)
  100227:	8b 75 9c             	mov    -0x64(%ebp),%esi
  10022a:	89 70 0c             	mov    %esi,0xc(%eax)
  10022d:	83 c4 68             	add    $0x68,%esp
  100230:	5b                   	pop    %ebx
  100231:	5e                   	pop    %esi
  100232:	5f                   	pop    %edi
  100233:	5d                   	pop    %ebp
  100234:	c3                   	ret    
  100235:	8d 76 00             	lea    0x0(%esi),%esi
  100238:	c6 01 80             	movb   $0x80,(%ecx)
  10023b:	89 c6                	mov    %eax,%esi
  10023d:	e9 96 fe ff ff       	jmp    1000d8 <bench_md5_run+0x5c>
  100242:	66 90                	xchg   %ax,%ax

00100244 <bench_md5_validate>:
  100244:	55                   	push   %ebp
  100245:	89 e5                	mov    %esp,%ebp
  100247:	83 ec 10             	sub    $0x10,%esp
  10024a:	a1 f0 48 10 00       	mov    0x1048f0,%eax
  10024f:	8d 50 10             	lea    0x10(%eax),%edx
  100252:	52                   	push   %edx
  100253:	50                   	push   %eax
  100254:	e8 9f 21 00 00       	call   1023f8 <checksum>
  100259:	83 c4 10             	add    $0x10,%esp
  10025c:	8b 15 88 49 10 00    	mov    0x104988,%edx
  100262:	39 42 0c             	cmp    %eax,0xc(%edx)
  100265:	0f 94 c0             	sete   %al
  100268:	0f b6 c0             	movzbl %al,%eax
  10026b:	c9                   	leave  
  10026c:	c3                   	ret    
  10026d:	66 90                	xchg   %ax,%ax
  10026f:	90                   	nop

00100270 <bench_sieve_prepare>:
  100270:	55                   	push   %ebp
  100271:	89 e5                	mov    %esp,%ebp
  100273:	83 ec 14             	sub    $0x14,%esp
  100276:	a1 88 49 10 00       	mov    0x104988,%eax
  10027b:	8b 00                	mov    (%eax),%eax
  10027d:	a3 04 49 10 00       	mov    %eax,0x104904
  100282:	85 c0                	test   %eax,%eax
  100284:	79 03                	jns    100289 <bench_sieve_prepare+0x19>
  100286:	83 c0 07             	add    $0x7,%eax
  100289:	c1 f8 03             	sar    $0x3,%eax
  10028c:	83 e8 80             	sub    $0xffffff80,%eax
  10028f:	50                   	push   %eax
  100290:	e8 97 20 00 00       	call   10232c <bench_alloc>
  100295:	a3 fc 48 10 00       	mov    %eax,0x1048fc
  10029a:	8b 15 04 49 10 00    	mov    0x104904,%edx
  1002a0:	89 d1                	mov    %edx,%ecx
  1002a2:	83 c4 10             	add    $0x10,%esp
  1002a5:	85 d2                	test   %edx,%edx
  1002a7:	79 03                	jns    1002ac <bench_sieve_prepare+0x3c>
  1002a9:	8d 4a 1f             	lea    0x1f(%edx),%ecx
  1002ac:	c1 f9 05             	sar    $0x5,%ecx
  1002af:	83 fa e1             	cmp    $0xffffffe1,%edx
  1002b2:	7c 10                	jl     1002c4 <bench_sieve_prepare+0x54>
  1002b4:	31 d2                	xor    %edx,%edx
  1002b6:	66 90                	xchg   %ax,%ax
  1002b8:	c7 04 90 ff ff ff ff 	movl   $0xffffffff,(%eax,%edx,4)
  1002bf:	42                   	inc    %edx
  1002c0:	39 ca                	cmp    %ecx,%edx
  1002c2:	7e f4                	jle    1002b8 <bench_sieve_prepare+0x48>
  1002c4:	c9                   	leave  
  1002c5:	c3                   	ret    
  1002c6:	66 90                	xchg   %ax,%ax

001002c8 <bench_sieve_run>:
  1002c8:	55                   	push   %ebp
  1002c9:	89 e5                	mov    %esp,%ebp
  1002cb:	57                   	push   %edi
  1002cc:	56                   	push   %esi
  1002cd:	53                   	push   %ebx
  1002ce:	52                   	push   %edx
  1002cf:	8b 1d 04 49 10 00    	mov    0x104904,%ebx
  1002d5:	85 db                	test   %ebx,%ebx
  1002d7:	0f 8e ca 00 00 00    	jle    1003a7 <bench_sieve_run+0xdf>
  1002dd:	8b 15 fc 48 10 00    	mov    0x1048fc,%edx
  1002e3:	8b 0a                	mov    (%edx),%ecx
  1002e5:	d1 e9                	shr    %ecx
  1002e7:	83 e1 01             	and    $0x1,%ecx
  1002ea:	75 1a                	jne    100306 <bench_sieve_run+0x3e>
  1002ec:	e9 b0 00 00 00       	jmp    1003a1 <bench_sieve_run+0xd9>
  1002f1:	8d 76 00             	lea    0x0(%esi),%esi
  1002f4:	89 c8                	mov    %ecx,%eax
  1002f6:	c1 f8 05             	sar    $0x5,%eax
  1002f9:	8b 04 82             	mov    (%edx,%eax,4),%eax
  1002fc:	d3 e8                	shr    %cl,%eax
  1002fe:	a8 01                	test   $0x1,%al
  100300:	0f 84 9b 00 00 00    	je     1003a1 <bench_sieve_run+0xd9>
  100306:	41                   	inc    %ecx
  100307:	39 d9                	cmp    %ebx,%ecx
  100309:	7e e9                	jle    1002f4 <bench_sieve_run+0x2c>
  10030b:	83 fb 03             	cmp    $0x3,%ebx
  10030e:	0f 8e 93 00 00 00    	jle    1003a7 <bench_sieve_run+0xdf>
  100314:	89 55 f0             	mov    %edx,-0x10(%ebp)
  100317:	b8 02 00 00 00       	mov    $0x2,%eax
  10031c:	eb 0c                	jmp    10032a <bench_sieve_run+0x62>
  10031e:	66 90                	xchg   %ax,%ax
  100320:	40                   	inc    %eax
  100321:	89 c1                	mov    %eax,%ecx
  100323:	0f af c8             	imul   %eax,%ecx
  100326:	39 d9                	cmp    %ebx,%ecx
  100328:	7f 3b                	jg     100365 <bench_sieve_run+0x9d>
  10032a:	89 c1                	mov    %eax,%ecx
  10032c:	c1 f9 05             	sar    $0x5,%ecx
  10032f:	8b 34 8a             	mov    (%edx,%ecx,4),%esi
  100332:	88 c1                	mov    %al,%cl
  100334:	d3 ee                	shr    %cl,%esi
  100336:	83 e6 01             	and    $0x1,%esi
  100339:	74 e5                	je     100320 <bench_sieve_run+0x58>
  10033b:	8d 0c 00             	lea    (%eax,%eax,1),%ecx
  10033e:	39 d9                	cmp    %ebx,%ecx
  100340:	7f de                	jg     100320 <bench_sieve_run+0x58>
  100342:	66 90                	xchg   %ax,%ax
  100344:	89 ce                	mov    %ecx,%esi
  100346:	c1 fe 05             	sar    $0x5,%esi
  100349:	bf 01 00 00 00       	mov    $0x1,%edi
  10034e:	d3 e7                	shl    %cl,%edi
  100350:	f7 d7                	not    %edi
  100352:	21 3c b2             	and    %edi,(%edx,%esi,4)
  100355:	01 c1                	add    %eax,%ecx
  100357:	39 d9                	cmp    %ebx,%ecx
  100359:	7e e9                	jle    100344 <bench_sieve_run+0x7c>
  10035b:	40                   	inc    %eax
  10035c:	89 c1                	mov    %eax,%ecx
  10035e:	0f af c8             	imul   %eax,%ecx
  100361:	39 d9                	cmp    %ebx,%ecx
  100363:	7e c5                	jle    10032a <bench_sieve_run+0x62>
  100365:	c7 05 00 49 10 00 00 	movl   $0x0,0x104900
  10036c:	00 00 00 
  10036f:	31 f6                	xor    %esi,%esi
  100371:	31 d2                	xor    %edx,%edx
  100373:	b9 02 00 00 00       	mov    $0x2,%ecx
  100378:	8b 7d f0             	mov    -0x10(%ebp),%edi
  10037b:	90                   	nop
  10037c:	89 c8                	mov    %ecx,%eax
  10037e:	c1 f8 05             	sar    $0x5,%eax
  100381:	8b 04 87             	mov    (%edi,%eax,4),%eax
  100384:	d3 e8                	shr    %cl,%eax
  100386:	a8 01                	test   $0x1,%al
  100388:	74 06                	je     100390 <bench_sieve_run+0xc8>
  10038a:	42                   	inc    %edx
  10038b:	be 01 00 00 00       	mov    $0x1,%esi
  100390:	41                   	inc    %ecx
  100391:	39 d9                	cmp    %ebx,%ecx
  100393:	7e e7                	jle    10037c <bench_sieve_run+0xb4>
  100395:	89 f0                	mov    %esi,%eax
  100397:	84 c0                	test   %al,%al
  100399:	74 06                	je     1003a1 <bench_sieve_run+0xd9>
  10039b:	89 15 00 49 10 00    	mov    %edx,0x104900
  1003a1:	58                   	pop    %eax
  1003a2:	5b                   	pop    %ebx
  1003a3:	5e                   	pop    %esi
  1003a4:	5f                   	pop    %edi
  1003a5:	5d                   	pop    %ebp
  1003a6:	c3                   	ret    
  1003a7:	c7 05 00 49 10 00 00 	movl   $0x0,0x104900
  1003ae:	00 00 00 
  1003b1:	83 fb 01             	cmp    $0x1,%ebx
  1003b4:	7e eb                	jle    1003a1 <bench_sieve_run+0xd9>
  1003b6:	a1 fc 48 10 00       	mov    0x1048fc,%eax
  1003bb:	89 45 f0             	mov    %eax,-0x10(%ebp)
  1003be:	eb af                	jmp    10036f <bench_sieve_run+0xa7>

001003c0 <bench_sieve_validate>:
  1003c0:	a1 88 49 10 00       	mov    0x104988,%eax
  1003c5:	8b 15 00 49 10 00    	mov    0x104900,%edx
  1003cb:	39 50 0c             	cmp    %edx,0xc(%eax)
  1003ce:	0f 94 c0             	sete   %al
  1003d1:	0f b6 c0             	movzbl %al,%eax
  1003d4:	c3                   	ret    
  1003d5:	66 90                	xchg   %ax,%ax
  1003d7:	90                   	nop

001003d8 <bench_bf_prepare>:
  1003d8:	55                   	push   %ebp
  1003d9:	89 e5                	mov    %esp,%ebp
  1003db:	56                   	push   %esi
  1003dc:	53                   	push   %ebx
  1003dd:	a1 88 49 10 00       	mov    0x104988,%eax
  1003e2:	8b 00                	mov    (%eax),%eax
  1003e4:	a3 28 49 10 00       	mov    %eax,0x104928
  1003e9:	c7 05 1c 49 10 00 00 	movl   $0x0,0x10491c
  1003f0:	00 00 00 
  1003f3:	83 ec 0c             	sub    $0xc,%esp
  1003f6:	68 00 40 00 00       	push   $0x4000
  1003fb:	e8 2c 1f 00 00       	call   10232c <bench_alloc>
  100400:	a3 24 49 10 00       	mov    %eax,0x104924
  100405:	c7 04 24 00 04 00 00 	movl   $0x400,(%esp)
  10040c:	e8 1b 1f 00 00       	call   10232c <bench_alloc>
  100411:	a3 20 49 10 00       	mov    %eax,0x104920
  100416:	c7 04 24 00 20 00 00 	movl   $0x2000,(%esp)
  10041d:	e8 0a 1f 00 00       	call   10232c <bench_alloc>
  100422:	a3 10 49 10 00       	mov    %eax,0x104910
  100427:	c7 05 18 49 10 00 60 	movl   $0x103f60,0x104918
  10042e:	3f 10 00 
  100431:	a1 28 49 10 00       	mov    0x104928,%eax
  100436:	40                   	inc    %eax
  100437:	89 04 24             	mov    %eax,(%esp)
  10043a:	e8 ed 1e 00 00       	call   10232c <bench_alloc>
  10043f:	a3 14 49 10 00       	mov    %eax,0x104914
  100444:	c7 04 24 00 10 00 00 	movl   $0x1000,(%esp)
  10044b:	e8 dc 1e 00 00       	call   10232c <bench_alloc>
  100450:	a3 0c 49 10 00       	mov    %eax,0x10490c
  100455:	c7 05 08 49 10 00 00 	movl   $0x0,0x104908
  10045c:	00 00 00 
  10045f:	c7 04 24 01 00 00 00 	movl   $0x1,(%esp)
  100466:	e8 49 1f 00 00       	call   1023b4 <bench_srand>
  10046b:	83 c4 10             	add    $0x10,%esp
  10046e:	a1 28 49 10 00       	mov    0x104928,%eax
  100473:	85 c0                	test   %eax,%eax
  100475:	7e 29                	jle    1004a0 <bench_bf_prepare+0xc8>
  100477:	31 db                	xor    %ebx,%ebx
  100479:	be 3e 00 00 00       	mov    $0x3e,%esi
  10047e:	66 90                	xchg   %ax,%ax
  100480:	e8 43 1f 00 00       	call   1023c8 <bench_rand>
  100485:	31 d2                	xor    %edx,%edx
  100487:	f7 f6                	div    %esi
  100489:	8a 92 14 40 10 00    	mov    0x104014(%edx),%dl
  10048f:	a1 14 49 10 00       	mov    0x104914,%eax
  100494:	88 14 18             	mov    %dl,(%eax,%ebx,1)
  100497:	43                   	inc    %ebx
  100498:	39 1d 28 49 10 00    	cmp    %ebx,0x104928
  10049e:	7f e0                	jg     100480 <bench_bf_prepare+0xa8>
  1004a0:	8d 65 f8             	lea    -0x8(%ebp),%esp
  1004a3:	5b                   	pop    %ebx
  1004a4:	5e                   	pop    %esi
  1004a5:	5d                   	pop    %ebp
  1004a6:	c3                   	ret    
  1004a7:	90                   	nop

001004a8 <bench_bf_run>:
  1004a8:	55                   	push   %ebp
  1004a9:	89 e5                	mov    %esp,%ebp
  1004ab:	57                   	push   %edi
  1004ac:	56                   	push   %esi
  1004ad:	53                   	push   %ebx
  1004ae:	83 ec 14             	sub    $0x14,%esp
  1004b1:	8b 1d 18 49 10 00    	mov    0x104918,%ebx
  1004b7:	8a 0b                	mov    (%ebx),%cl
  1004b9:	8b 15 24 49 10 00    	mov    0x104924,%edx
  1004bf:	8b 35 1c 49 10 00    	mov    0x10491c,%esi
  1004c5:	84 c9                	test   %cl,%cl
  1004c7:	0f 84 df 02 00 00    	je     1007ac <bench_bf_run+0x304>
  1004cd:	a1 20 49 10 00       	mov    0x104920,%eax
  1004d2:	89 45 e8             	mov    %eax,-0x18(%ebp)
  1004d5:	43                   	inc    %ebx
  1004d6:	c6 45 e7 00          	movb   $0x0,-0x19(%ebp)
  1004da:	31 ff                	xor    %edi,%edi
  1004dc:	31 c0                	xor    %eax,%eax
  1004de:	89 5d f0             	mov    %ebx,-0x10(%ebp)
  1004e1:	89 fb                	mov    %edi,%ebx
  1004e3:	88 5d ec             	mov    %bl,-0x14(%ebp)
  1004e6:	8b 5d f0             	mov    -0x10(%ebp),%ebx
  1004e9:	8d 7b ff             	lea    -0x1(%ebx),%edi
  1004ec:	89 fb                	mov    %edi,%ebx
  1004ee:	83 e9 2b             	sub    $0x2b,%ecx
  1004f1:	80 f9 32             	cmp    $0x32,%cl
  1004f4:	77 61                	ja     100557 <bench_bf_run+0xaf>
  1004f6:	66 90                	xchg   %ax,%ax
  1004f8:	0f b6 c9             	movzbl %cl,%ecx
  1004fb:	ff 24 8d 54 40 10 00 	jmp    *0x104054(,%ecx,4)
  100502:	66 90                	xchg   %ax,%ax
  100504:	85 f6                	test   %esi,%esi
  100506:	0f 84 88 02 00 00    	je     100794 <bench_bf_run+0x2ec>
  10050c:	4e                   	dec    %esi
  10050d:	8b 7d e8             	mov    -0x18(%ebp),%edi
  100510:	0f b7 0c 77          	movzwl (%edi,%esi,2),%ecx
  100514:	0f b7 f8             	movzwl %ax,%edi
  100517:	8d 3c ba             	lea    (%edx,%edi,4),%edi
  10051a:	66 c7 07 08 00       	movw   $0x8,(%edi)
  10051f:	66 89 4f 02          	mov    %cx,0x2(%edi)
  100523:	66 89 44 8a 02       	mov    %ax,0x2(%edx,%ecx,4)
  100528:	c6 45 ec 01          	movb   $0x1,-0x14(%ebp)
  10052c:	40                   	inc    %eax
  10052d:	8b 5d f0             	mov    -0x10(%ebp),%ebx
  100530:	8a 0b                	mov    (%ebx),%cl
  100532:	84 c9                	test   %cl,%cl
  100534:	74 2a                	je     100560 <bench_bf_run+0xb8>
  100536:	66 3d 00 10          	cmp    $0x1000,%ax
  10053a:	0f 84 28 02 00 00    	je     100768 <bench_bf_run+0x2c0>
  100540:	ff 45 f0             	incl   -0x10(%ebp)
  100543:	c6 45 e7 01          	movb   $0x1,-0x19(%ebp)
  100547:	8b 5d f0             	mov    -0x10(%ebp),%ebx
  10054a:	8d 7b ff             	lea    -0x1(%ebx),%edi
  10054d:	89 fb                	mov    %edi,%ebx
  10054f:	83 e9 2b             	sub    $0x2b,%ecx
  100552:	80 f9 32             	cmp    $0x32,%cl
  100555:	76 a1                	jbe    1004f8 <bench_bf_run+0x50>
  100557:	8b 5d f0             	mov    -0x10(%ebp),%ebx
  10055a:	8a 0b                	mov    (%ebx),%cl
  10055c:	84 c9                	test   %cl,%cl
  10055e:	75 e0                	jne    100540 <bench_bf_run+0x98>
  100560:	0f b6 7d ec          	movzbl -0x14(%ebp),%edi
  100564:	89 f9                	mov    %edi,%ecx
  100566:	84 c9                	test   %cl,%cl
  100568:	74 06                	je     100570 <bench_bf_run+0xc8>
  10056a:	89 35 1c 49 10 00    	mov    %esi,0x10491c
  100570:	89 1d 18 49 10 00    	mov    %ebx,0x104918
  100576:	8b 0d 1c 49 10 00    	mov    0x10491c,%ecx
  10057c:	85 c9                	test   %ecx,%ecx
  10057e:	0f 85 d0 01 00 00    	jne    100754 <bench_bf_run+0x2ac>
  100584:	66 3d 00 10          	cmp    $0x1000,%ax
  100588:	0f 84 c6 01 00 00    	je     100754 <bench_bf_run+0x2ac>
  10058e:	0f b7 c0             	movzwl %ax,%eax
  100591:	8d 04 82             	lea    (%edx,%eax,4),%eax
  100594:	66 c7 00 00 00       	movw   $0x0,(%eax)
  100599:	0f b7 02             	movzwl (%edx),%eax
  10059c:	66 85 c0             	test   %ax,%ax
  10059f:	0f 84 0b 01 00 00    	je     1006b0 <bench_bf_run+0x208>
  1005a5:	8b 35 10 49 10 00    	mov    0x104910,%esi
  1005ab:	8b 1d 14 49 10 00    	mov    0x104914,%ebx
  1005b1:	89 5d e8             	mov    %ebx,-0x18(%ebp)
  1005b4:	8b 1d 0c 49 10 00    	mov    0x10490c,%ebx
  1005ba:	89 5d e0             	mov    %ebx,-0x20(%ebp)
  1005bd:	8b 3d 08 49 10 00    	mov    0x104908,%edi
  1005c3:	89 7d ec             	mov    %edi,-0x14(%ebp)
  1005c6:	89 d7                	mov    %edx,%edi
  1005c8:	c6 45 e6 00          	movb   $0x0,-0x1a(%ebp)
  1005cc:	c6 45 e7 00          	movb   $0x0,-0x19(%ebp)
  1005d0:	31 db                	xor    %ebx,%ebx
  1005d2:	31 c9                	xor    %ecx,%ecx
  1005d4:	89 55 f0             	mov    %edx,-0x10(%ebp)
  1005d7:	90                   	nop
  1005d8:	66 83 f8 08          	cmp    $0x8,%ax
  1005dc:	0f 87 b2 00 00 00    	ja     100694 <bench_bf_run+0x1ec>
  1005e2:	ff 24 85 20 41 10 00 	jmp    *0x104120(,%eax,4)
  1005e9:	8d 76 00             	lea    0x0(%esi),%esi
  1005ec:	0f b7 c8             	movzwl %ax,%ecx
  1005ef:	66 c7 04 8a 07 00    	movw   $0x7,(%edx,%ecx,4)
  1005f5:	81 fe 00 02 00 00    	cmp    $0x200,%esi
  1005fb:	0f 84 33 01 00 00    	je     100734 <bench_bf_run+0x28c>
  100601:	8b 7d e8             	mov    -0x18(%ebp),%edi
  100604:	66 89 04 77          	mov    %ax,(%edi,%esi,2)
  100608:	46                   	inc    %esi
  100609:	c6 45 ec 01          	movb   $0x1,-0x14(%ebp)
  10060d:	e9 1a ff ff ff       	jmp    10052c <bench_bf_run+0x84>
  100612:	66 90                	xchg   %ax,%ax
  100614:	0f b7 c8             	movzwl %ax,%ecx
  100617:	66 c7 04 8a 01 00    	movw   $0x1,(%edx,%ecx,4)
  10061d:	e9 0a ff ff ff       	jmp    10052c <bench_bf_run+0x84>
  100622:	66 90                	xchg   %ax,%ax
  100624:	0f b7 c8             	movzwl %ax,%ecx
  100627:	66 c7 04 8a 02 00    	movw   $0x2,(%edx,%ecx,4)
  10062d:	e9 fa fe ff ff       	jmp    10052c <bench_bf_run+0x84>
  100632:	66 90                	xchg   %ax,%ax
  100634:	0f b7 c8             	movzwl %ax,%ecx
  100637:	66 c7 04 8a 05 00    	movw   $0x5,(%edx,%ecx,4)
  10063d:	e9 ea fe ff ff       	jmp    10052c <bench_bf_run+0x84>
  100642:	66 90                	xchg   %ax,%ax
  100644:	0f b7 c8             	movzwl %ax,%ecx
  100647:	66 c7 04 8a 04 00    	movw   $0x4,(%edx,%ecx,4)
  10064d:	e9 da fe ff ff       	jmp    10052c <bench_bf_run+0x84>
  100652:	66 90                	xchg   %ax,%ax
  100654:	0f b7 c8             	movzwl %ax,%ecx
  100657:	66 c7 04 8a 06 00    	movw   $0x6,(%edx,%ecx,4)
  10065d:	e9 ca fe ff ff       	jmp    10052c <bench_bf_run+0x84>
  100662:	66 90                	xchg   %ax,%ax
  100664:	0f b7 c8             	movzwl %ax,%ecx
  100667:	66 c7 04 8a 03 00    	movw   $0x3,(%edx,%ecx,4)
  10066d:	e9 ba fe ff ff       	jmp    10052c <bench_bf_run+0x84>
  100672:	66 90                	xchg   %ax,%ax
  100674:	66 83 3c 4e 00       	cmpw   $0x0,(%esi,%ecx,2)
  100679:	74 05                	je     100680 <bench_bf_run+0x1d8>
  10067b:	0f b7 5f 02          	movzwl 0x2(%edi),%ebx
  10067f:	90                   	nop
  100680:	43                   	inc    %ebx
  100681:	8b 45 f0             	mov    -0x10(%ebp),%eax
  100684:	8d 3c 98             	lea    (%eax,%ebx,4),%edi
  100687:	0f b7 07             	movzwl (%edi),%eax
  10068a:	66 85 c0             	test   %ax,%ax
  10068d:	0f 85 45 ff ff ff    	jne    1005d8 <bench_bf_run+0x130>
  100693:	90                   	nop
  100694:	80 7d e7 00          	cmpb   $0x0,-0x19(%ebp)
  100698:	74 08                	je     1006a2 <bench_bf_run+0x1fa>
  10069a:	8b 45 ec             	mov    -0x14(%ebp),%eax
  10069d:	a3 08 49 10 00       	mov    %eax,0x104908
  1006a2:	80 7d e6 00          	cmpb   $0x0,-0x1a(%ebp)
  1006a6:	74 08                	je     1006b0 <bench_bf_run+0x208>
  1006a8:	8b 45 e8             	mov    -0x18(%ebp),%eax
  1006ab:	a3 14 49 10 00       	mov    %eax,0x104914
  1006b0:	83 c4 14             	add    $0x14,%esp
  1006b3:	5b                   	pop    %ebx
  1006b4:	5e                   	pop    %esi
  1006b5:	5f                   	pop    %edi
  1006b6:	5d                   	pop    %ebp
  1006b7:	c3                   	ret    
  1006b8:	66 83 3c 4e 00       	cmpw   $0x0,(%esi,%ecx,2)
  1006bd:	75 c1                	jne    100680 <bench_bf_run+0x1d8>
  1006bf:	eb ba                	jmp    10067b <bench_bf_run+0x1d3>
  1006c1:	8d 76 00             	lea    0x0(%esi),%esi
  1006c4:	8b 7d e8             	mov    -0x18(%ebp),%edi
  1006c7:	66 0f be 07          	movsbw (%edi),%ax
  1006cb:	66 89 04 4e          	mov    %ax,(%esi,%ecx,2)
  1006cf:	8d 47 01             	lea    0x1(%edi),%eax
  1006d2:	89 45 e8             	mov    %eax,-0x18(%ebp)
  1006d5:	c6 45 e6 01          	movb   $0x1,-0x1a(%ebp)
  1006d9:	eb a5                	jmp    100680 <bench_bf_run+0x1d8>
  1006db:	90                   	nop
  1006dc:	8b 55 e0             	mov    -0x20(%ebp),%edx
  1006df:	8b 7d ec             	mov    -0x14(%ebp),%edi
  1006e2:	8a 04 4e             	mov    (%esi,%ecx,2),%al
  1006e5:	88 04 3a             	mov    %al,(%edx,%edi,1)
  1006e8:	8d 47 01             	lea    0x1(%edi),%eax
  1006eb:	89 45 ec             	mov    %eax,-0x14(%ebp)
  1006ee:	c6 45 e7 01          	movb   $0x1,-0x19(%ebp)
  1006f2:	eb 8c                	jmp    100680 <bench_bf_run+0x1d8>
  1006f4:	66 ff 0c 4e          	decw   (%esi,%ecx,2)
  1006f8:	eb 86                	jmp    100680 <bench_bf_run+0x1d8>
  1006fa:	66 90                	xchg   %ax,%ax
  1006fc:	66 ff 04 4e          	incw   (%esi,%ecx,2)
  100700:	e9 7b ff ff ff       	jmp    100680 <bench_bf_run+0x1d8>
  100705:	8d 76 00             	lea    0x0(%esi),%esi
  100708:	49                   	dec    %ecx
  100709:	43                   	inc    %ebx
  10070a:	8b 45 f0             	mov    -0x10(%ebp),%eax
  10070d:	8d 3c 98             	lea    (%eax,%ebx,4),%edi
  100710:	0f b7 07             	movzwl (%edi),%eax
  100713:	66 85 c0             	test   %ax,%ax
  100716:	0f 84 78 ff ff ff    	je     100694 <bench_bf_run+0x1ec>
  10071c:	81 f9 ff 0f 00 00    	cmp    $0xfff,%ecx
  100722:	0f 86 b0 fe ff ff    	jbe    1005d8 <bench_bf_run+0x130>
  100728:	e9 67 ff ff ff       	jmp    100694 <bench_bf_run+0x1ec>
  10072d:	8d 76 00             	lea    0x0(%esi),%esi
  100730:	41                   	inc    %ecx
  100731:	eb d6                	jmp    100709 <bench_bf_run+0x261>
  100733:	90                   	nop
  100734:	0f b6 7d ec          	movzbl -0x14(%ebp),%edi
  100738:	89 f8                	mov    %edi,%eax
  10073a:	84 c0                	test   %al,%al
  10073c:	74 0a                	je     100748 <bench_bf_run+0x2a0>
  10073e:	c7 05 1c 49 10 00 00 	movl   $0x200,0x10491c
  100745:	02 00 00 
  100748:	80 7d e7 00          	cmpb   $0x0,-0x19(%ebp)
  10074c:	74 06                	je     100754 <bench_bf_run+0x2ac>
  10074e:	89 1d 18 49 10 00    	mov    %ebx,0x104918
  100754:	0f b7 02             	movzwl (%edx),%eax
  100757:	66 85 c0             	test   %ax,%ax
  10075a:	0f 85 45 fe ff ff    	jne    1005a5 <bench_bf_run+0xfd>
  100760:	e9 4b ff ff ff       	jmp    1006b0 <bench_bf_run+0x208>
  100765:	8d 76 00             	lea    0x0(%esi),%esi
  100768:	8b 5d f0             	mov    -0x10(%ebp),%ebx
  10076b:	0f b6 7d ec          	movzbl -0x14(%ebp),%edi
  10076f:	89 f8                	mov    %edi,%eax
  100771:	84 c0                	test   %al,%al
  100773:	74 06                	je     10077b <bench_bf_run+0x2d3>
  100775:	89 35 1c 49 10 00    	mov    %esi,0x10491c
  10077b:	89 1d 18 49 10 00    	mov    %ebx,0x104918
  100781:	0f b7 02             	movzwl (%edx),%eax
  100784:	66 85 c0             	test   %ax,%ax
  100787:	0f 85 18 fe ff ff    	jne    1005a5 <bench_bf_run+0xfd>
  10078d:	e9 1e ff ff ff       	jmp    1006b0 <bench_bf_run+0x208>
  100792:	66 90                	xchg   %ax,%ax
  100794:	0f b6 7d ec          	movzbl -0x14(%ebp),%edi
  100798:	89 f8                	mov    %edi,%eax
  10079a:	84 c0                	test   %al,%al
  10079c:	74 aa                	je     100748 <bench_bf_run+0x2a0>
  10079e:	c7 05 1c 49 10 00 00 	movl   $0x0,0x10491c
  1007a5:	00 00 00 
  1007a8:	eb 9e                	jmp    100748 <bench_bf_run+0x2a0>
  1007aa:	66 90                	xchg   %ax,%ax
  1007ac:	85 f6                	test   %esi,%esi
  1007ae:	75 a4                	jne    100754 <bench_bf_run+0x2ac>
  1007b0:	89 d0                	mov    %edx,%eax
  1007b2:	e9 dd fd ff ff       	jmp    100594 <bench_bf_run+0xec>
  1007b7:	90                   	nop

001007b8 <bench_bf_validate>:
  1007b8:	55                   	push   %ebp
  1007b9:	89 e5                	mov    %esp,%ebp
  1007bb:	83 ec 10             	sub    $0x10,%esp
  1007be:	a1 0c 49 10 00       	mov    0x10490c,%eax
  1007c3:	8b 15 08 49 10 00    	mov    0x104908,%edx
  1007c9:	01 c2                	add    %eax,%edx
  1007cb:	52                   	push   %edx
  1007cc:	50                   	push   %eax
  1007cd:	e8 26 1c 00 00       	call   1023f8 <checksum>
  1007d2:	83 c4 10             	add    $0x10,%esp
  1007d5:	8b 0d 28 49 10 00    	mov    0x104928,%ecx
  1007db:	39 0d 08 49 10 00    	cmp    %ecx,0x104908
  1007e1:	74 05                	je     1007e8 <bench_bf_validate+0x30>
  1007e3:	31 c0                	xor    %eax,%eax
  1007e5:	c9                   	leave  
  1007e6:	c3                   	ret    
  1007e7:	90                   	nop
  1007e8:	8b 15 88 49 10 00    	mov    0x104988,%edx
  1007ee:	39 42 0c             	cmp    %eax,0xc(%edx)
  1007f1:	0f 94 c0             	sete   %al
  1007f4:	0f b6 c0             	movzbl %al,%eax
  1007f7:	c9                   	leave  
  1007f8:	c3                   	ret    
  1007f9:	66 90                	xchg   %ax,%ax
  1007fb:	90                   	nop

001007fc <bench_fib_prepare>:
  1007fc:	55                   	push   %ebp
  1007fd:	89 e5                	mov    %esp,%ebp
  1007ff:	53                   	push   %ebx
  100800:	83 ec 10             	sub    $0x10,%esp
  100803:	a1 88 49 10 00       	mov    0x104988,%eax
  100808:	8b 18                	mov    (%eax),%ebx
  10080a:	89 1d 3c 49 10 00    	mov    %ebx,0x10493c
  100810:	0f af db             	imul   %ebx,%ebx
  100813:	c1 e3 02             	shl    $0x2,%ebx
  100816:	53                   	push   %ebx
  100817:	e8 10 1b 00 00       	call   10232c <bench_alloc>
  10081c:	a3 38 49 10 00       	mov    %eax,0x104938
  100821:	89 1c 24             	mov    %ebx,(%esp)
  100824:	e8 03 1b 00 00       	call   10232c <bench_alloc>
  100829:	a3 30 49 10 00       	mov    %eax,0x104930
  10082e:	89 1c 24             	mov    %ebx,(%esp)
  100831:	e8 f6 1a 00 00       	call   10232c <bench_alloc>
  100836:	a3 34 49 10 00       	mov    %eax,0x104934
  10083b:	89 1c 24             	mov    %ebx,(%esp)
  10083e:	e8 e9 1a 00 00       	call   10232c <bench_alloc>
  100843:	a3 2c 49 10 00       	mov    %eax,0x10492c
  100848:	83 c4 10             	add    $0x10,%esp
  10084b:	8b 5d fc             	mov    -0x4(%ebp),%ebx
  10084e:	c9                   	leave  
  10084f:	c3                   	ret    

00100850 <bench_fib_run>:
  100850:	55                   	push   %ebp
  100851:	89 e5                	mov    %esp,%ebp
  100853:	57                   	push   %edi
  100854:	56                   	push   %esi
  100855:	53                   	push   %ebx
  100856:	83 ec 48             	sub    $0x48,%esp
  100859:	a1 3c 49 10 00       	mov    0x10493c,%eax
  10085e:	89 45 f0             	mov    %eax,-0x10(%ebp)
  100861:	8b 3d 30 49 10 00    	mov    0x104930,%edi
  100867:	89 7d d8             	mov    %edi,-0x28(%ebp)
  10086a:	8b 3d 34 49 10 00    	mov    0x104934,%edi
  100870:	89 7d b4             	mov    %edi,-0x4c(%ebp)
  100873:	85 c0                	test   %eax,%eax
  100875:	7e 69                	jle    1008e0 <bench_fib_run+0x90>
  100877:	8b 45 f0             	mov    -0x10(%ebp),%eax
  10087a:	8d 78 ff             	lea    -0x1(%eax),%edi
  10087d:	89 7d ec             	mov    %edi,-0x14(%ebp)
  100880:	c1 e0 02             	shl    $0x2,%eax
  100883:	89 45 e4             	mov    %eax,-0x1c(%ebp)
  100886:	8b 1d 38 49 10 00    	mov    0x104938,%ebx
  10088c:	8b 75 d8             	mov    -0x28(%ebp),%esi
  10088f:	8b 4d b4             	mov    -0x4c(%ebp),%ecx
  100892:	31 ff                	xor    %edi,%edi
  100894:	c7 45 e8 00 00 00 00 	movl   $0x0,-0x18(%ebp)
  10089b:	ff 45 e8             	incl   -0x18(%ebp)
  10089e:	31 c0                	xor    %eax,%eax
  1008a0:	eb 20                	jmp    1008c2 <bench_fib_run+0x72>
  1008a2:	66 90                	xchg   %ax,%ax
  1008a4:	31 d2                	xor    %edx,%edx
  1008a6:	3b 45 e8             	cmp    -0x18(%ebp),%eax
  1008a9:	0f 94 c2             	sete   %dl
  1008ac:	89 14 83             	mov    %edx,(%ebx,%eax,4)
  1008af:	89 14 86             	mov    %edx,(%esi,%eax,4)
  1008b2:	31 d2                	xor    %edx,%edx
  1008b4:	39 f8                	cmp    %edi,%eax
  1008b6:	0f 94 c2             	sete   %dl
  1008b9:	89 14 81             	mov    %edx,(%ecx,%eax,4)
  1008bc:	40                   	inc    %eax
  1008bd:	3b 45 f0             	cmp    -0x10(%ebp),%eax
  1008c0:	74 0c                	je     1008ce <bench_fib_run+0x7e>
  1008c2:	39 7d ec             	cmp    %edi,-0x14(%ebp)
  1008c5:	75 dd                	jne    1008a4 <bench_fib_run+0x54>
  1008c7:	ba 01 00 00 00       	mov    $0x1,%edx
  1008cc:	eb de                	jmp    1008ac <bench_fib_run+0x5c>
  1008ce:	47                   	inc    %edi
  1008cf:	8b 45 e4             	mov    -0x1c(%ebp),%eax
  1008d2:	01 c3                	add    %eax,%ebx
  1008d4:	01 c6                	add    %eax,%esi
  1008d6:	01 c1                	add    %eax,%ecx
  1008d8:	8b 55 e8             	mov    -0x18(%ebp),%edx
  1008db:	39 55 f0             	cmp    %edx,-0x10(%ebp)
  1008de:	75 bb                	jne    10089b <bench_fib_run+0x4b>
  1008e0:	8b 4d f0             	mov    -0x10(%ebp),%ecx
  1008e3:	8d 3c 8d 00 00 00 00 	lea    0x0(,%ecx,4),%edi
  1008ea:	89 7d e4             	mov    %edi,-0x1c(%ebp)
  1008ed:	8b 35 2c 49 10 00    	mov    0x10492c,%esi
  1008f3:	89 75 c4             	mov    %esi,-0x3c(%ebp)
  1008f6:	89 f0                	mov    %esi,%eax
  1008f8:	01 f8                	add    %edi,%eax
  1008fa:	89 45 b0             	mov    %eax,-0x50(%ebp)
  1008fd:	8b 5d b4             	mov    -0x4c(%ebp),%ebx
  100900:	89 d8                	mov    %ebx,%eax
  100902:	01 f8                	add    %edi,%eax
  100904:	89 45 ac             	mov    %eax,-0x54(%ebp)
  100907:	89 c8                	mov    %ecx,%eax
  100909:	f7 d8                	neg    %eax
  10090b:	8d 0c 85 00 00 00 00 	lea    0x0(,%eax,4),%ecx
  100912:	89 4d c0             	mov    %ecx,-0x40(%ebp)
  100915:	29 f3                	sub    %esi,%ebx
  100917:	89 da                	mov    %ebx,%edx
  100919:	29 fa                	sub    %edi,%edx
  10091b:	89 55 bc             	mov    %edx,-0x44(%ebp)
  10091e:	c7 45 b8 1f 00 00 00 	movl   $0x1f,-0x48(%ebp)
  100925:	c7 45 c8 d3 ff ff 7f 	movl   $0x7fffffd3,-0x38(%ebp)
  10092c:	c1 e0 03             	shl    $0x3,%eax
  10092f:	89 45 d0             	mov    %eax,-0x30(%ebp)
  100932:	66 90                	xchg   %ax,%ax
  100934:	f6 45 c8 01          	testb  $0x1,-0x38(%ebp)
  100938:	0f 85 b1 00 00 00    	jne    1009ef <bench_fib_run+0x19f>
  10093e:	8b 45 f0             	mov    -0x10(%ebp),%eax
  100941:	85 c0                	test   %eax,%eax
  100943:	0f 8e 92 00 00 00    	jle    1009db <bench_fib_run+0x18b>
  100949:	8b 7d d8             	mov    -0x28(%ebp),%edi
  10094c:	89 7d dc             	mov    %edi,-0x24(%ebp)
  10094f:	8b 45 c4             	mov    -0x3c(%ebp),%eax
  100952:	89 45 ec             	mov    %eax,-0x14(%ebp)
  100955:	c7 45 e0 00 00 00 00 	movl   $0x0,-0x20(%ebp)
  10095c:	8b 45 d8             	mov    -0x28(%ebp),%eax
  10095f:	89 45 e8             	mov    %eax,-0x18(%ebp)
  100962:	31 d2                	xor    %edx,%edx
  100964:	8b 45 ec             	mov    -0x14(%ebp),%eax
  100967:	c7 04 90 00 00 00 00 	movl   $0x0,(%eax,%edx,4)
  10096e:	8b 75 e8             	mov    -0x18(%ebp),%esi
  100971:	31 db                	xor    %ebx,%ebx
  100973:	31 c0                	xor    %eax,%eax
  100975:	8d 76 00             	lea    0x0(%esi),%esi
  100978:	8b 0c 87             	mov    (%edi,%eax,4),%ecx
  10097b:	0f af 0e             	imul   (%esi),%ecx
  10097e:	01 cb                	add    %ecx,%ebx
  100980:	8b 4d ec             	mov    -0x14(%ebp),%ecx
  100983:	89 1c 91             	mov    %ebx,(%ecx,%edx,4)
  100986:	40                   	inc    %eax
  100987:	03 75 e4             	add    -0x1c(%ebp),%esi
  10098a:	39 45 f0             	cmp    %eax,-0x10(%ebp)
  10098d:	7f e9                	jg     100978 <bench_fib_run+0x128>
  10098f:	42                   	inc    %edx
  100990:	83 45 e8 04          	addl   $0x4,-0x18(%ebp)
  100994:	39 55 f0             	cmp    %edx,-0x10(%ebp)
  100997:	7f cb                	jg     100964 <bench_fib_run+0x114>
  100999:	ff 45 e0             	incl   -0x20(%ebp)
  10099c:	8b 45 e0             	mov    -0x20(%ebp),%eax
  10099f:	8b 75 e4             	mov    -0x1c(%ebp),%esi
  1009a2:	01 f7                	add    %esi,%edi
  1009a4:	01 75 ec             	add    %esi,-0x14(%ebp)
  1009a7:	39 45 f0             	cmp    %eax,-0x10(%ebp)
  1009aa:	7f b0                	jg     10095c <bench_fib_run+0x10c>
  1009ac:	8b 55 c4             	mov    -0x3c(%ebp),%edx
  1009af:	31 c9                	xor    %ecx,%ecx
  1009b1:	8b 75 f0             	mov    -0x10(%ebp),%esi
  1009b4:	8b 5d dc             	mov    -0x24(%ebp),%ebx
  1009b7:	8b 7d e4             	mov    -0x1c(%ebp),%edi
  1009ba:	66 90                	xchg   %ax,%ax
  1009bc:	31 c0                	xor    %eax,%eax
  1009be:	89 4d ec             	mov    %ecx,-0x14(%ebp)
  1009c1:	8d 76 00             	lea    0x0(%esi),%esi
  1009c4:	8b 0c 82             	mov    (%edx,%eax,4),%ecx
  1009c7:	89 0c 83             	mov    %ecx,(%ebx,%eax,4)
  1009ca:	40                   	inc    %eax
  1009cb:	39 f0                	cmp    %esi,%eax
  1009cd:	7c f5                	jl     1009c4 <bench_fib_run+0x174>
  1009cf:	8b 4d ec             	mov    -0x14(%ebp),%ecx
  1009d2:	41                   	inc    %ecx
  1009d3:	01 fa                	add    %edi,%edx
  1009d5:	01 fb                	add    %edi,%ebx
  1009d7:	39 f1                	cmp    %esi,%ecx
  1009d9:	7c e1                	jl     1009bc <bench_fib_run+0x16c>
  1009db:	d1 7d c8             	sarl   -0x38(%ebp)
  1009de:	ff 4d b8             	decl   -0x48(%ebp)
  1009e1:	0f 85 4d ff ff ff    	jne    100934 <bench_fib_run+0xe4>
  1009e7:	83 c4 48             	add    $0x48,%esp
  1009ea:	5b                   	pop    %ebx
  1009eb:	5e                   	pop    %esi
  1009ec:	5f                   	pop    %edi
  1009ed:	5d                   	pop    %ebp
  1009ee:	c3                   	ret    
  1009ef:	8b 55 f0             	mov    -0x10(%ebp),%edx
  1009f2:	85 d2                	test   %edx,%edx
  1009f4:	7e e5                	jle    1009db <bench_fib_run+0x18b>
  1009f6:	8b 7d ac             	mov    -0x54(%ebp),%edi
  1009f9:	8b 45 b4             	mov    -0x4c(%ebp),%eax
  1009fc:	89 45 dc             	mov    %eax,-0x24(%ebp)
  1009ff:	8b 45 b0             	mov    -0x50(%ebp),%eax
  100a02:	89 45 e0             	mov    %eax,-0x20(%ebp)
  100a05:	c7 45 d4 00 00 00 00 	movl   $0x0,-0x2c(%ebp)
  100a0c:	89 7d ec             	mov    %edi,-0x14(%ebp)
  100a0f:	8b 7d e4             	mov    -0x1c(%ebp),%edi
  100a12:	66 90                	xchg   %ax,%ax
  100a14:	8b 75 c0             	mov    -0x40(%ebp),%esi
  100a17:	03 75 e0             	add    -0x20(%ebp),%esi
  100a1a:	89 75 cc             	mov    %esi,-0x34(%ebp)
  100a1d:	8b 45 d8             	mov    -0x28(%ebp),%eax
  100a20:	89 45 e8             	mov    %eax,-0x18(%ebp)
  100a23:	90                   	nop
  100a24:	c7 06 00 00 00 00    	movl   $0x0,(%esi)
  100a2a:	8b 5d e8             	mov    -0x18(%ebp),%ebx
  100a2d:	8b 45 dc             	mov    -0x24(%ebp),%eax
  100a30:	31 c9                	xor    %ecx,%ecx
  100a32:	66 90                	xchg   %ax,%ax
  100a34:	8b 10                	mov    (%eax),%edx
  100a36:	0f af 13             	imul   (%ebx),%edx
  100a39:	01 d1                	add    %edx,%ecx
  100a3b:	89 0e                	mov    %ecx,(%esi)
  100a3d:	83 c0 04             	add    $0x4,%eax
  100a40:	01 fb                	add    %edi,%ebx
  100a42:	3b 45 ec             	cmp    -0x14(%ebp),%eax
  100a45:	75 ed                	jne    100a34 <bench_fib_run+0x1e4>
  100a47:	83 c6 04             	add    $0x4,%esi
  100a4a:	83 45 e8 04          	addl   $0x4,-0x18(%ebp)
  100a4e:	39 75 e0             	cmp    %esi,-0x20(%ebp)
  100a51:	75 d1                	jne    100a24 <bench_fib_run+0x1d4>
  100a53:	ff 45 d4             	incl   -0x2c(%ebp)
  100a56:	8b 75 d4             	mov    -0x2c(%ebp),%esi
  100a59:	8b 5d cc             	mov    -0x34(%ebp),%ebx
  100a5c:	2b 5d d0             	sub    -0x30(%ebp),%ebx
  100a5f:	89 5d e0             	mov    %ebx,-0x20(%ebp)
  100a62:	01 7d dc             	add    %edi,-0x24(%ebp)
  100a65:	01 f8                	add    %edi,%eax
  100a67:	89 45 ec             	mov    %eax,-0x14(%ebp)
  100a6a:	3b 75 f0             	cmp    -0x10(%ebp),%esi
  100a6d:	75 a5                	jne    100a14 <bench_fib_run+0x1c4>
  100a6f:	8b 4d b0             	mov    -0x50(%ebp),%ecx
  100a72:	31 f6                	xor    %esi,%esi
  100a74:	8b 7d c0             	mov    -0x40(%ebp),%edi
  100a77:	90                   	nop
  100a78:	8d 1c 39             	lea    (%ecx,%edi,1),%ebx
  100a7b:	8b 45 bc             	mov    -0x44(%ebp),%eax
  100a7e:	8d 14 08             	lea    (%eax,%ecx,1),%edx
  100a81:	89 d8                	mov    %ebx,%eax
  100a83:	89 5d ec             	mov    %ebx,-0x14(%ebp)
  100a86:	66 90                	xchg   %ax,%ax
  100a88:	8b 18                	mov    (%eax),%ebx
  100a8a:	89 1a                	mov    %ebx,(%edx)
  100a8c:	83 c0 04             	add    $0x4,%eax
  100a8f:	83 c2 04             	add    $0x4,%edx
  100a92:	39 c1                	cmp    %eax,%ecx
  100a94:	75 f2                	jne    100a88 <bench_fib_run+0x238>
  100a96:	8b 5d ec             	mov    -0x14(%ebp),%ebx
  100a99:	46                   	inc    %esi
  100a9a:	2b 5d d0             	sub    -0x30(%ebp),%ebx
  100a9d:	89 d9                	mov    %ebx,%ecx
  100a9f:	3b 75 f0             	cmp    -0x10(%ebp),%esi
  100aa2:	75 d4                	jne    100a78 <bench_fib_run+0x228>
  100aa4:	e9 a0 fe ff ff       	jmp    100949 <bench_fib_run+0xf9>
  100aa9:	8d 76 00             	lea    0x0(%esi),%esi

00100aac <bench_fib_validate>:
  100aac:	a1 3c 49 10 00       	mov    0x10493c,%eax
  100ab1:	8d 50 ff             	lea    -0x1(%eax),%edx
  100ab4:	0f af c2             	imul   %edx,%eax
  100ab7:	01 d0                	add    %edx,%eax
  100ab9:	8b 0d 34 49 10 00    	mov    0x104934,%ecx
  100abf:	8b 15 88 49 10 00    	mov    0x104988,%edx
  100ac5:	8b 52 0c             	mov    0xc(%edx),%edx
  100ac8:	39 14 81             	cmp    %edx,(%ecx,%eax,4)
  100acb:	0f 94 c0             	sete   %al
  100ace:	0f b6 c0             	movzbl %al,%eax
  100ad1:	c3                   	ret    
  100ad2:	66 90                	xchg   %ax,%ax

00100ad4 <_ZL9radixPassPiS_S_ii>:
  100ad4:	55                   	push   %ebp
  100ad5:	89 e5                	mov    %esp,%ebp
  100ad7:	57                   	push   %edi
  100ad8:	56                   	push   %esi
  100ad9:	53                   	push   %ebx
  100ada:	83 ec 28             	sub    $0x28,%esp
  100add:	89 c3                	mov    %eax,%ebx
  100adf:	89 55 e0             	mov    %edx,-0x20(%ebp)
  100ae2:	89 4d e4             	mov    %ecx,-0x1c(%ebp)
  100ae5:	8b 7d 0c             	mov    0xc(%ebp),%edi
  100ae8:	8d 34 bd 04 00 00 00 	lea    0x4(,%edi,4),%esi
  100aef:	56                   	push   %esi
  100af0:	e8 37 18 00 00       	call   10232c <bench_alloc>
  100af5:	83 c4 10             	add    $0x10,%esp
  100af8:	85 ff                	test   %edi,%edi
  100afa:	0f 88 88 00 00 00    	js     100b88 <_ZL9radixPassPiS_S_ii+0xb4>
  100b00:	89 c2                	mov    %eax,%edx
  100b02:	01 c6                	add    %eax,%esi
  100b04:	c7 02 00 00 00 00    	movl   $0x0,(%edx)
  100b0a:	83 c2 04             	add    $0x4,%edx
  100b0d:	39 d6                	cmp    %edx,%esi
  100b0f:	75 f3                	jne    100b04 <_ZL9radixPassPiS_S_ii+0x30>
  100b11:	8b 4d 08             	mov    0x8(%ebp),%ecx
  100b14:	85 c9                	test   %ecx,%ecx
  100b16:	7e 26                	jle    100b3e <_ZL9radixPassPiS_S_ii+0x6a>
  100b18:	89 da                	mov    %ebx,%edx
  100b1a:	8b 75 08             	mov    0x8(%ebp),%esi
  100b1d:	8d 34 b3             	lea    (%ebx,%esi,4),%esi
  100b20:	89 5d dc             	mov    %ebx,-0x24(%ebp)
  100b23:	8b 5d e4             	mov    -0x1c(%ebp),%ebx
  100b26:	66 90                	xchg   %ax,%ax
  100b28:	8b 0a                	mov    (%edx),%ecx
  100b2a:	8b 0c 8b             	mov    (%ebx,%ecx,4),%ecx
  100b2d:	ff 04 88             	incl   (%eax,%ecx,4)
  100b30:	83 c2 04             	add    $0x4,%edx
  100b33:	39 d6                	cmp    %edx,%esi
  100b35:	75 f1                	jne    100b28 <_ZL9radixPassPiS_S_ii+0x54>
  100b37:	8b 5d dc             	mov    -0x24(%ebp),%ebx
  100b3a:	85 ff                	test   %edi,%edi
  100b3c:	78 1a                	js     100b58 <_ZL9radixPassPiS_S_ii+0x84>
  100b3e:	31 c9                	xor    %ecx,%ecx
  100b40:	31 d2                	xor    %edx,%edx
  100b42:	66 90                	xchg   %ax,%ax
  100b44:	8b 34 90             	mov    (%eax,%edx,4),%esi
  100b47:	89 0c 90             	mov    %ecx,(%eax,%edx,4)
  100b4a:	01 f1                	add    %esi,%ecx
  100b4c:	42                   	inc    %edx
  100b4d:	39 d7                	cmp    %edx,%edi
  100b4f:	7d f3                	jge    100b44 <_ZL9radixPassPiS_S_ii+0x70>
  100b51:	8b 75 08             	mov    0x8(%ebp),%esi
  100b54:	85 f6                	test   %esi,%esi
  100b56:	7e 26                	jle    100b7e <_ZL9radixPassPiS_S_ii+0xaa>
  100b58:	31 d2                	xor    %edx,%edx
  100b5a:	66 90                	xchg   %ax,%ax
  100b5c:	8b 0c 93             	mov    (%ebx,%edx,4),%ecx
  100b5f:	8b 7d e4             	mov    -0x1c(%ebp),%edi
  100b62:	8b 0c 8f             	mov    (%edi,%ecx,4),%ecx
  100b65:	8d 34 88             	lea    (%eax,%ecx,4),%esi
  100b68:	8b 0e                	mov    (%esi),%ecx
  100b6a:	8d 79 01             	lea    0x1(%ecx),%edi
  100b6d:	89 3e                	mov    %edi,(%esi)
  100b6f:	8b 34 93             	mov    (%ebx,%edx,4),%esi
  100b72:	8b 7d e0             	mov    -0x20(%ebp),%edi
  100b75:	89 34 8f             	mov    %esi,(%edi,%ecx,4)
  100b78:	42                   	inc    %edx
  100b79:	39 55 08             	cmp    %edx,0x8(%ebp)
  100b7c:	7f de                	jg     100b5c <_ZL9radixPassPiS_S_ii+0x88>
  100b7e:	8d 65 f4             	lea    -0xc(%ebp),%esp
  100b81:	5b                   	pop    %ebx
  100b82:	5e                   	pop    %esi
  100b83:	5f                   	pop    %edi
  100b84:	5d                   	pop    %ebp
  100b85:	c3                   	ret    
  100b86:	66 90                	xchg   %ax,%ax
  100b88:	8b 55 08             	mov    0x8(%ebp),%edx
  100b8b:	85 d2                	test   %edx,%edx
  100b8d:	7f 89                	jg     100b18 <_ZL9radixPassPiS_S_ii+0x44>
  100b8f:	eb ed                	jmp    100b7e <_ZL9radixPassPiS_S_ii+0xaa>
  100b91:	8d 76 00             	lea    0x0(%esi),%esi

00100b94 <_Z11suffixArrayPiS_ii>:
  100b94:	55                   	push   %ebp
  100b95:	89 e5                	mov    %esp,%ebp
  100b97:	57                   	push   %edi
  100b98:	56                   	push   %esi
  100b99:	53                   	push   %ebx
  100b9a:	83 ec 58             	sub    $0x58,%esp
  100b9d:	8b 7d 08             	mov    0x8(%ebp),%edi
  100ba0:	8b 45 10             	mov    0x10(%ebp),%eax
  100ba3:	8d 48 02             	lea    0x2(%eax),%ecx
  100ba6:	b8 56 55 55 55       	mov    $0x55555556,%eax
  100bab:	f7 e9                	imul   %ecx
  100bad:	c1 f9 1f             	sar    $0x1f,%ecx
  100bb0:	89 d3                	mov    %edx,%ebx
  100bb2:	29 cb                	sub    %ecx,%ebx
  100bb4:	b8 56 55 55 55       	mov    $0x55555556,%eax
  100bb9:	f7 6d 10             	imull  0x10(%ebp)
  100bbc:	8b 45 10             	mov    0x10(%ebp),%eax
  100bbf:	c1 f8 1f             	sar    $0x1f,%eax
  100bc2:	89 d6                	mov    %edx,%esi
  100bc4:	29 c6                	sub    %eax,%esi
  100bc6:	89 f0                	mov    %esi,%eax
  100bc8:	89 5d e4             	mov    %ebx,-0x1c(%ebp)
  100bcb:	01 d8                	add    %ebx,%eax
  100bcd:	89 c6                	mov    %eax,%esi
  100bcf:	89 45 d0             	mov    %eax,-0x30(%ebp)
  100bd2:	8d 14 85 0c 00 00 00 	lea    0xc(,%eax,4),%edx
  100bd9:	52                   	push   %edx
  100bda:	89 55 d8             	mov    %edx,-0x28(%ebp)
  100bdd:	e8 4a 17 00 00       	call   10232c <bench_alloc>
  100be2:	89 45 e0             	mov    %eax,-0x20(%ebp)
  100be5:	8d 1c b5 08 00 00 00 	lea    0x8(,%esi,4),%ebx
  100bec:	c7 04 18 00 00 00 00 	movl   $0x0,(%eax,%ebx,1)
  100bf3:	8d 4b fc             	lea    -0x4(%ebx),%ecx
  100bf6:	c7 44 18 fc 00 00 00 	movl   $0x0,-0x4(%eax,%ebx,1)
  100bfd:	00 
  100bfe:	89 4d dc             	mov    %ecx,-0x24(%ebp)
  100c01:	c7 44 18 f8 00 00 00 	movl   $0x0,-0x8(%eax,%ebx,1)
  100c08:	00 
  100c09:	8b 55 d8             	mov    -0x28(%ebp),%edx
  100c0c:	89 14 24             	mov    %edx,(%esp)
  100c0f:	e8 18 17 00 00       	call   10232c <bench_alloc>
  100c14:	89 45 bc             	mov    %eax,-0x44(%ebp)
  100c17:	c7 04 18 00 00 00 00 	movl   $0x0,(%eax,%ebx,1)
  100c1e:	8b 4d dc             	mov    -0x24(%ebp),%ecx
  100c21:	c7 04 08 00 00 00 00 	movl   $0x0,(%eax,%ecx,1)
  100c28:	c7 44 18 f8 00 00 00 	movl   $0x0,-0x8(%eax,%ebx,1)
  100c2f:	00 
  100c30:	8b 5d e4             	mov    -0x1c(%ebp),%ebx
  100c33:	8d 04 9d 00 00 00 00 	lea    0x0(,%ebx,4),%eax
  100c3a:	89 c6                	mov    %eax,%esi
  100c3c:	89 45 a8             	mov    %eax,-0x58(%ebp)
  100c3f:	89 04 24             	mov    %eax,(%esp)
  100c42:	e8 e5 16 00 00       	call   10232c <bench_alloc>
  100c47:	89 45 ac             	mov    %eax,-0x54(%ebp)
  100c4a:	89 34 24             	mov    %esi,(%esp)
  100c4d:	e8 da 16 00 00       	call   10232c <bench_alloc>
  100c52:	89 45 b8             	mov    %eax,-0x48(%ebp)
  100c55:	8b 45 10             	mov    0x10(%ebp),%eax
  100c58:	8d 48 01             	lea    0x1(%eax),%ecx
  100c5b:	b8 56 55 55 55       	mov    $0x55555556,%eax
  100c60:	f7 e9                	imul   %ecx
  100c62:	c1 f9 1f             	sar    $0x1f,%ecx
  100c65:	89 d0                	mov    %edx,%eax
  100c67:	29 c8                	sub    %ecx,%eax
  100c69:	29 c3                	sub    %eax,%ebx
  100c6b:	89 5d d8             	mov    %ebx,-0x28(%ebp)
  100c6e:	03 5d 10             	add    0x10(%ebp),%ebx
  100c71:	83 c4 10             	add    $0x10,%esp
  100c74:	85 db                	test   %ebx,%ebx
  100c76:	7e 29                	jle    100ca1 <_Z11suffixArrayPiS_ii+0x10d>
  100c78:	31 c9                	xor    %ecx,%ecx
  100c7a:	31 f6                	xor    %esi,%esi
  100c7c:	89 7d 08             	mov    %edi,0x8(%ebp)
  100c7f:	41                   	inc    %ecx
  100c80:	39 d9                	cmp    %ebx,%ecx
  100c82:	74 1a                	je     100c9e <_Z11suffixArrayPiS_ii+0x10a>
  100c84:	89 c8                	mov    %ecx,%eax
  100c86:	bf 03 00 00 00       	mov    $0x3,%edi
  100c8b:	99                   	cltd   
  100c8c:	f7 ff                	idiv   %edi
  100c8e:	85 d2                	test   %edx,%edx
  100c90:	74 ed                	je     100c7f <_Z11suffixArrayPiS_ii+0xeb>
  100c92:	8b 45 e0             	mov    -0x20(%ebp),%eax
  100c95:	89 0c b0             	mov    %ecx,(%eax,%esi,4)
  100c98:	46                   	inc    %esi
  100c99:	41                   	inc    %ecx
  100c9a:	39 d9                	cmp    %ebx,%ecx
  100c9c:	75 e6                	jne    100c84 <_Z11suffixArrayPiS_ii+0xf0>
  100c9e:	8b 7d 08             	mov    0x8(%ebp),%edi
  100ca1:	8d 4f 08             	lea    0x8(%edi),%ecx
  100ca4:	83 ec 08             	sub    $0x8,%esp
  100ca7:	ff 75 14             	pushl  0x14(%ebp)
  100caa:	8b 5d d0             	mov    -0x30(%ebp),%ebx
  100cad:	53                   	push   %ebx
  100cae:	8b 75 bc             	mov    -0x44(%ebp),%esi
  100cb1:	89 f2                	mov    %esi,%edx
  100cb3:	8b 45 e0             	mov    -0x20(%ebp),%eax
  100cb6:	e8 19 fe ff ff       	call   100ad4 <_ZL9radixPassPiS_S_ii>
  100cbb:	8d 4f 04             	lea    0x4(%edi),%ecx
  100cbe:	5a                   	pop    %edx
  100cbf:	58                   	pop    %eax
  100cc0:	ff 75 14             	pushl  0x14(%ebp)
  100cc3:	53                   	push   %ebx
  100cc4:	8b 55 e0             	mov    -0x20(%ebp),%edx
  100cc7:	89 f0                	mov    %esi,%eax
  100cc9:	e8 06 fe ff ff       	call   100ad4 <_ZL9radixPassPiS_S_ii>
  100cce:	58                   	pop    %eax
  100ccf:	5a                   	pop    %edx
  100cd0:	ff 75 14             	pushl  0x14(%ebp)
  100cd3:	53                   	push   %ebx
  100cd4:	89 f9                	mov    %edi,%ecx
  100cd6:	89 f2                	mov    %esi,%edx
  100cd8:	8b 45 e0             	mov    -0x20(%ebp),%eax
  100cdb:	e8 f4 fd ff ff       	call   100ad4 <_ZL9radixPassPiS_S_ii>
  100ce0:	83 c4 10             	add    $0x10,%esp
  100ce3:	85 db                	test   %ebx,%ebx
  100ce5:	0f 8e e7 00 00 00    	jle    100dd2 <_Z11suffixArrayPiS_ii+0x23e>
  100ceb:	8b 45 bc             	mov    -0x44(%ebp),%eax
  100cee:	89 c3                	mov    %eax,%ebx
  100cf0:	8b 75 d0             	mov    -0x30(%ebp),%esi
  100cf3:	8d 04 b0             	lea    (%eax,%esi,4),%eax
  100cf6:	89 45 b0             	mov    %eax,-0x50(%ebp)
  100cf9:	c7 45 b4 ff ff ff ff 	movl   $0xffffffff,-0x4c(%ebp)
  100d00:	ba ff ff ff ff       	mov    $0xffffffff,%edx
  100d05:	c7 45 c8 ff ff ff ff 	movl   $0xffffffff,-0x38(%ebp)
  100d0c:	c7 45 d4 00 00 00 00 	movl   $0x0,-0x2c(%ebp)
  100d13:	89 55 c0             	mov    %edx,-0x40(%ebp)
  100d16:	eb 46                	jmp    100d5e <_Z11suffixArrayPiS_ii+0x1ca>
  100d18:	ff 45 d4             	incl   -0x2c(%ebp)
  100d1b:	89 75 c8             	mov    %esi,-0x38(%ebp)
  100d1e:	b8 56 55 55 55       	mov    $0x55555556,%eax
  100d23:	f7 e9                	imul   %ecx
  100d25:	89 55 c4             	mov    %edx,-0x3c(%ebp)
  100d28:	89 c8                	mov    %ecx,%eax
  100d2a:	c1 f8 1f             	sar    $0x1f,%eax
  100d2d:	8b 75 c4             	mov    -0x3c(%ebp),%esi
  100d30:	29 c6                	sub    %eax,%esi
  100d32:	89 f0                	mov    %esi,%eax
  100d34:	8d 14 36             	lea    (%esi,%esi,1),%edx
  100d37:	01 f2                	add    %esi,%edx
  100d39:	29 d1                	sub    %edx,%ecx
  100d3b:	49                   	dec    %ecx
  100d3c:	74 03                	je     100d41 <_Z11suffixArrayPiS_ii+0x1ad>
  100d3e:	03 45 e4             	add    -0x1c(%ebp),%eax
  100d41:	8b 75 e0             	mov    -0x20(%ebp),%esi
  100d44:	8b 4d d4             	mov    -0x2c(%ebp),%ecx
  100d47:	89 0c 86             	mov    %ecx,(%esi,%eax,4)
  100d4a:	83 c3 04             	add    $0x4,%ebx
  100d4d:	8b 45 dc             	mov    -0x24(%ebp),%eax
  100d50:	89 45 c0             	mov    %eax,-0x40(%ebp)
  100d53:	8b 45 cc             	mov    -0x34(%ebp),%eax
  100d56:	89 45 b4             	mov    %eax,-0x4c(%ebp)
  100d59:	39 5d b0             	cmp    %ebx,-0x50(%ebp)
  100d5c:	74 2e                	je     100d8c <_Z11suffixArrayPiS_ii+0x1f8>
  100d5e:	8b 0b                	mov    (%ebx),%ecx
  100d60:	8d 04 8d 00 00 00 00 	lea    0x0(,%ecx,4),%eax
  100d67:	8b 34 07             	mov    (%edi,%eax,1),%esi
  100d6a:	8b 54 07 04          	mov    0x4(%edi,%eax,1),%edx
  100d6e:	89 55 dc             	mov    %edx,-0x24(%ebp)
  100d71:	8b 44 07 08          	mov    0x8(%edi,%eax,1),%eax
  100d75:	89 45 cc             	mov    %eax,-0x34(%ebp)
  100d78:	3b 75 c8             	cmp    -0x38(%ebp),%esi
  100d7b:	75 9b                	jne    100d18 <_Z11suffixArrayPiS_ii+0x184>
  100d7d:	39 55 c0             	cmp    %edx,-0x40(%ebp)
  100d80:	75 96                	jne    100d18 <_Z11suffixArrayPiS_ii+0x184>
  100d82:	39 45 b4             	cmp    %eax,-0x4c(%ebp)
  100d85:	75 91                	jne    100d18 <_Z11suffixArrayPiS_ii+0x184>
  100d87:	eb 95                	jmp    100d1e <_Z11suffixArrayPiS_ii+0x18a>
  100d89:	8d 76 00             	lea    0x0(%esi),%esi
  100d8c:	8b 5d d0             	mov    -0x30(%ebp),%ebx
  100d8f:	39 5d d4             	cmp    %ebx,-0x2c(%ebp)
  100d92:	0f 8c 64 02 00 00    	jl     100ffc <_Z11suffixArrayPiS_ii+0x468>
  100d98:	31 c0                	xor    %eax,%eax
  100d9a:	8b 4d d0             	mov    -0x30(%ebp),%ecx
  100d9d:	8b 5d e0             	mov    -0x20(%ebp),%ebx
  100da0:	8b 75 bc             	mov    -0x44(%ebp),%esi
  100da3:	90                   	nop
  100da4:	8b 14 83             	mov    (%ebx,%eax,4),%edx
  100da7:	89 44 96 fc          	mov    %eax,-0x4(%esi,%edx,4)
  100dab:	40                   	inc    %eax
  100dac:	39 c1                	cmp    %eax,%ecx
  100dae:	75 f4                	jne    100da4 <_Z11suffixArrayPiS_ii+0x210>
  100db0:	31 db                	xor    %ebx,%ebx
  100db2:	31 c0                	xor    %eax,%eax
  100db4:	8b 75 bc             	mov    -0x44(%ebp),%esi
  100db7:	90                   	nop
  100db8:	8b 14 86             	mov    (%esi,%eax,4),%edx
  100dbb:	3b 55 e4             	cmp    -0x1c(%ebp),%edx
  100dbe:	7d 0c                	jge    100dcc <_Z11suffixArrayPiS_ii+0x238>
  100dc0:	8d 0c 12             	lea    (%edx,%edx,1),%ecx
  100dc3:	01 ca                	add    %ecx,%edx
  100dc5:	8b 4d ac             	mov    -0x54(%ebp),%ecx
  100dc8:	89 14 99             	mov    %edx,(%ecx,%ebx,4)
  100dcb:	43                   	inc    %ebx
  100dcc:	40                   	inc    %eax
  100dcd:	39 45 d0             	cmp    %eax,-0x30(%ebp)
  100dd0:	7f e6                	jg     100db8 <_Z11suffixArrayPiS_ii+0x224>
  100dd2:	83 ec 08             	sub    $0x8,%esp
  100dd5:	ff 75 14             	pushl  0x14(%ebp)
  100dd8:	ff 75 e4             	pushl  -0x1c(%ebp)
  100ddb:	89 f9                	mov    %edi,%ecx
  100ddd:	8b 55 b8             	mov    -0x48(%ebp),%edx
  100de0:	8b 45 ac             	mov    -0x54(%ebp),%eax
  100de3:	e8 ec fc ff ff       	call   100ad4 <_ZL9radixPassPiS_S_ii>
  100de8:	83 c4 10             	add    $0x10,%esp
  100deb:	8b 45 10             	mov    0x10(%ebp),%eax
  100dee:	85 c0                	test   %eax,%eax
  100df0:	0f 8e 78 01 00 00    	jle    100f6e <_Z11suffixArrayPiS_ii+0x3da>
  100df6:	8b 45 bc             	mov    -0x44(%ebp),%eax
  100df9:	8b 5d d0             	mov    -0x30(%ebp),%ebx
  100dfc:	8d 04 98             	lea    (%eax,%ebx,4),%eax
  100dff:	89 45 b0             	mov    %eax,-0x50(%ebp)
  100e02:	8b 45 a8             	mov    -0x58(%ebp),%eax
  100e05:	03 45 b8             	add    -0x48(%ebp),%eax
  100e08:	89 45 a8             	mov    %eax,-0x58(%ebp)
  100e0b:	31 db                	xor    %ebx,%ebx
  100e0d:	c7 45 d4 00 00 00 00 	movl   $0x0,-0x2c(%ebp)
  100e14:	89 7d 08             	mov    %edi,0x8(%ebp)
  100e17:	89 5d dc             	mov    %ebx,-0x24(%ebp)
  100e1a:	eb 59                	jmp    100e75 <_Z11suffixArrayPiS_ii+0x2e1>
  100e1c:	8d 14 09             	lea    (%ecx,%ecx,1),%edx
  100e1f:	8d 54 11 01          	lea    0x1(%ecx,%edx,1),%edx
  100e23:	8b 75 e0             	mov    -0x20(%ebp),%esi
  100e26:	8b 04 86             	mov    (%esi,%eax,4),%eax
  100e29:	01 f9                	add    %edi,%ecx
  100e2b:	8b 75 e0             	mov    -0x20(%ebp),%esi
  100e2e:	8b 0c 8e             	mov    (%esi,%ecx,4),%ecx
  100e31:	8b 7d 08             	mov    0x8(%ebp),%edi
  100e34:	39 1c 97             	cmp    %ebx,(%edi,%edx,4)
  100e37:	0f 8c cb 00 00 00    	jl     100f08 <_Z11suffixArrayPiS_ii+0x374>
  100e3d:	0f 84 35 01 00 00    	je     100f78 <_Z11suffixArrayPiS_ii+0x3e4>
  100e43:	8b 55 dc             	mov    -0x24(%ebp),%edx
  100e46:	8d 04 95 00 00 00 00 	lea    0x0(,%edx,4),%eax
  100e4d:	8b 7d 0c             	mov    0xc(%ebp),%edi
  100e50:	8b 5d c8             	mov    -0x38(%ebp),%ebx
  100e53:	89 1c 07             	mov    %ebx,(%edi,%eax,1)
  100e56:	ff 45 d4             	incl   -0x2c(%ebp)
  100e59:	8b 75 d4             	mov    -0x2c(%ebp),%esi
  100e5c:	42                   	inc    %edx
  100e5d:	39 75 e4             	cmp    %esi,-0x1c(%ebp)
  100e60:	0f 84 1e 01 00 00    	je     100f84 <_Z11suffixArrayPiS_ii+0x3f0>
  100e66:	89 55 dc             	mov    %edx,-0x24(%ebp)
  100e69:	8b 45 dc             	mov    -0x24(%ebp),%eax
  100e6c:	39 45 10             	cmp    %eax,0x10(%ebp)
  100e6f:	0f 8e f9 00 00 00    	jle    100f6e <_Z11suffixArrayPiS_ii+0x3da>
  100e75:	8b 45 bc             	mov    -0x44(%ebp),%eax
  100e78:	8b 75 d8             	mov    -0x28(%ebp),%esi
  100e7b:	8d 04 b0             	lea    (%eax,%esi,4),%eax
  100e7e:	89 45 b4             	mov    %eax,-0x4c(%ebp)
  100e81:	8b 08                	mov    (%eax),%ecx
  100e83:	8b 45 b8             	mov    -0x48(%ebp),%eax
  100e86:	8b 5d d4             	mov    -0x2c(%ebp),%ebx
  100e89:	8d 04 98             	lea    (%eax,%ebx,4),%eax
  100e8c:	89 45 c0             	mov    %eax,-0x40(%ebp)
  100e8f:	8b 38                	mov    (%eax),%edi
  100e91:	89 7d c8             	mov    %edi,-0x38(%ebp)
  100e94:	b8 56 55 55 55       	mov    $0x55555556,%eax
  100e99:	f7 ef                	imul   %edi
  100e9b:	89 d6                	mov    %edx,%esi
  100e9d:	89 f8                	mov    %edi,%eax
  100e9f:	c1 f8 1f             	sar    $0x1f,%eax
  100ea2:	29 c6                	sub    %eax,%esi
  100ea4:	89 f0                	mov    %esi,%eax
  100ea6:	8d 34 bd 00 00 00 00 	lea    0x0(,%edi,4),%esi
  100ead:	8b 55 08             	mov    0x8(%ebp),%edx
  100eb0:	8b 14 32             	mov    (%edx,%esi,1),%edx
  100eb3:	89 d3                	mov    %edx,%ebx
  100eb5:	89 55 cc             	mov    %edx,-0x34(%ebp)
  100eb8:	8b 7d e4             	mov    -0x1c(%ebp),%edi
  100ebb:	39 f9                	cmp    %edi,%ecx
  100ebd:	0f 8c 59 ff ff ff    	jl     100e1c <_Z11suffixArrayPiS_ii+0x288>
  100ec3:	8b 7d e4             	mov    -0x1c(%ebp),%edi
  100ec6:	29 f9                	sub    %edi,%ecx
  100ec8:	8d 14 09             	lea    (%ecx,%ecx,1),%edx
  100ecb:	01 ca                	add    %ecx,%edx
  100ecd:	89 d3                	mov    %edx,%ebx
  100ecf:	83 c2 02             	add    $0x2,%edx
  100ed2:	01 f8                	add    %edi,%eax
  100ed4:	8b 7d e0             	mov    -0x20(%ebp),%edi
  100ed7:	8b 04 87             	mov    (%edi,%eax,4),%eax
  100eda:	89 45 ac             	mov    %eax,-0x54(%ebp)
  100edd:	8b 45 08             	mov    0x8(%ebp),%eax
  100ee0:	8b 44 30 04          	mov    0x4(%eax,%esi,1),%eax
  100ee4:	8b 74 8f 04          	mov    0x4(%edi,%ecx,4),%esi
  100ee8:	8b 7d 08             	mov    0x8(%ebp),%edi
  100eeb:	8b 4c 9f 0c          	mov    0xc(%edi,%ebx,4),%ecx
  100eef:	8b 5d cc             	mov    -0x34(%ebp),%ebx
  100ef2:	39 1c 97             	cmp    %ebx,(%edi,%edx,4)
  100ef5:	7c 11                	jl     100f08 <_Z11suffixArrayPiS_ii+0x374>
  100ef7:	0f 85 46 ff ff ff    	jne    100e43 <_Z11suffixArrayPiS_ii+0x2af>
  100efd:	39 c8                	cmp    %ecx,%eax
  100eff:	0f 8e e3 00 00 00    	jle    100fe8 <_Z11suffixArrayPiS_ii+0x454>
  100f05:	8d 76 00             	lea    0x0(%esi),%esi
  100f08:	8b 75 dc             	mov    -0x24(%ebp),%esi
  100f0b:	8d 04 b5 00 00 00 00 	lea    0x0(,%esi,4),%eax
  100f12:	8b 7d 0c             	mov    0xc(%ebp),%edi
  100f15:	89 14 07             	mov    %edx,(%edi,%eax,1)
  100f18:	ff 45 d8             	incl   -0x28(%ebp)
  100f1b:	8b 5d d8             	mov    -0x28(%ebp),%ebx
  100f1e:	8d 56 01             	lea    0x1(%esi),%edx
  100f21:	39 5d d0             	cmp    %ebx,-0x30(%ebp)
  100f24:	0f 85 3c ff ff ff    	jne    100e66 <_Z11suffixArrayPiS_ii+0x2d2>
  100f2a:	8b 5d d4             	mov    -0x2c(%ebp),%ebx
  100f2d:	39 5d e4             	cmp    %ebx,-0x1c(%ebp)
  100f30:	0f 8e f2 00 00 00    	jle    101028 <_Z11suffixArrayPiS_ii+0x494>
  100f36:	8b 4d c0             	mov    -0x40(%ebp),%ecx
  100f39:	8b 7d 0c             	mov    0xc(%ebp),%edi
  100f3c:	8d 44 07 04          	lea    0x4(%edi,%eax,1),%eax
  100f40:	8b 75 a8             	mov    -0x58(%ebp),%esi
  100f43:	90                   	nop
  100f44:	8b 19                	mov    (%ecx),%ebx
  100f46:	89 18                	mov    %ebx,(%eax)
  100f48:	83 c1 04             	add    $0x4,%ecx
  100f4b:	83 c0 04             	add    $0x4,%eax
  100f4e:	39 ce                	cmp    %ecx,%esi
  100f50:	75 f2                	jne    100f44 <_Z11suffixArrayPiS_ii+0x3b0>
  100f52:	2b 55 d4             	sub    -0x2c(%ebp),%edx
  100f55:	8b 45 e4             	mov    -0x1c(%ebp),%eax
  100f58:	8d 5c 10 01          	lea    0x1(%eax,%edx,1),%ebx
  100f5c:	89 5d dc             	mov    %ebx,-0x24(%ebp)
  100f5f:	89 45 d4             	mov    %eax,-0x2c(%ebp)
  100f62:	8b 45 dc             	mov    -0x24(%ebp),%eax
  100f65:	39 45 10             	cmp    %eax,0x10(%ebp)
  100f68:	0f 8f 07 ff ff ff    	jg     100e75 <_Z11suffixArrayPiS_ii+0x2e1>
  100f6e:	8d 65 f4             	lea    -0xc(%ebp),%esp
  100f71:	5b                   	pop    %ebx
  100f72:	5e                   	pop    %esi
  100f73:	5f                   	pop    %edi
  100f74:	5d                   	pop    %ebp
  100f75:	c3                   	ret    
  100f76:	66 90                	xchg   %ax,%ax
  100f78:	39 c8                	cmp    %ecx,%eax
  100f7a:	7d 8c                	jge    100f08 <_Z11suffixArrayPiS_ii+0x374>
  100f7c:	e9 c2 fe ff ff       	jmp    100e43 <_Z11suffixArrayPiS_ii+0x2af>
  100f81:	8d 76 00             	lea    0x0(%esi),%esi
  100f84:	8b 5d d8             	mov    -0x28(%ebp),%ebx
  100f87:	39 5d d0             	cmp    %ebx,-0x30(%ebp)
  100f8a:	0f 8e 98 00 00 00    	jle    101028 <_Z11suffixArrayPiS_ii+0x494>
  100f90:	8b 4d b4             	mov    -0x4c(%ebp),%ecx
  100f93:	8b 7d 0c             	mov    0xc(%ebp),%edi
  100f96:	8d 5c 07 04          	lea    0x4(%edi,%eax,1),%ebx
  100f9a:	8b 75 e4             	mov    -0x1c(%ebp),%esi
  100f9d:	eb 15                	jmp    100fb4 <_Z11suffixArrayPiS_ii+0x420>
  100f9f:	90                   	nop
  100fa0:	8d 3c 00             	lea    (%eax,%eax,1),%edi
  100fa3:	8d 44 38 01          	lea    0x1(%eax,%edi,1),%eax
  100fa7:	89 03                	mov    %eax,(%ebx)
  100fa9:	83 c1 04             	add    $0x4,%ecx
  100fac:	83 c3 04             	add    $0x4,%ebx
  100faf:	39 4d b0             	cmp    %ecx,-0x50(%ebp)
  100fb2:	74 1c                	je     100fd0 <_Z11suffixArrayPiS_ii+0x43c>
  100fb4:	8b 01                	mov    (%ecx),%eax
  100fb6:	39 f0                	cmp    %esi,%eax
  100fb8:	7c e6                	jl     100fa0 <_Z11suffixArrayPiS_ii+0x40c>
  100fba:	29 f0                	sub    %esi,%eax
  100fbc:	8d 3c 00             	lea    (%eax,%eax,1),%edi
  100fbf:	8d 44 38 02          	lea    0x2(%eax,%edi,1),%eax
  100fc3:	89 03                	mov    %eax,(%ebx)
  100fc5:	83 c1 04             	add    $0x4,%ecx
  100fc8:	83 c3 04             	add    $0x4,%ebx
  100fcb:	39 4d b0             	cmp    %ecx,-0x50(%ebp)
  100fce:	75 e4                	jne    100fb4 <_Z11suffixArrayPiS_ii+0x420>
  100fd0:	2b 55 d8             	sub    -0x28(%ebp),%edx
  100fd3:	8b 45 d0             	mov    -0x30(%ebp),%eax
  100fd6:	8d 5c 10 01          	lea    0x1(%eax,%edx,1),%ebx
  100fda:	89 5d dc             	mov    %ebx,-0x24(%ebp)
  100fdd:	89 45 d8             	mov    %eax,-0x28(%ebp)
  100fe0:	e9 84 fe ff ff       	jmp    100e69 <_Z11suffixArrayPiS_ii+0x2d5>
  100fe5:	8d 76 00             	lea    0x0(%esi),%esi
  100fe8:	0f 85 55 fe ff ff    	jne    100e43 <_Z11suffixArrayPiS_ii+0x2af>
  100fee:	39 75 ac             	cmp    %esi,-0x54(%ebp)
  100ff1:	0f 8c 4c fe ff ff    	jl     100e43 <_Z11suffixArrayPiS_ii+0x2af>
  100ff7:	e9 0c ff ff ff       	jmp    100f08 <_Z11suffixArrayPiS_ii+0x374>
  100ffc:	ff 75 d4             	pushl  -0x2c(%ebp)
  100fff:	53                   	push   %ebx
  101000:	8b 75 bc             	mov    -0x44(%ebp),%esi
  101003:	56                   	push   %esi
  101004:	8b 5d e0             	mov    -0x20(%ebp),%ebx
  101007:	53                   	push   %ebx
  101008:	e8 87 fb ff ff       	call   100b94 <_Z11suffixArrayPiS_ii>
  10100d:	83 c4 10             	add    $0x10,%esp
  101010:	31 c0                	xor    %eax,%eax
  101012:	8b 4d d0             	mov    -0x30(%ebp),%ecx
  101015:	8d 76 00             	lea    0x0(%esi),%esi
  101018:	8b 14 86             	mov    (%esi,%eax,4),%edx
  10101b:	40                   	inc    %eax
  10101c:	89 04 93             	mov    %eax,(%ebx,%edx,4)
  10101f:	39 c8                	cmp    %ecx,%eax
  101021:	75 f5                	jne    101018 <_Z11suffixArrayPiS_ii+0x484>
  101023:	e9 88 fd ff ff       	jmp    100db0 <_Z11suffixArrayPiS_ii+0x21c>
  101028:	83 45 dc 02          	addl   $0x2,-0x24(%ebp)
  10102c:	e9 38 fe ff ff       	jmp    100e69 <_Z11suffixArrayPiS_ii+0x2d5>
  101031:	8d 76 00             	lea    0x0(%esi),%esi

00101034 <bench_ssort_prepare>:
  101034:	55                   	push   %ebp
  101035:	89 e5                	mov    %esp,%ebp
  101037:	56                   	push   %esi
  101038:	53                   	push   %ebx
  101039:	a1 88 49 10 00       	mov    0x104988,%eax
  10103e:	8b 00                	mov    (%eax),%eax
  101040:	a3 48 49 10 00       	mov    %eax,0x104948
  101045:	83 ec 0c             	sub    $0xc,%esp
  101048:	6a 01                	push   $0x1
  10104a:	e8 65 13 00 00       	call   1023b4 <bench_srand>
  10104f:	a1 48 49 10 00       	mov    0x104948,%eax
  101054:	8d 04 85 28 00 00 00 	lea    0x28(,%eax,4),%eax
  10105b:	89 04 24             	mov    %eax,(%esp)
  10105e:	e8 c9 12 00 00       	call   10232c <bench_alloc>
  101063:	a3 44 49 10 00       	mov    %eax,0x104944
  101068:	a1 48 49 10 00       	mov    0x104948,%eax
  10106d:	8d 04 85 28 00 00 00 	lea    0x28(,%eax,4),%eax
  101074:	89 04 24             	mov    %eax,(%esp)
  101077:	e8 b0 12 00 00       	call   10232c <bench_alloc>
  10107c:	a3 40 49 10 00       	mov    %eax,0x104940
  101081:	83 c4 10             	add    $0x10,%esp
  101084:	a1 48 49 10 00       	mov    0x104948,%eax
  101089:	85 c0                	test   %eax,%eax
  10108b:	7e 21                	jle    1010ae <bench_ssort_prepare+0x7a>
  10108d:	31 db                	xor    %ebx,%ebx
  10108f:	be 1a 00 00 00       	mov    $0x1a,%esi
  101094:	e8 2f 13 00 00       	call   1023c8 <bench_rand>
  101099:	31 d2                	xor    %edx,%edx
  10109b:	f7 f6                	div    %esi
  10109d:	a1 44 49 10 00       	mov    0x104944,%eax
  1010a2:	89 14 98             	mov    %edx,(%eax,%ebx,4)
  1010a5:	43                   	inc    %ebx
  1010a6:	39 1d 48 49 10 00    	cmp    %ebx,0x104948
  1010ac:	7f e6                	jg     101094 <bench_ssort_prepare+0x60>
  1010ae:	8d 65 f8             	lea    -0x8(%ebp),%esp
  1010b1:	5b                   	pop    %ebx
  1010b2:	5e                   	pop    %esi
  1010b3:	5d                   	pop    %ebp
  1010b4:	c3                   	ret    
  1010b5:	8d 76 00             	lea    0x0(%esi),%esi

001010b8 <bench_ssort_run>:
  1010b8:	55                   	push   %ebp
  1010b9:	89 e5                	mov    %esp,%ebp
  1010bb:	83 ec 08             	sub    $0x8,%esp
  1010be:	6a 1a                	push   $0x1a
  1010c0:	ff 35 48 49 10 00    	pushl  0x104948
  1010c6:	ff 35 40 49 10 00    	pushl  0x104940
  1010cc:	ff 35 44 49 10 00    	pushl  0x104944
  1010d2:	e8 bd fa ff ff       	call   100b94 <_Z11suffixArrayPiS_ii>
  1010d7:	83 c4 10             	add    $0x10,%esp
  1010da:	c9                   	leave  
  1010db:	c3                   	ret    

001010dc <bench_ssort_validate>:
  1010dc:	55                   	push   %ebp
  1010dd:	89 e5                	mov    %esp,%ebp
  1010df:	83 ec 10             	sub    $0x10,%esp
  1010e2:	a1 40 49 10 00       	mov    0x104940,%eax
  1010e7:	8b 15 48 49 10 00    	mov    0x104948,%edx
  1010ed:	8d 14 90             	lea    (%eax,%edx,4),%edx
  1010f0:	52                   	push   %edx
  1010f1:	50                   	push   %eax
  1010f2:	e8 01 13 00 00       	call   1023f8 <checksum>
  1010f7:	83 c4 10             	add    $0x10,%esp
  1010fa:	8b 15 88 49 10 00    	mov    0x104988,%edx
  101100:	39 42 0c             	cmp    %eax,0xc(%edx)
  101103:	0f 94 c0             	sete   %al
  101106:	0f b6 c0             	movzbl %al,%eax
  101109:	c9                   	leave  
  10110a:	c3                   	ret    
  10110b:	90                   	nop

0010110c <dfs>:
  10110c:	55                   	push   %ebp
  10110d:	89 e5                	mov    %esp,%ebp
  10110f:	57                   	push   %edi
  101110:	56                   	push   %esi
  101111:	53                   	push   %ebx
  101112:	83 ec 1c             	sub    $0x1c,%esp
  101115:	8b 35 50 49 10 00    	mov    0x104950,%esi
  10111b:	39 c6                	cmp    %eax,%esi
  10111d:	74 45                	je     101164 <dfs+0x58>
  10111f:	89 d3                	mov    %edx,%ebx
  101121:	09 cb                	or     %ecx,%ebx
  101123:	09 c3                	or     %eax,%ebx
  101125:	f7 d3                	not    %ebx
  101127:	21 f3                	and    %esi,%ebx
  101129:	74 49                	je     101174 <dfs+0x68>
  10112b:	89 cf                	mov    %ecx,%edi
  10112d:	89 55 e0             	mov    %edx,-0x20(%ebp)
  101130:	89 45 e4             	mov    %eax,-0x1c(%ebp)
  101133:	31 f6                	xor    %esi,%esi
  101135:	89 d8                	mov    %ebx,%eax
  101137:	f7 d8                	neg    %eax
  101139:	21 d8                	and    %ebx,%eax
  10113b:	29 c3                	sub    %eax,%ebx
  10113d:	89 f9                	mov    %edi,%ecx
  10113f:	09 c1                	or     %eax,%ecx
  101141:	d1 e9                	shr    %ecx
  101143:	8b 55 e0             	mov    -0x20(%ebp),%edx
  101146:	09 c2                	or     %eax,%edx
  101148:	01 d2                	add    %edx,%edx
  10114a:	0b 45 e4             	or     -0x1c(%ebp),%eax
  10114d:	e8 ba ff ff ff       	call   10110c <dfs>
  101152:	01 c6                	add    %eax,%esi
  101154:	85 db                	test   %ebx,%ebx
  101156:	75 dd                	jne    101135 <dfs+0x29>
  101158:	89 f0                	mov    %esi,%eax
  10115a:	83 c4 1c             	add    $0x1c,%esp
  10115d:	5b                   	pop    %ebx
  10115e:	5e                   	pop    %esi
  10115f:	5f                   	pop    %edi
  101160:	5d                   	pop    %ebp
  101161:	c3                   	ret    
  101162:	66 90                	xchg   %ax,%ax
  101164:	be 01 00 00 00       	mov    $0x1,%esi
  101169:	89 f0                	mov    %esi,%eax
  10116b:	83 c4 1c             	add    $0x1c,%esp
  10116e:	5b                   	pop    %ebx
  10116f:	5e                   	pop    %esi
  101170:	5f                   	pop    %edi
  101171:	5d                   	pop    %ebp
  101172:	c3                   	ret    
  101173:	90                   	nop
  101174:	31 f6                	xor    %esi,%esi
  101176:	89 f0                	mov    %esi,%eax
  101178:	83 c4 1c             	add    $0x1c,%esp
  10117b:	5b                   	pop    %ebx
  10117c:	5e                   	pop    %esi
  10117d:	5f                   	pop    %edi
  10117e:	5d                   	pop    %ebp
  10117f:	c3                   	ret    

00101180 <bench_queen_prepare>:
  101180:	c7 05 4c 49 10 00 00 	movl   $0x0,0x10494c
  101187:	00 00 00 
  10118a:	a1 88 49 10 00       	mov    0x104988,%eax
  10118f:	8b 08                	mov    (%eax),%ecx
  101191:	b8 01 00 00 00       	mov    $0x1,%eax
  101196:	d3 e0                	shl    %cl,%eax
  101198:	48                   	dec    %eax
  101199:	a3 50 49 10 00       	mov    %eax,0x104950
  10119e:	c3                   	ret    
  10119f:	90                   	nop

001011a0 <bench_queen_run>:
  1011a0:	55                   	push   %ebp
  1011a1:	89 e5                	mov    %esp,%ebp
  1011a3:	83 ec 08             	sub    $0x8,%esp
  1011a6:	31 c9                	xor    %ecx,%ecx
  1011a8:	31 d2                	xor    %edx,%edx
  1011aa:	31 c0                	xor    %eax,%eax
  1011ac:	e8 5b ff ff ff       	call   10110c <dfs>
  1011b1:	a3 4c 49 10 00       	mov    %eax,0x10494c
  1011b6:	c9                   	leave  
  1011b7:	c3                   	ret    

001011b8 <bench_queen_validate>:
  1011b8:	a1 88 49 10 00       	mov    0x104988,%eax
  1011bd:	8b 15 4c 49 10 00    	mov    0x10494c,%edx
  1011c3:	39 50 0c             	cmp    %edx,0xc(%eax)
  1011c6:	0f 94 c0             	sete   %al
  1011c9:	0f b6 c0             	movzbl %al,%eax
  1011cc:	c3                   	ret    
  1011cd:	66 90                	xchg   %ax,%ax
  1011cf:	90                   	nop

001011d0 <bench_15pz_prepare>:
  1011d0:	c3                   	ret    
  1011d1:	8d 76 00             	lea    0x0(%esi),%esi

001011d4 <bench_15pz_validate>:
  1011d4:	a1 88 49 10 00       	mov    0x104988,%eax
  1011d9:	8b 15 54 49 10 00    	mov    0x104954,%edx
  1011df:	39 50 0c             	cmp    %edx,0xc(%eax)
  1011e2:	0f 94 c0             	sete   %al
  1011e5:	0f b6 c0             	movzbl %al,%eax
  1011e8:	c3                   	ret    
  1011e9:	90                   	nop
  1011ea:	66 90                	xchg   %ax,%ax

001011ec <_ZNK14Updatable_heapI8N_puzzleILi4EEE7pointerERKS1_.isra.8>:
  1011ec:	55                   	push   %ebp
  1011ed:	89 e5                	mov    %esp,%ebp
  1011ef:	56                   	push   %esi
  1011f0:	53                   	push   %ebx
  1011f1:	89 ce                	mov    %ecx,%esi
  1011f3:	80 39 00             	cmpb   $0x0,(%ecx)
  1011f6:	74 07                	je     1011ff <_ZNK14Updatable_heapI8N_puzzleILi4EEE7pointerERKS1_.isra.8+0x13>
  1011f8:	48                   	dec    %eax
  1011f9:	23 41 14             	and    0x14(%ecx),%eax
  1011fc:	8d 14 82             	lea    (%edx,%eax,4),%edx
  1011ff:	8b 1a                	mov    (%edx),%ebx
  101201:	85 db                	test   %ebx,%ebx
  101203:	75 0a                	jne    10120f <_ZNK14Updatable_heapI8N_puzzleILi4EEE7pointerERKS1_.isra.8+0x23>
  101205:	eb 19                	jmp    101220 <_ZNK14Updatable_heapI8N_puzzleILi4EEE7pointerERKS1_.isra.8+0x34>
  101207:	90                   	nop
  101208:	8b 5b 18             	mov    0x18(%ebx),%ebx
  10120b:	85 db                	test   %ebx,%ebx
  10120d:	74 11                	je     101220 <_ZNK14Updatable_heapI8N_puzzleILi4EEE7pointerERKS1_.isra.8+0x34>
  10120f:	83 ec 08             	sub    $0x8,%esp
  101212:	56                   	push   %esi
  101213:	53                   	push   %ebx
  101214:	e8 57 0d 00 00       	call   101f70 <_ZNK8N_puzzleILi4EEeqERKS0_>
  101219:	83 c4 10             	add    $0x10,%esp
  10121c:	84 c0                	test   %al,%al
  10121e:	74 e8                	je     101208 <_ZNK14Updatable_heapI8N_puzzleILi4EEE7pointerERKS1_.isra.8+0x1c>
  101220:	89 d8                	mov    %ebx,%eax
  101222:	8d 65 f8             	lea    -0x8(%ebp),%esp
  101225:	5b                   	pop    %ebx
  101226:	5e                   	pop    %esi
  101227:	5d                   	pop    %ebp
  101228:	c3                   	ret    
  101229:	8d 76 00             	lea    0x0(%esi),%esi

0010122c <bench_15pz_run>:
  10122c:	55                   	push   %ebp
  10122d:	89 e5                	mov    %esp,%ebp
  10122f:	57                   	push   %edi
  101230:	56                   	push   %esi
  101231:	53                   	push   %ebx
  101232:	81 ec d8 00 00 00    	sub    $0xd8,%esp
  101238:	8d bd 60 ff ff ff    	lea    -0xa0(%ebp),%edi
  10123e:	57                   	push   %edi
  10123f:	e8 14 0b 00 00       	call   101d58 <_ZN8N_puzzleILi4EEC1Ev>
  101244:	a1 88 49 10 00       	mov    0x104988,%eax
  101249:	8b 00                	mov    (%eax),%eax
  10124b:	83 c4 10             	add    $0x10,%esp
  10124e:	83 f8 01             	cmp    $0x1,%eax
  101251:	0f 84 18 0a 00 00    	je     101c6f <bench_15pz_run+0xa43>
  101257:	83 f8 02             	cmp    $0x2,%eax
  10125a:	0f 84 9c 09 00 00    	je     101bfc <bench_15pz_run+0x9d0>
  101260:	85 c0                	test   %eax,%eax
  101262:	74 1e                	je     101282 <bench_15pz_run+0x56>
  101264:	50                   	push   %eax
  101265:	6a 2b                	push   $0x2b
  101267:	68 9c 41 10 00       	push   $0x10419c
  10126c:	68 81 41 10 00       	push   $0x104181
  101271:	e8 52 29 00 00       	call   103bc8 <printf>
  101276:	c7 04 24 01 00 00 00 	movl   $0x1,(%esp)
  10127d:	e8 d2 25 00 00       	call   103854 <_halt>
  101282:	83 ec 08             	sub    $0x8,%esp
  101285:	68 e0 45 10 00       	push   $0x1045e0
  10128a:	8d 75 a8             	lea    -0x58(%ebp),%esi
  10128d:	56                   	push   %esi
  10128e:	e8 cd 0b 00 00       	call   101e60 <_ZN8N_puzzleILi4EEC1EPi>
  101293:	8a 55 a8             	mov    -0x58(%ebp),%dl
  101296:	8b 45 a8             	mov    -0x58(%ebp),%eax
  101299:	89 85 60 ff ff ff    	mov    %eax,-0xa0(%ebp)
  10129f:	8b 45 bc             	mov    -0x44(%ebp),%eax
  1012a2:	89 85 74 ff ff ff    	mov    %eax,-0x8c(%ebp)
  1012a8:	89 f0                	mov    %esi,%eax
  1012aa:	89 f9                	mov    %edi,%ecx
  1012ac:	8d 5d b8             	lea    -0x48(%ebp),%ebx
  1012af:	89 9d 50 ff ff ff    	mov    %ebx,-0xb0(%ebp)
  1012b5:	83 c4 10             	add    $0x10,%esp
  1012b8:	88 95 54 ff ff ff    	mov    %dl,-0xac(%ebp)
  1012be:	8a 50 04             	mov    0x4(%eax),%dl
  1012c1:	88 51 04             	mov    %dl,0x4(%ecx)
  1012c4:	8a 50 05             	mov    0x5(%eax),%dl
  1012c7:	88 51 05             	mov    %dl,0x5(%ecx)
  1012ca:	8a 50 06             	mov    0x6(%eax),%dl
  1012cd:	88 51 06             	mov    %dl,0x6(%ecx)
  1012d0:	8a 50 07             	mov    0x7(%eax),%dl
  1012d3:	88 51 07             	mov    %dl,0x7(%ecx)
  1012d6:	83 c0 04             	add    $0x4,%eax
  1012d9:	83 c1 04             	add    $0x4,%ecx
  1012dc:	39 c3                	cmp    %eax,%ebx
  1012de:	75 de                	jne    1012be <bench_15pz_run+0x92>
  1012e0:	8a 95 54 ff ff ff    	mov    -0xac(%ebp),%dl
  1012e6:	c7 85 30 ff ff ff 0a 	movl   $0xa,-0xd0(%ebp)
  1012ed:	00 00 00 
  1012f0:	84 d2                	test   %dl,%dl
  1012f2:	0f 84 fc 08 00 00    	je     101bf4 <bench_15pz_run+0x9c8>
  1012f8:	89 f1                	mov    %esi,%ecx
  1012fa:	89 fb                	mov    %edi,%ebx
  1012fc:	31 c0                	xor    %eax,%eax
  1012fe:	0f be 54 03 04       	movsbl 0x4(%ebx,%eax,1),%edx
  101303:	84 d2                	test   %dl,%dl
  101305:	75 49                	jne    101350 <bench_15pz_run+0x124>
  101307:	c7 04 81 10 00 00 00 	movl   $0x10,(%ecx,%eax,4)
  10130e:	40                   	inc    %eax
  10130f:	83 f8 04             	cmp    $0x4,%eax
  101312:	75 ea                	jne    1012fe <bench_15pz_run+0xd2>
  101314:	83 c1 10             	add    $0x10,%ecx
  101317:	83 c3 04             	add    $0x4,%ebx
  10131a:	8d 45 e8             	lea    -0x18(%ebp),%eax
  10131d:	39 c1                	cmp    %eax,%ecx
  10131f:	75 db                	jne    1012fc <bench_15pz_run+0xd0>
  101321:	8b 55 a8             	mov    -0x58(%ebp),%edx
  101324:	bb 01 00 00 00       	mov    $0x1,%ebx
  101329:	31 c9                	xor    %ecx,%ecx
  10132b:	b8 01 00 00 00       	mov    $0x1,%eax
  101330:	39 54 85 a8          	cmp    %edx,-0x58(%ebp,%eax,4)
  101334:	7d 01                	jge    101337 <bench_15pz_run+0x10b>
  101336:	41                   	inc    %ecx
  101337:	40                   	inc    %eax
  101338:	83 f8 10             	cmp    $0x10,%eax
  10133b:	75 f3                	jne    101330 <bench_15pz_run+0x104>
  10133d:	8d 43 01             	lea    0x1(%ebx),%eax
  101340:	83 f8 10             	cmp    $0x10,%eax
  101343:	74 13                	je     101358 <bench_15pz_run+0x12c>
  101345:	8b 54 9d a8          	mov    -0x58(%ebp,%ebx,4),%edx
  101349:	89 c3                	mov    %eax,%ebx
  10134b:	eb e3                	jmp    101330 <bench_15pz_run+0x104>
  10134d:	8d 76 00             	lea    0x0(%esi),%esi
  101350:	89 14 81             	mov    %edx,(%ecx,%eax,4)
  101353:	eb b9                	jmp    10130e <bench_15pz_run+0xe2>
  101355:	8d 76 00             	lea    0x0(%esi),%esi
  101358:	0f b6 95 61 ff ff ff 	movzbl -0x9f(%ebp),%edx
  10135f:	b8 06 00 00 00       	mov    $0x6,%eax
  101364:	29 d0                	sub    %edx,%eax
  101366:	0f b6 95 62 ff ff ff 	movzbl -0x9e(%ebp),%edx
  10136d:	29 d0                	sub    %edx,%eax
  10136f:	01 c1                	add    %eax,%ecx
  101371:	83 e1 01             	and    $0x1,%ecx
  101374:	0f 85 7a 08 00 00    	jne    101bf4 <bench_15pz_run+0x9c8>
  10137a:	83 ec 0c             	sub    $0xc,%esp
  10137d:	6a 14                	push   $0x14
  10137f:	e8 a8 0f 00 00       	call   10232c <bench_alloc>
  101384:	89 c3                	mov    %eax,%ebx
  101386:	89 85 54 ff ff ff    	mov    %eax,-0xac(%ebp)
  10138c:	8b 85 30 ff ff ff    	mov    -0xd0(%ebp),%eax
  101392:	89 03                	mov    %eax,(%ebx)
  101394:	c1 e0 02             	shl    $0x2,%eax
  101397:	89 04 24             	mov    %eax,(%esp)
  10139a:	e8 8d 0f 00 00       	call   10232c <bench_alloc>
  10139f:	89 43 08             	mov    %eax,0x8(%ebx)
  1013a2:	8b 03                	mov    (%ebx),%eax
  1013a4:	8d 04 85 04 00 00 00 	lea    0x4(,%eax,4),%eax
  1013ab:	89 04 24             	mov    %eax,(%esp)
  1013ae:	e8 79 0f 00 00       	call   10232c <bench_alloc>
  1013b3:	89 43 04             	mov    %eax,0x4(%ebx)
  1013b6:	c7 43 0c 00 00 00 00 	movl   $0x0,0xc(%ebx)
  1013bd:	c7 43 10 00 00 00 00 	movl   $0x0,0x10(%ebx)
  1013c4:	8b 13                	mov    (%ebx),%edx
  1013c6:	83 c4 10             	add    $0x10,%esp
  1013c9:	85 d2                	test   %edx,%edx
  1013cb:	7e 10                	jle    1013dd <bench_15pz_run+0x1b1>
  1013cd:	8d 14 90             	lea    (%eax,%edx,4),%edx
  1013d0:	c7 00 00 00 00 00    	movl   $0x0,(%eax)
  1013d6:	83 c0 04             	add    $0x4,%eax
  1013d9:	39 d0                	cmp    %edx,%eax
  1013db:	75 f3                	jne    1013d0 <bench_15pz_run+0x1a4>
  1013dd:	50                   	push   %eax
  1013de:	6a 00                	push   $0x0
  1013e0:	57                   	push   %edi
  1013e1:	8b bd 54 ff ff ff    	mov    -0xac(%ebp),%edi
  1013e7:	57                   	push   %edi
  1013e8:	e8 77 0c 00 00       	call   102064 <_ZN14Updatable_heapI8N_puzzleILi4EEE4pushERKS1_i>
  1013ed:	c7 05 54 49 10 00 ff 	movl   $0xffffffff,0x104954
  1013f4:	ff ff ff 
  1013f7:	8b 7f 0c             	mov    0xc(%edi),%edi
  1013fa:	83 c4 10             	add    $0x10,%esp
  1013fd:	c7 85 4c ff ff ff 00 	movl   $0x0,-0xb4(%ebp)
  101404:	00 00 00 
  101407:	85 ff                	test   %edi,%edi
  101409:	0f 84 f9 02 00 00    	je     101708 <bench_15pz_run+0x4dc>
  10140f:	90                   	nop
  101410:	8b 85 54 ff ff ff    	mov    -0xac(%ebp),%eax
  101416:	8b 48 08             	mov    0x8(%eax),%ecx
  101419:	8b 41 04             	mov    0x4(%ecx),%eax
  10141c:	8a 18                	mov    (%eax),%bl
  10141e:	88 9d 40 ff ff ff    	mov    %bl,-0xc0(%ebp)
  101424:	8a 58 01             	mov    0x1(%eax),%bl
  101427:	88 9d 48 ff ff ff    	mov    %bl,-0xb8(%ebp)
  10142d:	8a 58 02             	mov    0x2(%eax),%bl
  101430:	88 9d 47 ff ff ff    	mov    %bl,-0xb9(%ebp)
  101436:	8a 58 03             	mov    0x3(%eax),%bl
  101439:	88 9d 46 ff ff ff    	mov    %bl,-0xba(%ebp)
  10143f:	8b 18                	mov    (%eax),%ebx
  101441:	89 9d 38 ff ff ff    	mov    %ebx,-0xc8(%ebp)
  101447:	8b 58 14             	mov    0x14(%eax),%ebx
  10144a:	89 9d 3c ff ff ff    	mov    %ebx,-0xc4(%ebp)
  101450:	83 c0 04             	add    $0x4,%eax
  101453:	89 f3                	mov    %esi,%ebx
  101455:	89 f2                	mov    %esi,%edx
  101457:	89 8d 34 ff ff ff    	mov    %ecx,-0xcc(%ebp)
  10145d:	8a 08                	mov    (%eax),%cl
  10145f:	88 4a 04             	mov    %cl,0x4(%edx)
  101462:	8a 48 01             	mov    0x1(%eax),%cl
  101465:	88 4a 05             	mov    %cl,0x5(%edx)
  101468:	8a 48 02             	mov    0x2(%eax),%cl
  10146b:	88 4a 06             	mov    %cl,0x6(%edx)
  10146e:	8a 48 03             	mov    0x3(%eax),%cl
  101471:	88 4a 07             	mov    %cl,0x7(%edx)
  101474:	83 c0 04             	add    $0x4,%eax
  101477:	83 c2 04             	add    $0x4,%edx
  10147a:	3b 95 50 ff ff ff    	cmp    -0xb0(%ebp),%edx
  101480:	75 db                	jne    10145d <bench_15pz_run+0x231>
  101482:	8b 8d 34 ff ff ff    	mov    -0xcc(%ebp),%ecx
  101488:	83 ff 01             	cmp    $0x1,%edi
  10148b:	0f 84 33 07 00 00    	je     101bc4 <bench_15pz_run+0x998>
  101491:	0f 8e a1 08 00 00    	jle    101d38 <bench_15pz_run+0xb0c>
  101497:	8b 04 b9             	mov    (%ecx,%edi,4),%eax
  10149a:	89 41 04             	mov    %eax,0x4(%ecx)
  10149d:	c7 40 1c 01 00 00 00 	movl   $0x1,0x1c(%eax)
  1014a4:	8b 85 54 ff ff ff    	mov    -0xac(%ebp),%eax
  1014aa:	ff 48 0c             	decl   0xc(%eax)
  1014ad:	83 ec 0c             	sub    $0xc,%esp
  1014b0:	50                   	push   %eax
  1014b1:	e8 46 0d 00 00       	call   1021fc <_ZN14Updatable_heapI8N_puzzleILi4EEE14percolate_downEv>
  1014b6:	83 c4 10             	add    $0x10,%esp
  1014b9:	8b 85 38 ff ff ff    	mov    -0xc8(%ebp),%eax
  1014bf:	89 85 78 ff ff ff    	mov    %eax,-0x88(%ebp)
  1014c5:	8b 85 3c ff ff ff    	mov    -0xc4(%ebp),%eax
  1014cb:	89 45 8c             	mov    %eax,-0x74(%ebp)
  1014ce:	8d 85 78 ff ff ff    	lea    -0x88(%ebp),%eax
  1014d4:	89 85 3c ff ff ff    	mov    %eax,-0xc4(%ebp)
  1014da:	8b 95 50 ff ff ff    	mov    -0xb0(%ebp),%edx
  1014e0:	8a 4b 04             	mov    0x4(%ebx),%cl
  1014e3:	88 48 04             	mov    %cl,0x4(%eax)
  1014e6:	8a 4b 05             	mov    0x5(%ebx),%cl
  1014e9:	88 48 05             	mov    %cl,0x5(%eax)
  1014ec:	8a 4b 06             	mov    0x6(%ebx),%cl
  1014ef:	88 48 06             	mov    %cl,0x6(%eax)
  1014f2:	8a 4b 07             	mov    0x7(%ebx),%cl
  1014f5:	88 48 07             	mov    %cl,0x7(%eax)
  1014f8:	83 c3 04             	add    $0x4,%ebx
  1014fb:	83 c0 04             	add    $0x4,%eax
  1014fe:	39 da                	cmp    %ebx,%edx
  101500:	75 de                	jne    1014e0 <bench_15pz_run+0x2b4>
  101502:	ff 85 4c ff ff ff    	incl   -0xb4(%ebp)
  101508:	31 c0                	xor    %eax,%eax
  10150a:	66 90                	xchg   %ax,%ax
  10150c:	40                   	inc    %eax
  10150d:	89 44 86 fc          	mov    %eax,-0x4(%esi,%eax,4)
  101511:	83 f8 0f             	cmp    $0xf,%eax
  101514:	75 f6                	jne    10150c <bench_15pz_run+0x2e0>
  101516:	c7 45 e4 00 00 00 00 	movl   $0x0,-0x1c(%ebp)
  10151d:	83 ec 08             	sub    $0x8,%esp
  101520:	56                   	push   %esi
  101521:	8d 45 90             	lea    -0x70(%ebp),%eax
  101524:	50                   	push   %eax
  101525:	e8 36 09 00 00       	call   101e60 <_ZN8N_puzzleILi4EEC1EPi>
  10152a:	5f                   	pop    %edi
  10152b:	58                   	pop    %eax
  10152c:	8d 45 90             	lea    -0x70(%ebp),%eax
  10152f:	50                   	push   %eax
  101530:	8d 85 78 ff ff ff    	lea    -0x88(%ebp),%eax
  101536:	50                   	push   %eax
  101537:	e8 34 0a 00 00       	call   101f70 <_ZNK8N_puzzleILi4EEeqERKS0_>
  10153c:	83 c4 10             	add    $0x10,%esp
  10153f:	84 c0                	test   %al,%al
  101541:	0f 85 b9 07 00 00    	jne    101d00 <bench_15pz_run+0xad4>
  101547:	80 bd 40 ff ff ff 00 	cmpb   $0x0,-0xc0(%ebp)
  10154e:	0f 84 95 01 00 00    	je     1016e9 <bench_15pz_run+0x4bd>
  101554:	80 bd 47 ff ff ff 03 	cmpb   $0x3,-0xb9(%ebp)
  10155b:	0f 84 cf 04 00 00    	je     101a30 <bench_15pz_run+0x804>
  101561:	8b 85 54 ff ff ff    	mov    -0xac(%ebp),%eax
  101567:	8b 50 04             	mov    0x4(%eax),%edx
  10156a:	8d 8d 78 ff ff ff    	lea    -0x88(%ebp),%ecx
  101570:	8b 00                	mov    (%eax),%eax
  101572:	e8 75 fc ff ff       	call   1011ec <_ZNK14Updatable_heapI8N_puzzleILi4EEE7pointerERKS1_.isra.8>
  101577:	85 c0                	test   %eax,%eax
  101579:	0f 84 66 06 00 00    	je     101be5 <bench_15pz_run+0x9b9>
  10157f:	8b 40 20             	mov    0x20(%eax),%eax
  101582:	40                   	inc    %eax
  101583:	89 85 34 ff ff ff    	mov    %eax,-0xcc(%ebp)
  101589:	89 f7                	mov    %esi,%edi
  10158b:	89 f2                	mov    %esi,%edx
  10158d:	8d 85 78 ff ff ff    	lea    -0x88(%ebp),%eax
  101593:	8a 58 04             	mov    0x4(%eax),%bl
  101596:	88 5a 04             	mov    %bl,0x4(%edx)
  101599:	8a 58 05             	mov    0x5(%eax),%bl
  10159c:	88 5a 05             	mov    %bl,0x5(%edx)
  10159f:	8a 58 06             	mov    0x6(%eax),%bl
  1015a2:	88 5a 06             	mov    %bl,0x6(%edx)
  1015a5:	8a 58 07             	mov    0x7(%eax),%bl
  1015a8:	88 5a 07             	mov    %bl,0x7(%edx)
  1015ab:	83 c0 04             	add    $0x4,%eax
  1015ae:	83 c2 04             	add    $0x4,%edx
  1015b1:	8d 5d 88             	lea    -0x78(%ebp),%ebx
  1015b4:	39 c3                	cmp    %eax,%ebx
  1015b6:	75 db                	jne    101593 <bench_15pz_run+0x367>
  1015b8:	0f b6 9d 48 ff ff ff 	movzbl -0xb8(%ebp),%ebx
  1015bf:	89 9d 40 ff ff ff    	mov    %ebx,-0xc0(%ebp)
  1015c5:	0f b6 85 47 ff ff ff 	movzbl -0xb9(%ebp),%eax
  1015cc:	89 85 38 ff ff ff    	mov    %eax,-0xc8(%ebp)
  1015d2:	8d 48 01             	lea    0x1(%eax),%ecx
  1015d5:	8d 44 9d e8          	lea    -0x18(%ebp,%ebx,4),%eax
  1015d9:	0f be 44 01 94       	movsbl -0x6c(%ecx,%eax,1),%eax
  1015de:	89 c3                	mov    %eax,%ebx
  1015e0:	48                   	dec    %eax
  1015e1:	25 03 00 00 80       	and    $0x80000003,%eax
  1015e6:	79 05                	jns    1015ed <bench_15pz_run+0x3c1>
  1015e8:	48                   	dec    %eax
  1015e9:	83 c8 fc             	or     $0xfffffffc,%eax
  1015ec:	40                   	inc    %eax
  1015ed:	89 c2                	mov    %eax,%edx
  1015ef:	2b 95 38 ff ff ff    	sub    -0xc8(%ebp),%edx
  1015f5:	79 02                	jns    1015f9 <bench_15pz_run+0x3cd>
  1015f7:	f7 da                	neg    %edx
  1015f9:	29 c8                	sub    %ecx,%eax
  1015fb:	79 02                	jns    1015ff <bench_15pz_run+0x3d3>
  1015fd:	f7 d8                	neg    %eax
  1015ff:	29 c2                	sub    %eax,%edx
  101601:	89 d0                	mov    %edx,%eax
  101603:	02 85 46 ff ff ff    	add    -0xba(%ebp),%al
  101609:	88 85 45 ff ff ff    	mov    %al,-0xbb(%ebp)
  10160f:	8b 85 40 ff ff ff    	mov    -0xc0(%ebp),%eax
  101615:	8d 54 85 e8          	lea    -0x18(%ebp,%eax,4),%edx
  101619:	8b 85 38 ff ff ff    	mov    -0xc8(%ebp),%eax
  10161f:	88 5c 02 c4          	mov    %bl,-0x3c(%edx,%eax,1)
  101623:	8a 85 47 ff ff ff    	mov    -0xb9(%ebp),%al
  101629:	40                   	inc    %eax
  10162a:	88 85 44 ff ff ff    	mov    %al,-0xbc(%ebp)
  101630:	0f b6 c1             	movzbl %cl,%eax
  101633:	c6 44 02 c4 00       	movb   $0x0,-0x3c(%edx,%eax,1)
  101638:	8d 46 04             	lea    0x4(%esi),%eax
  10163b:	89 85 28 ff ff ff    	mov    %eax,-0xd8(%ebp)
  101641:	89 c3                	mov    %eax,%ebx
  101643:	8d 46 14             	lea    0x14(%esi),%eax
  101646:	89 85 2c ff ff ff    	mov    %eax,-0xd4(%ebp)
  10164c:	31 c0                	xor    %eax,%eax
  10164e:	8d 4b fc             	lea    -0x4(%ebx),%ecx
  101651:	8d 14 00             	lea    (%eax,%eax,1),%edx
  101654:	01 c2                	add    %eax,%edx
  101656:	8d 14 92             	lea    (%edx,%edx,4),%edx
  101659:	8d 14 90             	lea    (%eax,%edx,4),%edx
  10165c:	01 d2                	add    %edx,%edx
  10165e:	01 c2                	add    %eax,%edx
  101660:	8d 14 90             	lea    (%eax,%edx,4),%edx
  101663:	8d 14 90             	lea    (%eax,%edx,4),%edx
  101666:	0f be 41 04          	movsbl 0x4(%ecx),%eax
  10166a:	01 d0                	add    %edx,%eax
  10166c:	41                   	inc    %ecx
  10166d:	39 d9                	cmp    %ebx,%ecx
  10166f:	75 e0                	jne    101651 <bench_15pz_run+0x425>
  101671:	8d 59 04             	lea    0x4(%ecx),%ebx
  101674:	39 9d 2c ff ff ff    	cmp    %ebx,-0xd4(%ebp)
  10167a:	75 d2                	jne    10164e <bench_15pz_run+0x422>
  10167c:	c6 45 90 01          	movb   $0x1,-0x70(%ebp)
  101680:	8a 9d 48 ff ff ff    	mov    -0xb8(%ebp),%bl
  101686:	88 5d 91             	mov    %bl,-0x6f(%ebp)
  101689:	8a 9d 44 ff ff ff    	mov    -0xbc(%ebp),%bl
  10168f:	88 5d 92             	mov    %bl,-0x6e(%ebp)
  101692:	8a 9d 45 ff ff ff    	mov    -0xbb(%ebp),%bl
  101698:	88 5d 93             	mov    %bl,-0x6d(%ebp)
  10169b:	89 45 a4             	mov    %eax,-0x5c(%ebp)
  10169e:	8d 45 90             	lea    -0x70(%ebp),%eax
  1016a1:	8d 56 10             	lea    0x10(%esi),%edx
  1016a4:	8b 8d 28 ff ff ff    	mov    -0xd8(%ebp),%ecx
  1016aa:	8a 5f 04             	mov    0x4(%edi),%bl
  1016ad:	88 58 04             	mov    %bl,0x4(%eax)
  1016b0:	8a 5f 05             	mov    0x5(%edi),%bl
  1016b3:	88 58 05             	mov    %bl,0x5(%eax)
  1016b6:	8a 5f 06             	mov    0x6(%edi),%bl
  1016b9:	88 58 06             	mov    %bl,0x6(%eax)
  1016bc:	8a 5f 07             	mov    0x7(%edi),%bl
  1016bf:	88 58 07             	mov    %bl,0x7(%eax)
  1016c2:	89 cf                	mov    %ecx,%edi
  1016c4:	83 c0 04             	add    $0x4,%eax
  1016c7:	39 d1                	cmp    %edx,%ecx
  1016c9:	74 45                	je     101710 <bench_15pz_run+0x4e4>
  1016cb:	83 c1 04             	add    $0x4,%ecx
  1016ce:	eb da                	jmp    1016aa <bench_15pz_run+0x47e>
  1016d0:	50                   	push   %eax
  1016d1:	ff b5 34 ff ff ff    	pushl  -0xcc(%ebp)
  1016d7:	8d 45 90             	lea    -0x70(%ebp),%eax
  1016da:	50                   	push   %eax
  1016db:	ff b5 54 ff ff ff    	pushl  -0xac(%ebp)
  1016e1:	e8 7e 09 00 00       	call   102064 <_ZN14Updatable_heapI8N_puzzleILi4EEE4pushERKS1_i>
  1016e6:	83 c4 10             	add    $0x10,%esp
  1016e9:	8b 85 54 ff ff ff    	mov    -0xac(%ebp),%eax
  1016ef:	8b 78 0c             	mov    0xc(%eax),%edi
  1016f2:	85 ff                	test   %edi,%edi
  1016f4:	74 12                	je     101708 <bench_15pz_run+0x4dc>
  1016f6:	8b 9d 4c ff ff ff    	mov    -0xb4(%ebp),%ebx
  1016fc:	39 9d 30 ff ff ff    	cmp    %ebx,-0xd0(%ebp)
  101702:	0f 85 08 fd ff ff    	jne    101410 <bench_15pz_run+0x1e4>
  101708:	8d 65 f4             	lea    -0xc(%ebp),%esp
  10170b:	5b                   	pop    %ebx
  10170c:	5e                   	pop    %esi
  10170d:	5f                   	pop    %edi
  10170e:	5d                   	pop    %ebp
  10170f:	c3                   	ret    
  101710:	53                   	push   %ebx
  101711:	ff b5 34 ff ff ff    	pushl  -0xcc(%ebp)
  101717:	8d 45 90             	lea    -0x70(%ebp),%eax
  10171a:	50                   	push   %eax
  10171b:	ff b5 54 ff ff ff    	pushl  -0xac(%ebp)
  101721:	e8 3e 09 00 00       	call   102064 <_ZN14Updatable_heapI8N_puzzleILi4EEE4pushERKS1_i>
  101726:	83 c4 10             	add    $0x10,%esp
  101729:	80 bd 47 ff ff ff 00 	cmpb   $0x0,-0xb9(%ebp)
  101730:	0f 85 11 03 00 00    	jne    101a47 <bench_15pz_run+0x81b>
  101736:	80 bd 48 ff ff ff 03 	cmpb   $0x3,-0xb8(%ebp)
  10173d:	0f 84 89 01 00 00    	je     1018cc <bench_15pz_run+0x6a0>
  101743:	8b 85 54 ff ff ff    	mov    -0xac(%ebp),%eax
  101749:	8b 50 04             	mov    0x4(%eax),%edx
  10174c:	8d 8d 78 ff ff ff    	lea    -0x88(%ebp),%ecx
  101752:	8b 00                	mov    (%eax),%eax
  101754:	e8 93 fa ff ff       	call   1011ec <_ZNK14Updatable_heapI8N_puzzleILi4EEE7pointerERKS1_.isra.8>
  101759:	85 c0                	test   %eax,%eax
  10175b:	0f 84 75 04 00 00    	je     101bd6 <bench_15pz_run+0x9aa>
  101761:	8b 40 20             	mov    0x20(%eax),%eax
  101764:	40                   	inc    %eax
  101765:	89 85 34 ff ff ff    	mov    %eax,-0xcc(%ebp)
  10176b:	89 f7                	mov    %esi,%edi
  10176d:	89 f2                	mov    %esi,%edx
  10176f:	8d 85 78 ff ff ff    	lea    -0x88(%ebp),%eax
  101775:	8a 58 04             	mov    0x4(%eax),%bl
  101778:	88 5a 04             	mov    %bl,0x4(%edx)
  10177b:	8a 58 05             	mov    0x5(%eax),%bl
  10177e:	88 5a 05             	mov    %bl,0x5(%edx)
  101781:	8a 58 06             	mov    0x6(%eax),%bl
  101784:	88 5a 06             	mov    %bl,0x6(%edx)
  101787:	8a 58 07             	mov    0x7(%eax),%bl
  10178a:	88 5a 07             	mov    %bl,0x7(%edx)
  10178d:	83 c0 04             	add    $0x4,%eax
  101790:	83 c2 04             	add    $0x4,%edx
  101793:	8d 5d 88             	lea    -0x78(%ebp),%ebx
  101796:	39 d8                	cmp    %ebx,%eax
  101798:	75 db                	jne    101775 <bench_15pz_run+0x549>
  10179a:	8b 85 40 ff ff ff    	mov    -0xc0(%ebp),%eax
  1017a0:	8d 48 01             	lea    0x1(%eax),%ecx
  1017a3:	8d 44 8d e8          	lea    -0x18(%ebp,%ecx,4),%eax
  1017a7:	8b 9d 38 ff ff ff    	mov    -0xc8(%ebp),%ebx
  1017ad:	0f be 54 18 94       	movsbl -0x6c(%eax,%ebx,1),%edx
  1017b2:	89 d3                	mov    %edx,%ebx
  1017b4:	89 d0                	mov    %edx,%eax
  1017b6:	48                   	dec    %eax
  1017b7:	79 03                	jns    1017bc <bench_15pz_run+0x590>
  1017b9:	8d 42 02             	lea    0x2(%edx),%eax
  1017bc:	c1 f8 02             	sar    $0x2,%eax
  1017bf:	89 c2                	mov    %eax,%edx
  1017c1:	2b 95 40 ff ff ff    	sub    -0xc0(%ebp),%edx
  1017c7:	79 02                	jns    1017cb <bench_15pz_run+0x59f>
  1017c9:	f7 da                	neg    %edx
  1017cb:	29 c8                	sub    %ecx,%eax
  1017cd:	79 02                	jns    1017d1 <bench_15pz_run+0x5a5>
  1017cf:	f7 d8                	neg    %eax
  1017d1:	29 c2                	sub    %eax,%edx
  1017d3:	89 d0                	mov    %edx,%eax
  1017d5:	02 85 46 ff ff ff    	add    -0xba(%ebp),%al
  1017db:	88 85 45 ff ff ff    	mov    %al,-0xbb(%ebp)
  1017e1:	8b 85 40 ff ff ff    	mov    -0xc0(%ebp),%eax
  1017e7:	8d 44 85 e8          	lea    -0x18(%ebp,%eax,4),%eax
  1017eb:	8b 95 38 ff ff ff    	mov    -0xc8(%ebp),%edx
  1017f1:	88 5c 10 c4          	mov    %bl,-0x3c(%eax,%edx,1)
  1017f5:	8a 85 48 ff ff ff    	mov    -0xb8(%ebp),%al
  1017fb:	40                   	inc    %eax
  1017fc:	88 85 44 ff ff ff    	mov    %al,-0xbc(%ebp)
  101802:	0f b6 c9             	movzbl %cl,%ecx
  101805:	8d 44 8d e8          	lea    -0x18(%ebp,%ecx,4),%eax
  101809:	c6 44 10 c4 00       	movb   $0x0,-0x3c(%eax,%edx,1)
  10180e:	8d 46 04             	lea    0x4(%esi),%eax
  101811:	89 85 28 ff ff ff    	mov    %eax,-0xd8(%ebp)
  101817:	89 c3                	mov    %eax,%ebx
  101819:	8d 46 14             	lea    0x14(%esi),%eax
  10181c:	89 85 2c ff ff ff    	mov    %eax,-0xd4(%ebp)
  101822:	31 c0                	xor    %eax,%eax
  101824:	8d 4b fc             	lea    -0x4(%ebx),%ecx
  101827:	8d 14 00             	lea    (%eax,%eax,1),%edx
  10182a:	01 c2                	add    %eax,%edx
  10182c:	8d 14 92             	lea    (%edx,%edx,4),%edx
  10182f:	8d 14 90             	lea    (%eax,%edx,4),%edx
  101832:	01 d2                	add    %edx,%edx
  101834:	01 c2                	add    %eax,%edx
  101836:	8d 14 90             	lea    (%eax,%edx,4),%edx
  101839:	8d 14 90             	lea    (%eax,%edx,4),%edx
  10183c:	0f be 41 04          	movsbl 0x4(%ecx),%eax
  101840:	01 d0                	add    %edx,%eax
  101842:	41                   	inc    %ecx
  101843:	39 d9                	cmp    %ebx,%ecx
  101845:	75 e0                	jne    101827 <bench_15pz_run+0x5fb>
  101847:	8d 59 04             	lea    0x4(%ecx),%ebx
  10184a:	3b 9d 2c ff ff ff    	cmp    -0xd4(%ebp),%ebx
  101850:	75 d2                	jne    101824 <bench_15pz_run+0x5f8>
  101852:	c6 45 90 01          	movb   $0x1,-0x70(%ebp)
  101856:	8a 9d 44 ff ff ff    	mov    -0xbc(%ebp),%bl
  10185c:	88 5d 91             	mov    %bl,-0x6f(%ebp)
  10185f:	8a 9d 47 ff ff ff    	mov    -0xb9(%ebp),%bl
  101865:	88 5d 92             	mov    %bl,-0x6e(%ebp)
  101868:	8a 9d 45 ff ff ff    	mov    -0xbb(%ebp),%bl
  10186e:	88 5d 93             	mov    %bl,-0x6d(%ebp)
  101871:	89 45 a4             	mov    %eax,-0x5c(%ebp)
  101874:	8d 45 90             	lea    -0x70(%ebp),%eax
  101877:	8d 56 10             	lea    0x10(%esi),%edx
  10187a:	8b 8d 28 ff ff ff    	mov    -0xd8(%ebp),%ecx
  101880:	8a 5f 04             	mov    0x4(%edi),%bl
  101883:	88 58 04             	mov    %bl,0x4(%eax)
  101886:	8a 5f 05             	mov    0x5(%edi),%bl
  101889:	88 58 05             	mov    %bl,0x5(%eax)
  10188c:	8a 5f 06             	mov    0x6(%edi),%bl
  10188f:	88 58 06             	mov    %bl,0x6(%eax)
  101892:	8a 5f 07             	mov    0x7(%edi),%bl
  101895:	88 58 07             	mov    %bl,0x7(%eax)
  101898:	89 cf                	mov    %ecx,%edi
  10189a:	83 c0 04             	add    $0x4,%eax
  10189d:	39 d1                	cmp    %edx,%ecx
  10189f:	74 05                	je     1018a6 <bench_15pz_run+0x67a>
  1018a1:	83 c1 04             	add    $0x4,%ecx
  1018a4:	eb da                	jmp    101880 <bench_15pz_run+0x654>
  1018a6:	52                   	push   %edx
  1018a7:	ff b5 34 ff ff ff    	pushl  -0xcc(%ebp)
  1018ad:	8d 45 90             	lea    -0x70(%ebp),%eax
  1018b0:	50                   	push   %eax
  1018b1:	ff b5 54 ff ff ff    	pushl  -0xac(%ebp)
  1018b7:	e8 a8 07 00 00       	call   102064 <_ZN14Updatable_heapI8N_puzzleILi4EEE4pushERKS1_i>
  1018bc:	83 c4 10             	add    $0x10,%esp
  1018bf:	80 bd 48 ff ff ff 00 	cmpb   $0x0,-0xb8(%ebp)
  1018c6:	0f 84 1d fe ff ff    	je     1016e9 <bench_15pz_run+0x4bd>
  1018cc:	8b 85 54 ff ff ff    	mov    -0xac(%ebp),%eax
  1018d2:	8b 50 04             	mov    0x4(%eax),%edx
  1018d5:	8d 8d 78 ff ff ff    	lea    -0x88(%ebp),%ecx
  1018db:	8b 00                	mov    (%eax),%eax
  1018dd:	e8 0a f9 ff ff       	call   1011ec <_ZNK14Updatable_heapI8N_puzzleILi4EEE7pointerERKS1_.isra.8>
  1018e2:	85 c0                	test   %eax,%eax
  1018e4:	0f 84 f8 03 00 00    	je     101ce2 <bench_15pz_run+0xab6>
  1018ea:	8b 40 20             	mov    0x20(%eax),%eax
  1018ed:	40                   	inc    %eax
  1018ee:	89 85 34 ff ff ff    	mov    %eax,-0xcc(%ebp)
  1018f4:	89 f7                	mov    %esi,%edi
  1018f6:	89 f0                	mov    %esi,%eax
  1018f8:	8b 95 3c ff ff ff    	mov    -0xc4(%ebp),%edx
  1018fe:	8a 5a 04             	mov    0x4(%edx),%bl
  101901:	88 58 04             	mov    %bl,0x4(%eax)
  101904:	8a 5a 05             	mov    0x5(%edx),%bl
  101907:	88 58 05             	mov    %bl,0x5(%eax)
  10190a:	8a 5a 06             	mov    0x6(%edx),%bl
  10190d:	88 58 06             	mov    %bl,0x6(%eax)
  101910:	8a 5a 07             	mov    0x7(%edx),%bl
  101913:	88 58 07             	mov    %bl,0x7(%eax)
  101916:	83 c2 04             	add    $0x4,%edx
  101919:	83 c0 04             	add    $0x4,%eax
  10191c:	8d 5d 88             	lea    -0x78(%ebp),%ebx
  10191f:	39 d3                	cmp    %edx,%ebx
  101921:	75 db                	jne    1018fe <bench_15pz_run+0x6d2>
  101923:	8b 85 40 ff ff ff    	mov    -0xc0(%ebp),%eax
  101929:	8d 48 ff             	lea    -0x1(%eax),%ecx
  10192c:	8d 44 8d e8          	lea    -0x18(%ebp,%ecx,4),%eax
  101930:	8b 9d 38 ff ff ff    	mov    -0xc8(%ebp),%ebx
  101936:	0f be 44 18 94       	movsbl -0x6c(%eax,%ebx,1),%eax
  10193b:	89 c3                	mov    %eax,%ebx
  10193d:	89 c2                	mov    %eax,%edx
  10193f:	4a                   	dec    %edx
  101940:	79 03                	jns    101945 <bench_15pz_run+0x719>
  101942:	8d 50 02             	lea    0x2(%eax),%edx
  101945:	c1 fa 02             	sar    $0x2,%edx
  101948:	89 d0                	mov    %edx,%eax
  10194a:	2b 85 40 ff ff ff    	sub    -0xc0(%ebp),%eax
  101950:	79 02                	jns    101954 <bench_15pz_run+0x728>
  101952:	f7 d8                	neg    %eax
  101954:	29 ca                	sub    %ecx,%edx
  101956:	79 02                	jns    10195a <bench_15pz_run+0x72e>
  101958:	f7 da                	neg    %edx
  10195a:	29 d0                	sub    %edx,%eax
  10195c:	02 85 46 ff ff ff    	add    -0xba(%ebp),%al
  101962:	88 85 3c ff ff ff    	mov    %al,-0xc4(%ebp)
  101968:	8b 85 40 ff ff ff    	mov    -0xc0(%ebp),%eax
  10196e:	8d 44 85 e8          	lea    -0x18(%ebp,%eax,4),%eax
  101972:	8b 95 38 ff ff ff    	mov    -0xc8(%ebp),%edx
  101978:	88 5c 10 c4          	mov    %bl,-0x3c(%eax,%edx,1)
  10197c:	8a 85 48 ff ff ff    	mov    -0xb8(%ebp),%al
  101982:	48                   	dec    %eax
  101983:	88 85 40 ff ff ff    	mov    %al,-0xc0(%ebp)
  101989:	8d 44 8d e8          	lea    -0x18(%ebp,%ecx,4),%eax
  10198d:	c6 44 10 c4 00       	movb   $0x0,-0x3c(%eax,%edx,1)
  101992:	8d 46 04             	lea    0x4(%esi),%eax
  101995:	89 85 38 ff ff ff    	mov    %eax,-0xc8(%ebp)
  10199b:	89 c3                	mov    %eax,%ebx
  10199d:	8d 46 14             	lea    0x14(%esi),%eax
  1019a0:	89 85 48 ff ff ff    	mov    %eax,-0xb8(%ebp)
  1019a6:	31 c0                	xor    %eax,%eax
  1019a8:	8d 4b fc             	lea    -0x4(%ebx),%ecx
  1019ab:	8d 14 00             	lea    (%eax,%eax,1),%edx
  1019ae:	01 c2                	add    %eax,%edx
  1019b0:	8d 14 92             	lea    (%edx,%edx,4),%edx
  1019b3:	8d 14 90             	lea    (%eax,%edx,4),%edx
  1019b6:	01 d2                	add    %edx,%edx
  1019b8:	01 c2                	add    %eax,%edx
  1019ba:	8d 14 90             	lea    (%eax,%edx,4),%edx
  1019bd:	8d 14 90             	lea    (%eax,%edx,4),%edx
  1019c0:	0f be 41 04          	movsbl 0x4(%ecx),%eax
  1019c4:	01 d0                	add    %edx,%eax
  1019c6:	41                   	inc    %ecx
  1019c7:	39 cb                	cmp    %ecx,%ebx
  1019c9:	75 e0                	jne    1019ab <bench_15pz_run+0x77f>
  1019cb:	83 c3 04             	add    $0x4,%ebx
  1019ce:	39 9d 48 ff ff ff    	cmp    %ebx,-0xb8(%ebp)
  1019d4:	75 d2                	jne    1019a8 <bench_15pz_run+0x77c>
  1019d6:	c6 45 90 01          	movb   $0x1,-0x70(%ebp)
  1019da:	8a 9d 40 ff ff ff    	mov    -0xc0(%ebp),%bl
  1019e0:	88 5d 91             	mov    %bl,-0x6f(%ebp)
  1019e3:	8a 9d 47 ff ff ff    	mov    -0xb9(%ebp),%bl
  1019e9:	88 5d 92             	mov    %bl,-0x6e(%ebp)
  1019ec:	8a 9d 3c ff ff ff    	mov    -0xc4(%ebp),%bl
  1019f2:	88 5d 93             	mov    %bl,-0x6d(%ebp)
  1019f5:	89 45 a4             	mov    %eax,-0x5c(%ebp)
  1019f8:	8d 45 90             	lea    -0x70(%ebp),%eax
  1019fb:	8d 56 10             	lea    0x10(%esi),%edx
  1019fe:	8b 8d 38 ff ff ff    	mov    -0xc8(%ebp),%ecx
  101a04:	8a 5f 04             	mov    0x4(%edi),%bl
  101a07:	88 58 04             	mov    %bl,0x4(%eax)
  101a0a:	8a 5f 05             	mov    0x5(%edi),%bl
  101a0d:	88 58 05             	mov    %bl,0x5(%eax)
  101a10:	8a 5f 06             	mov    0x6(%edi),%bl
  101a13:	88 58 06             	mov    %bl,0x6(%eax)
  101a16:	8a 5f 07             	mov    0x7(%edi),%bl
  101a19:	88 58 07             	mov    %bl,0x7(%eax)
  101a1c:	89 cf                	mov    %ecx,%edi
  101a1e:	83 c0 04             	add    $0x4,%eax
  101a21:	39 d1                	cmp    %edx,%ecx
  101a23:	0f 84 a7 fc ff ff    	je     1016d0 <bench_15pz_run+0x4a4>
  101a29:	83 c1 04             	add    $0x4,%ecx
  101a2c:	eb d6                	jmp    101a04 <bench_15pz_run+0x7d8>
  101a2e:	66 90                	xchg   %ax,%ax
  101a30:	0f b6 85 48 ff ff ff 	movzbl -0xb8(%ebp),%eax
  101a37:	89 85 40 ff ff ff    	mov    %eax,-0xc0(%ebp)
  101a3d:	c7 85 38 ff ff ff 03 	movl   $0x3,-0xc8(%ebp)
  101a44:	00 00 00 
  101a47:	8b 85 54 ff ff ff    	mov    -0xac(%ebp),%eax
  101a4d:	8b 50 04             	mov    0x4(%eax),%edx
  101a50:	8d 8d 78 ff ff ff    	lea    -0x88(%ebp),%ecx
  101a56:	8b 00                	mov    (%eax),%eax
  101a58:	e8 8f f7 ff ff       	call   1011ec <_ZNK14Updatable_heapI8N_puzzleILi4EEE7pointerERKS1_.isra.8>
  101a5d:	85 c0                	test   %eax,%eax
  101a5f:	0f 84 8c 02 00 00    	je     101cf1 <bench_15pz_run+0xac5>
  101a65:	8b 40 20             	mov    0x20(%eax),%eax
  101a68:	40                   	inc    %eax
  101a69:	89 85 34 ff ff ff    	mov    %eax,-0xcc(%ebp)
  101a6f:	89 f7                	mov    %esi,%edi
  101a71:	89 f2                	mov    %esi,%edx
  101a73:	8d 85 78 ff ff ff    	lea    -0x88(%ebp),%eax
  101a79:	8a 58 04             	mov    0x4(%eax),%bl
  101a7c:	88 5a 04             	mov    %bl,0x4(%edx)
  101a7f:	8a 58 05             	mov    0x5(%eax),%bl
  101a82:	88 5a 05             	mov    %bl,0x5(%edx)
  101a85:	8a 58 06             	mov    0x6(%eax),%bl
  101a88:	88 5a 06             	mov    %bl,0x6(%edx)
  101a8b:	8a 58 07             	mov    0x7(%eax),%bl
  101a8e:	88 5a 07             	mov    %bl,0x7(%edx)
  101a91:	83 c0 04             	add    $0x4,%eax
  101a94:	83 c2 04             	add    $0x4,%edx
  101a97:	8d 5d 88             	lea    -0x78(%ebp),%ebx
  101a9a:	39 d8                	cmp    %ebx,%eax
  101a9c:	75 db                	jne    101a79 <bench_15pz_run+0x84d>
  101a9e:	8b 85 38 ff ff ff    	mov    -0xc8(%ebp),%eax
  101aa4:	8d 50 ff             	lea    -0x1(%eax),%edx
  101aa7:	8b 85 40 ff ff ff    	mov    -0xc0(%ebp),%eax
  101aad:	8d 44 85 e8          	lea    -0x18(%ebp,%eax,4),%eax
  101ab1:	0f be 44 02 94       	movsbl -0x6c(%edx,%eax,1),%eax
  101ab6:	89 c1                	mov    %eax,%ecx
  101ab8:	48                   	dec    %eax
  101ab9:	25 03 00 00 80       	and    $0x80000003,%eax
  101abe:	79 05                	jns    101ac5 <bench_15pz_run+0x899>
  101ac0:	48                   	dec    %eax
  101ac1:	83 c8 fc             	or     $0xfffffffc,%eax
  101ac4:	40                   	inc    %eax
  101ac5:	89 c3                	mov    %eax,%ebx
  101ac7:	2b 9d 38 ff ff ff    	sub    -0xc8(%ebp),%ebx
  101acd:	79 02                	jns    101ad1 <bench_15pz_run+0x8a5>
  101acf:	f7 db                	neg    %ebx
  101ad1:	29 d0                	sub    %edx,%eax
  101ad3:	79 02                	jns    101ad7 <bench_15pz_run+0x8ab>
  101ad5:	f7 d8                	neg    %eax
  101ad7:	29 c3                	sub    %eax,%ebx
  101ad9:	89 d8                	mov    %ebx,%eax
  101adb:	02 85 46 ff ff ff    	add    -0xba(%ebp),%al
  101ae1:	88 85 45 ff ff ff    	mov    %al,-0xbb(%ebp)
  101ae7:	8b 85 40 ff ff ff    	mov    -0xc0(%ebp),%eax
  101aed:	8d 44 85 e8          	lea    -0x18(%ebp,%eax,4),%eax
  101af1:	8b 9d 38 ff ff ff    	mov    -0xc8(%ebp),%ebx
  101af7:	88 4c 18 c4          	mov    %cl,-0x3c(%eax,%ebx,1)
  101afb:	8a 9d 47 ff ff ff    	mov    -0xb9(%ebp),%bl
  101b01:	4b                   	dec    %ebx
  101b02:	88 9d 44 ff ff ff    	mov    %bl,-0xbc(%ebp)
  101b08:	c6 44 02 c4 00       	movb   $0x0,-0x3c(%edx,%eax,1)
  101b0d:	8d 46 04             	lea    0x4(%esi),%eax
  101b10:	89 85 28 ff ff ff    	mov    %eax,-0xd8(%ebp)
  101b16:	89 c3                	mov    %eax,%ebx
  101b18:	8d 46 14             	lea    0x14(%esi),%eax
  101b1b:	89 85 2c ff ff ff    	mov    %eax,-0xd4(%ebp)
  101b21:	31 c0                	xor    %eax,%eax
  101b23:	8d 4b fc             	lea    -0x4(%ebx),%ecx
  101b26:	8d 14 00             	lea    (%eax,%eax,1),%edx
  101b29:	01 c2                	add    %eax,%edx
  101b2b:	8d 14 92             	lea    (%edx,%edx,4),%edx
  101b2e:	8d 14 90             	lea    (%eax,%edx,4),%edx
  101b31:	01 d2                	add    %edx,%edx
  101b33:	01 c2                	add    %eax,%edx
  101b35:	8d 14 90             	lea    (%eax,%edx,4),%edx
  101b38:	8d 14 90             	lea    (%eax,%edx,4),%edx
  101b3b:	0f be 41 04          	movsbl 0x4(%ecx),%eax
  101b3f:	01 d0                	add    %edx,%eax
  101b41:	41                   	inc    %ecx
  101b42:	39 d9                	cmp    %ebx,%ecx
  101b44:	75 e0                	jne    101b26 <bench_15pz_run+0x8fa>
  101b46:	8d 59 04             	lea    0x4(%ecx),%ebx
  101b49:	39 9d 2c ff ff ff    	cmp    %ebx,-0xd4(%ebp)
  101b4f:	75 d2                	jne    101b23 <bench_15pz_run+0x8f7>
  101b51:	c6 45 90 01          	movb   $0x1,-0x70(%ebp)
  101b55:	8a 9d 48 ff ff ff    	mov    -0xb8(%ebp),%bl
  101b5b:	88 5d 91             	mov    %bl,-0x6f(%ebp)
  101b5e:	8a 9d 44 ff ff ff    	mov    -0xbc(%ebp),%bl
  101b64:	88 5d 92             	mov    %bl,-0x6e(%ebp)
  101b67:	8a 9d 45 ff ff ff    	mov    -0xbb(%ebp),%bl
  101b6d:	88 5d 93             	mov    %bl,-0x6d(%ebp)
  101b70:	89 45 a4             	mov    %eax,-0x5c(%ebp)
  101b73:	8d 45 90             	lea    -0x70(%ebp),%eax
  101b76:	8d 56 10             	lea    0x10(%esi),%edx
  101b79:	8b 8d 28 ff ff ff    	mov    -0xd8(%ebp),%ecx
  101b7f:	8a 5f 04             	mov    0x4(%edi),%bl
  101b82:	88 58 04             	mov    %bl,0x4(%eax)
  101b85:	8a 5f 05             	mov    0x5(%edi),%bl
  101b88:	88 58 05             	mov    %bl,0x5(%eax)
  101b8b:	8a 5f 06             	mov    0x6(%edi),%bl
  101b8e:	88 58 06             	mov    %bl,0x6(%eax)
  101b91:	8a 5f 07             	mov    0x7(%edi),%bl
  101b94:	88 58 07             	mov    %bl,0x7(%eax)
  101b97:	89 cf                	mov    %ecx,%edi
  101b99:	83 c0 04             	add    $0x4,%eax
  101b9c:	39 d1                	cmp    %edx,%ecx
  101b9e:	74 05                	je     101ba5 <bench_15pz_run+0x979>
  101ba0:	83 c1 04             	add    $0x4,%ecx
  101ba3:	eb da                	jmp    101b7f <bench_15pz_run+0x953>
  101ba5:	51                   	push   %ecx
  101ba6:	ff b5 34 ff ff ff    	pushl  -0xcc(%ebp)
  101bac:	8d 45 90             	lea    -0x70(%ebp),%eax
  101baf:	50                   	push   %eax
  101bb0:	ff b5 54 ff ff ff    	pushl  -0xac(%ebp)
  101bb6:	e8 a9 04 00 00       	call   102064 <_ZN14Updatable_heapI8N_puzzleILi4EEE4pushERKS1_i>
  101bbb:	83 c4 10             	add    $0x10,%esp
  101bbe:	e9 73 fb ff ff       	jmp    101736 <bench_15pz_run+0x50a>
  101bc3:	90                   	nop
  101bc4:	8b 85 54 ff ff ff    	mov    -0xac(%ebp),%eax
  101bca:	c7 40 0c 00 00 00 00 	movl   $0x0,0xc(%eax)
  101bd1:	e9 e3 f8 ff ff       	jmp    1014b9 <bench_15pz_run+0x28d>
  101bd6:	c7 85 34 ff ff ff 00 	movl   $0x80000000,-0xcc(%ebp)
  101bdd:	00 00 80 
  101be0:	e9 86 fb ff ff       	jmp    10176b <bench_15pz_run+0x53f>
  101be5:	c7 85 34 ff ff ff 00 	movl   $0x80000000,-0xcc(%ebp)
  101bec:	00 00 80 
  101bef:	e9 95 f9 ff ff       	jmp    101589 <bench_15pz_run+0x35d>
  101bf4:	50                   	push   %eax
  101bf5:	6a 2d                	push   $0x2d
  101bf7:	e9 6b f6 ff ff       	jmp    101267 <bench_15pz_run+0x3b>
  101bfc:	83 ec 08             	sub    $0x8,%esp
  101bff:	68 60 45 10 00       	push   $0x104560
  101c04:	8d 75 a8             	lea    -0x58(%ebp),%esi
  101c07:	56                   	push   %esi
  101c08:	e8 53 02 00 00       	call   101e60 <_ZN8N_puzzleILi4EEC1EPi>
  101c0d:	8a 55 a8             	mov    -0x58(%ebp),%dl
  101c10:	8b 45 a8             	mov    -0x58(%ebp),%eax
  101c13:	89 85 60 ff ff ff    	mov    %eax,-0xa0(%ebp)
  101c19:	8b 45 bc             	mov    -0x44(%ebp),%eax
  101c1c:	89 85 74 ff ff ff    	mov    %eax,-0x8c(%ebp)
  101c22:	89 f0                	mov    %esi,%eax
  101c24:	89 f9                	mov    %edi,%ecx
  101c26:	8d 5d b8             	lea    -0x48(%ebp),%ebx
  101c29:	89 9d 50 ff ff ff    	mov    %ebx,-0xb0(%ebp)
  101c2f:	83 c4 10             	add    $0x10,%esp
  101c32:	88 95 54 ff ff ff    	mov    %dl,-0xac(%ebp)
  101c38:	8a 50 04             	mov    0x4(%eax),%dl
  101c3b:	88 51 04             	mov    %dl,0x4(%ecx)
  101c3e:	8a 50 05             	mov    0x5(%eax),%dl
  101c41:	88 51 05             	mov    %dl,0x5(%ecx)
  101c44:	8a 50 06             	mov    0x6(%eax),%dl
  101c47:	88 51 06             	mov    %dl,0x6(%ecx)
  101c4a:	8a 50 07             	mov    0x7(%eax),%dl
  101c4d:	88 51 07             	mov    %dl,0x7(%ecx)
  101c50:	83 c0 04             	add    $0x4,%eax
  101c53:	83 c1 04             	add    $0x4,%ecx
  101c56:	39 c3                	cmp    %eax,%ebx
  101c58:	75 de                	jne    101c38 <bench_15pz_run+0xa0c>
  101c5a:	8a 95 54 ff ff ff    	mov    -0xac(%ebp),%dl
  101c60:	c7 85 30 ff ff ff 00 	movl   $0x4000,-0xd0(%ebp)
  101c67:	40 00 00 
  101c6a:	e9 81 f6 ff ff       	jmp    1012f0 <bench_15pz_run+0xc4>
  101c6f:	83 ec 08             	sub    $0x8,%esp
  101c72:	68 a0 45 10 00       	push   $0x1045a0
  101c77:	8d 75 a8             	lea    -0x58(%ebp),%esi
  101c7a:	56                   	push   %esi
  101c7b:	e8 e0 01 00 00       	call   101e60 <_ZN8N_puzzleILi4EEC1EPi>
  101c80:	8a 55 a8             	mov    -0x58(%ebp),%dl
  101c83:	8b 45 a8             	mov    -0x58(%ebp),%eax
  101c86:	89 85 60 ff ff ff    	mov    %eax,-0xa0(%ebp)
  101c8c:	8b 45 bc             	mov    -0x44(%ebp),%eax
  101c8f:	89 85 74 ff ff ff    	mov    %eax,-0x8c(%ebp)
  101c95:	89 f0                	mov    %esi,%eax
  101c97:	89 f9                	mov    %edi,%ecx
  101c99:	8d 5d b8             	lea    -0x48(%ebp),%ebx
  101c9c:	89 9d 50 ff ff ff    	mov    %ebx,-0xb0(%ebp)
  101ca2:	83 c4 10             	add    $0x10,%esp
  101ca5:	88 95 54 ff ff ff    	mov    %dl,-0xac(%ebp)
  101cab:	8a 50 04             	mov    0x4(%eax),%dl
  101cae:	88 51 04             	mov    %dl,0x4(%ecx)
  101cb1:	8a 50 05             	mov    0x5(%eax),%dl
  101cb4:	88 51 05             	mov    %dl,0x5(%ecx)
  101cb7:	8a 50 06             	mov    0x6(%eax),%dl
  101cba:	88 51 06             	mov    %dl,0x6(%ecx)
  101cbd:	8a 50 07             	mov    0x7(%eax),%dl
  101cc0:	88 51 07             	mov    %dl,0x7(%ecx)
  101cc3:	83 c0 04             	add    $0x4,%eax
  101cc6:	83 c1 04             	add    $0x4,%ecx
  101cc9:	39 d8                	cmp    %ebx,%eax
  101ccb:	75 de                	jne    101cab <bench_15pz_run+0xa7f>
  101ccd:	8a 95 54 ff ff ff    	mov    -0xac(%ebp),%dl
  101cd3:	c7 85 30 ff ff ff 00 	movl   $0x800,-0xd0(%ebp)
  101cda:	08 00 00 
  101cdd:	e9 0e f6 ff ff       	jmp    1012f0 <bench_15pz_run+0xc4>
  101ce2:	c7 85 34 ff ff ff 00 	movl   $0x80000000,-0xcc(%ebp)
  101ce9:	00 00 80 
  101cec:	e9 03 fc ff ff       	jmp    1018f4 <bench_15pz_run+0x6c8>
  101cf1:	c7 85 34 ff ff ff 00 	movl   $0x80000000,-0xcc(%ebp)
  101cf8:	00 00 80 
  101cfb:	e9 6f fd ff ff       	jmp    101a6f <bench_15pz_run+0x843>
  101d00:	8b 85 54 ff ff ff    	mov    -0xac(%ebp),%eax
  101d06:	8b 50 04             	mov    0x4(%eax),%edx
  101d09:	8d 8d 78 ff ff ff    	lea    -0x88(%ebp),%ecx
  101d0f:	8b 00                	mov    (%eax),%eax
  101d11:	e8 d6 f4 ff ff       	call   1011ec <_ZNK14Updatable_heapI8N_puzzleILi4EEE7pointerERKS1_.isra.8>
  101d16:	85 c0                	test   %eax,%eax
  101d18:	74 17                	je     101d31 <bench_15pz_run+0xb05>
  101d1a:	8b 40 20             	mov    0x20(%eax),%eax
  101d1d:	0f af 85 4c ff ff ff 	imul   -0xb4(%ebp),%eax
  101d24:	a3 54 49 10 00       	mov    %eax,0x104954
  101d29:	8d 65 f4             	lea    -0xc(%ebp),%esp
  101d2c:	5b                   	pop    %ebx
  101d2d:	5e                   	pop    %esi
  101d2e:	5f                   	pop    %edi
  101d2f:	5d                   	pop    %ebp
  101d30:	c3                   	ret    
  101d31:	b8 ff ff ff 7f       	mov    $0x7fffffff,%eax
  101d36:	eb e5                	jmp    101d1d <bench_15pz_run+0xaf1>
  101d38:	50                   	push   %eax
  101d39:	6a 56                	push   $0x56
  101d3b:	68 44 41 10 00       	push   $0x104144
  101d40:	68 81 41 10 00       	push   $0x104181
  101d45:	e8 7e 1e 00 00       	call   103bc8 <printf>
  101d4a:	c7 04 24 01 00 00 00 	movl   $0x1,(%esp)
  101d51:	e8 fe 1a 00 00       	call   103854 <_halt>
  101d56:	66 90                	xchg   %ax,%ax

00101d58 <_ZN8N_puzzleILi4EEC1Ev>:
  101d58:	55                   	push   %ebp
  101d59:	89 e5                	mov    %esp,%ebp
  101d5b:	57                   	push   %edi
  101d5c:	56                   	push   %esi
  101d5d:	53                   	push   %ebx
  101d5e:	83 ec 5c             	sub    $0x5c,%esp
  101d61:	8b 45 08             	mov    0x8(%ebp),%eax
  101d64:	c6 00 01             	movb   $0x1,(%eax)
  101d67:	c6 40 03 00          	movb   $0x0,0x3(%eax)
  101d6b:	31 c0                	xor    %eax,%eax
  101d6d:	8d 76 00             	lea    0x0(%esi),%esi
  101d70:	89 44 85 a8          	mov    %eax,-0x58(%ebp,%eax,4)
  101d74:	40                   	inc    %eax
  101d75:	83 f8 10             	cmp    $0x10,%eax
  101d78:	75 f6                	jne    101d70 <_ZN8N_puzzleILi4EEC1Ev+0x18>
  101d7a:	8b 45 08             	mov    0x8(%ebp),%eax
  101d7d:	89 45 98             	mov    %eax,-0x68(%ebp)
  101d80:	89 45 a0             	mov    %eax,-0x60(%ebp)
  101d83:	c7 45 a4 00 00 00 00 	movl   $0x0,-0x5c(%ebp)
  101d8a:	83 c0 10             	add    $0x10,%eax
  101d8d:	89 45 9c             	mov    %eax,-0x64(%ebp)
  101d90:	8b 75 9c             	mov    -0x64(%ebp),%esi
  101d93:	2b 75 a0             	sub    -0x60(%ebp),%esi
  101d96:	31 db                	xor    %ebx,%ebx
  101d98:	e8 2b 06 00 00       	call   1023c8 <bench_rand>
  101d9d:	31 d2                	xor    %edx,%edx
  101d9f:	f7 f6                	div    %esi
  101da1:	8b 44 95 a8          	mov    -0x58(%ebp,%edx,4),%eax
  101da5:	8b 7d a0             	mov    -0x60(%ebp),%edi
  101da8:	88 44 1f 04          	mov    %al,0x4(%edi,%ebx,1)
  101dac:	85 c0                	test   %eax,%eax
  101dae:	75 78                	jne    101e28 <_ZN8N_puzzleILi4EEC1Ev+0xd0>
  101db0:	8b 7d 08             	mov    0x8(%ebp),%edi
  101db3:	8a 45 a4             	mov    -0x5c(%ebp),%al
  101db6:	88 47 01             	mov    %al,0x1(%edi)
  101db9:	88 5f 02             	mov    %bl,0x2(%edi)
  101dbc:	8b 44 b5 a4          	mov    -0x5c(%ebp,%esi,4),%eax
  101dc0:	89 44 95 a8          	mov    %eax,-0x58(%ebp,%edx,4)
  101dc4:	43                   	inc    %ebx
  101dc5:	4e                   	dec    %esi
  101dc6:	83 fb 04             	cmp    $0x4,%ebx
  101dc9:	75 cd                	jne    101d98 <_ZN8N_puzzleILi4EEC1Ev+0x40>
  101dcb:	ff 45 a4             	incl   -0x5c(%ebp)
  101dce:	8b 45 a4             	mov    -0x5c(%ebp),%eax
  101dd1:	83 45 a0 04          	addl   $0x4,-0x60(%ebp)
  101dd5:	83 f8 04             	cmp    $0x4,%eax
  101dd8:	75 b6                	jne    101d90 <_ZN8N_puzzleILi4EEC1Ev+0x38>
  101dda:	8b 45 08             	mov    0x8(%ebp),%eax
  101ddd:	c7 40 14 00 00 00 00 	movl   $0x0,0x14(%eax)
  101de4:	31 c0                	xor    %eax,%eax
  101de6:	8b 5d 98             	mov    -0x68(%ebp),%ebx
  101de9:	8b 75 9c             	mov    -0x64(%ebp),%esi
  101dec:	31 c9                	xor    %ecx,%ecx
  101dee:	8d 14 00             	lea    (%eax,%eax,1),%edx
  101df1:	01 c2                	add    %eax,%edx
  101df3:	8d 14 92             	lea    (%edx,%edx,4),%edx
  101df6:	8d 14 90             	lea    (%eax,%edx,4),%edx
  101df9:	01 d2                	add    %edx,%edx
  101dfb:	01 c2                	add    %eax,%edx
  101dfd:	8d 14 90             	lea    (%eax,%edx,4),%edx
  101e00:	8d 14 90             	lea    (%eax,%edx,4),%edx
  101e03:	0f be 44 0b 04       	movsbl 0x4(%ebx,%ecx,1),%eax
  101e08:	01 d0                	add    %edx,%eax
  101e0a:	41                   	inc    %ecx
  101e0b:	83 f9 04             	cmp    $0x4,%ecx
  101e0e:	75 de                	jne    101dee <_ZN8N_puzzleILi4EEC1Ev+0x96>
  101e10:	83 c3 04             	add    $0x4,%ebx
  101e13:	39 f3                	cmp    %esi,%ebx
  101e15:	75 d5                	jne    101dec <_ZN8N_puzzleILi4EEC1Ev+0x94>
  101e17:	8b 75 08             	mov    0x8(%ebp),%esi
  101e1a:	89 46 14             	mov    %eax,0x14(%esi)
  101e1d:	83 c4 5c             	add    $0x5c,%esp
  101e20:	5b                   	pop    %ebx
  101e21:	5e                   	pop    %esi
  101e22:	5f                   	pop    %edi
  101e23:	5d                   	pop    %ebp
  101e24:	c3                   	ret    
  101e25:	8d 76 00             	lea    0x0(%esi),%esi
  101e28:	8d 48 ff             	lea    -0x1(%eax),%ecx
  101e2b:	89 cf                	mov    %ecx,%edi
  101e2d:	85 c9                	test   %ecx,%ecx
  101e2f:	79 03                	jns    101e34 <_ZN8N_puzzleILi4EEC1Ev+0xdc>
  101e31:	8d 78 02             	lea    0x2(%eax),%edi
  101e34:	c1 ff 02             	sar    $0x2,%edi
  101e37:	2b 7d a4             	sub    -0x5c(%ebp),%edi
  101e3a:	79 02                	jns    101e3e <_ZN8N_puzzleILi4EEC1Ev+0xe6>
  101e3c:	f7 df                	neg    %edi
  101e3e:	81 e1 03 00 00 80    	and    $0x80000003,%ecx
  101e44:	79 05                	jns    101e4b <_ZN8N_puzzleILi4EEC1Ev+0xf3>
  101e46:	49                   	dec    %ecx
  101e47:	83 c9 fc             	or     $0xfffffffc,%ecx
  101e4a:	41                   	inc    %ecx
  101e4b:	29 d9                	sub    %ebx,%ecx
  101e4d:	79 02                	jns    101e51 <_ZN8N_puzzleILi4EEC1Ev+0xf9>
  101e4f:	f7 d9                	neg    %ecx
  101e51:	01 f9                	add    %edi,%ecx
  101e53:	8b 45 08             	mov    0x8(%ebp),%eax
  101e56:	00 48 03             	add    %cl,0x3(%eax)
  101e59:	e9 5e ff ff ff       	jmp    101dbc <_ZN8N_puzzleILi4EEC1Ev+0x64>
  101e5e:	66 90                	xchg   %ax,%ax

00101e60 <_ZN8N_puzzleILi4EEC1EPi>:
  101e60:	55                   	push   %ebp
  101e61:	89 e5                	mov    %esp,%ebp
  101e63:	57                   	push   %edi
  101e64:	56                   	push   %esi
  101e65:	53                   	push   %ebx
  101e66:	83 ec 1c             	sub    $0x1c,%esp
  101e69:	8b 75 08             	mov    0x8(%ebp),%esi
  101e6c:	c6 06 01             	movb   $0x1,(%esi)
  101e6f:	c6 46 03 00          	movb   $0x0,0x3(%esi)
  101e73:	8d 7d e4             	lea    -0x1c(%ebp),%edi
  101e76:	89 f8                	mov    %edi,%eax
  101e78:	c6 00 00             	movb   $0x0,(%eax)
  101e7b:	40                   	inc    %eax
  101e7c:	8d 5d f4             	lea    -0xc(%ebp),%ebx
  101e7f:	39 d8                	cmp    %ebx,%eax
  101e81:	75 f5                	jne    101e78 <_ZN8N_puzzleILi4EEC1EPi+0x18>
  101e83:	8b 5d 0c             	mov    0xc(%ebp),%ebx
  101e86:	89 75 d8             	mov    %esi,-0x28(%ebp)
  101e89:	c7 45 e0 00 00 00 00 	movl   $0x0,-0x20(%ebp)
  101e90:	89 7d dc             	mov    %edi,-0x24(%ebp)
  101e93:	89 f7                	mov    %esi,%edi
  101e95:	31 c0                	xor    %eax,%eax
  101e97:	8b 14 83             	mov    (%ebx,%eax,4),%edx
  101e9a:	88 54 07 04          	mov    %dl,0x4(%edi,%eax,1)
  101e9e:	8b 14 83             	mov    (%ebx,%eax,4),%edx
  101ea1:	c6 44 15 e4 01       	movb   $0x1,-0x1c(%ebp,%edx,1)
  101ea6:	85 d2                	test   %edx,%edx
  101ea8:	75 7e                	jne    101f28 <_ZN8N_puzzleILi4EEC1EPi+0xc8>
  101eaa:	8a 4d e0             	mov    -0x20(%ebp),%cl
  101ead:	88 4e 01             	mov    %cl,0x1(%esi)
  101eb0:	88 46 02             	mov    %al,0x2(%esi)
  101eb3:	40                   	inc    %eax
  101eb4:	83 f8 04             	cmp    $0x4,%eax
  101eb7:	75 de                	jne    101e97 <_ZN8N_puzzleILi4EEC1EPi+0x37>
  101eb9:	ff 45 e0             	incl   -0x20(%ebp)
  101ebc:	8b 45 e0             	mov    -0x20(%ebp),%eax
  101ebf:	83 c3 10             	add    $0x10,%ebx
  101ec2:	83 c7 04             	add    $0x4,%edi
  101ec5:	83 f8 04             	cmp    $0x4,%eax
  101ec8:	75 cb                	jne    101e95 <_ZN8N_puzzleILi4EEC1EPi+0x35>
  101eca:	8b 7d dc             	mov    -0x24(%ebp),%edi
  101ecd:	8d 76 00             	lea    0x0(%esi),%esi
  101ed0:	80 3f 00             	cmpb   $0x0,(%edi)
  101ed3:	0f 84 8b 00 00 00    	je     101f64 <_ZN8N_puzzleILi4EEC1EPi+0x104>
  101ed9:	47                   	inc    %edi
  101eda:	8d 45 f4             	lea    -0xc(%ebp),%eax
  101edd:	39 c7                	cmp    %eax,%edi
  101edf:	75 ef                	jne    101ed0 <_ZN8N_puzzleILi4EEC1EPi+0x70>
  101ee1:	c7 46 14 00 00 00 00 	movl   $0x0,0x14(%esi)
  101ee8:	8d 5e 10             	lea    0x10(%esi),%ebx
  101eeb:	31 c0                	xor    %eax,%eax
  101eed:	8b 7d d8             	mov    -0x28(%ebp),%edi
  101ef0:	31 c9                	xor    %ecx,%ecx
  101ef2:	8d 14 00             	lea    (%eax,%eax,1),%edx
  101ef5:	01 c2                	add    %eax,%edx
  101ef7:	8d 14 92             	lea    (%edx,%edx,4),%edx
  101efa:	8d 14 90             	lea    (%eax,%edx,4),%edx
  101efd:	01 d2                	add    %edx,%edx
  101eff:	01 c2                	add    %eax,%edx
  101f01:	8d 14 90             	lea    (%eax,%edx,4),%edx
  101f04:	8d 14 90             	lea    (%eax,%edx,4),%edx
  101f07:	0f be 44 0f 04       	movsbl 0x4(%edi,%ecx,1),%eax
  101f0c:	01 d0                	add    %edx,%eax
  101f0e:	41                   	inc    %ecx
  101f0f:	83 f9 04             	cmp    $0x4,%ecx
  101f12:	75 de                	jne    101ef2 <_ZN8N_puzzleILi4EEC1EPi+0x92>
  101f14:	83 c7 04             	add    $0x4,%edi
  101f17:	39 df                	cmp    %ebx,%edi
  101f19:	75 d5                	jne    101ef0 <_ZN8N_puzzleILi4EEC1EPi+0x90>
  101f1b:	89 46 14             	mov    %eax,0x14(%esi)
  101f1e:	83 c4 1c             	add    $0x1c,%esp
  101f21:	5b                   	pop    %ebx
  101f22:	5e                   	pop    %esi
  101f23:	5f                   	pop    %edi
  101f24:	5d                   	pop    %ebp
  101f25:	c3                   	ret    
  101f26:	66 90                	xchg   %ax,%ax
  101f28:	89 d1                	mov    %edx,%ecx
  101f2a:	49                   	dec    %ecx
  101f2b:	79 03                	jns    101f30 <_ZN8N_puzzleILi4EEC1EPi+0xd0>
  101f2d:	8d 4a 02             	lea    0x2(%edx),%ecx
  101f30:	c1 f9 02             	sar    $0x2,%ecx
  101f33:	2b 4d e0             	sub    -0x20(%ebp),%ecx
  101f36:	79 02                	jns    101f3a <_ZN8N_puzzleILi4EEC1EPi+0xda>
  101f38:	f7 d9                	neg    %ecx
  101f3a:	02 4e 03             	add    0x3(%esi),%cl
  101f3d:	88 4e 03             	mov    %cl,0x3(%esi)
  101f40:	8b 14 83             	mov    (%ebx,%eax,4),%edx
  101f43:	4a                   	dec    %edx
  101f44:	81 e2 03 00 00 80    	and    $0x80000003,%edx
  101f4a:	79 05                	jns    101f51 <_ZN8N_puzzleILi4EEC1EPi+0xf1>
  101f4c:	4a                   	dec    %edx
  101f4d:	83 ca fc             	or     $0xfffffffc,%edx
  101f50:	42                   	inc    %edx
  101f51:	29 c2                	sub    %eax,%edx
  101f53:	79 02                	jns    101f57 <_ZN8N_puzzleILi4EEC1EPi+0xf7>
  101f55:	f7 da                	neg    %edx
  101f57:	01 ca                	add    %ecx,%edx
  101f59:	88 56 03             	mov    %dl,0x3(%esi)
  101f5c:	e9 52 ff ff ff       	jmp    101eb3 <_ZN8N_puzzleILi4EEC1EPi+0x53>
  101f61:	8d 76 00             	lea    0x0(%esi),%esi
  101f64:	c6 06 00             	movb   $0x0,(%esi)
  101f67:	83 c4 1c             	add    $0x1c,%esp
  101f6a:	5b                   	pop    %ebx
  101f6b:	5e                   	pop    %esi
  101f6c:	5f                   	pop    %edi
  101f6d:	5d                   	pop    %ebp
  101f6e:	c3                   	ret    
  101f6f:	90                   	nop

00101f70 <_ZNK8N_puzzleILi4EEeqERKS0_>:
  101f70:	55                   	push   %ebp
  101f71:	89 e5                	mov    %esp,%ebp
  101f73:	57                   	push   %edi
  101f74:	56                   	push   %esi
  101f75:	53                   	push   %ebx
  101f76:	8b 4d 08             	mov    0x8(%ebp),%ecx
  101f79:	8b 5d 0c             	mov    0xc(%ebp),%ebx
  101f7c:	0f b6 39             	movzbl (%ecx),%edi
  101f7f:	89 f8                	mov    %edi,%eax
  101f81:	84 c0                	test   %al,%al
  101f83:	74 30                	je     101fb5 <_ZNK8N_puzzleILi4EEeqERKS0_+0x45>
  101f85:	0f b6 3b             	movzbl (%ebx),%edi
  101f88:	89 f8                	mov    %edi,%eax
  101f8a:	84 c0                	test   %al,%al
  101f8c:	74 27                	je     101fb5 <_ZNK8N_puzzleILi4EEeqERKS0_+0x45>
  101f8e:	8b 41 14             	mov    0x14(%ecx),%eax
  101f91:	39 43 14             	cmp    %eax,0x14(%ebx)
  101f94:	75 26                	jne    101fbc <_ZNK8N_puzzleILi4EEeqERKS0_+0x4c>
  101f96:	8d 71 10             	lea    0x10(%ecx),%esi
  101f99:	31 d2                	xor    %edx,%edx
  101f9b:	8a 44 1a 04          	mov    0x4(%edx,%ebx,1),%al
  101f9f:	38 44 0a 04          	cmp    %al,0x4(%edx,%ecx,1)
  101fa3:	75 17                	jne    101fbc <_ZNK8N_puzzleILi4EEeqERKS0_+0x4c>
  101fa5:	42                   	inc    %edx
  101fa6:	83 fa 04             	cmp    $0x4,%edx
  101fa9:	75 f0                	jne    101f9b <_ZNK8N_puzzleILi4EEeqERKS0_+0x2b>
  101fab:	83 c1 04             	add    $0x4,%ecx
  101fae:	83 c3 04             	add    $0x4,%ebx
  101fb1:	39 f1                	cmp    %esi,%ecx
  101fb3:	75 e4                	jne    101f99 <_ZNK8N_puzzleILi4EEeqERKS0_+0x29>
  101fb5:	89 f8                	mov    %edi,%eax
  101fb7:	5b                   	pop    %ebx
  101fb8:	5e                   	pop    %esi
  101fb9:	5f                   	pop    %edi
  101fba:	5d                   	pop    %ebp
  101fbb:	c3                   	ret    
  101fbc:	31 ff                	xor    %edi,%edi
  101fbe:	89 f8                	mov    %edi,%eax
  101fc0:	5b                   	pop    %ebx
  101fc1:	5e                   	pop    %esi
  101fc2:	5f                   	pop    %edi
  101fc3:	5d                   	pop    %ebp
  101fc4:	c3                   	ret    
  101fc5:	66 90                	xchg   %ax,%ax
  101fc7:	90                   	nop

00101fc8 <_ZN14Updatable_heapI8N_puzzleILi4EEE12percolate_upEi>:
  101fc8:	55                   	push   %ebp
  101fc9:	89 e5                	mov    %esp,%ebp
  101fcb:	57                   	push   %edi
  101fcc:	56                   	push   %esi
  101fcd:	53                   	push   %ebx
  101fce:	83 ec 08             	sub    $0x8,%esp
  101fd1:	8b 7d 08             	mov    0x8(%ebp),%edi
  101fd4:	83 7d 0c 01          	cmpl   $0x1,0xc(%ebp)
  101fd8:	74 7f                	je     102059 <_ZN14Updatable_heapI8N_puzzleILi4EEE12percolate_upEi+0x91>
  101fda:	8b 45 0c             	mov    0xc(%ebp),%eax
  101fdd:	c1 e8 1f             	shr    $0x1f,%eax
  101fe0:	03 45 0c             	add    0xc(%ebp),%eax
  101fe3:	d1 f8                	sar    %eax
  101fe5:	8b 57 08             	mov    0x8(%edi),%edx
  101fe8:	8d 34 82             	lea    (%edx,%eax,4),%esi
  101feb:	8b 1e                	mov    (%esi),%ebx
  101fed:	8b 4d 0c             	mov    0xc(%ebp),%ecx
  101ff0:	c1 e1 02             	shl    $0x2,%ecx
  101ff3:	89 4d f0             	mov    %ecx,-0x10(%ebp)
  101ff6:	01 ca                	add    %ecx,%edx
  101ff8:	89 55 ec             	mov    %edx,-0x14(%ebp)
  101ffb:	8b 0a                	mov    (%edx),%ecx
  101ffd:	8b 51 24             	mov    0x24(%ecx),%edx
  102000:	39 53 24             	cmp    %edx,0x24(%ebx)
  102003:	7e 54                	jle    102059 <_ZN14Updatable_heapI8N_puzzleILi4EEE12percolate_upEi+0x91>
  102005:	8b 55 ec             	mov    -0x14(%ebp),%edx
  102008:	eb 34                	jmp    10203e <_ZN14Updatable_heapI8N_puzzleILi4EEE12percolate_upEi+0x76>
  10200a:	66 90                	xchg   %ax,%ax
  10200c:	89 c2                	mov    %eax,%edx
  10200e:	c1 ea 1f             	shr    $0x1f,%edx
  102011:	01 c2                	add    %eax,%edx
  102013:	d1 fa                	sar    %edx
  102015:	89 d3                	mov    %edx,%ebx
  102017:	8b 57 08             	mov    0x8(%edi),%edx
  10201a:	89 5d ec             	mov    %ebx,-0x14(%ebp)
  10201d:	8d 34 9a             	lea    (%edx,%ebx,4),%esi
  102020:	8b 1e                	mov    (%esi),%ebx
  102022:	8d 0c 85 00 00 00 00 	lea    0x0(,%eax,4),%ecx
  102029:	89 4d f0             	mov    %ecx,-0x10(%ebp)
  10202c:	01 ca                	add    %ecx,%edx
  10202e:	8b 0a                	mov    (%edx),%ecx
  102030:	89 45 0c             	mov    %eax,0xc(%ebp)
  102033:	8b 41 24             	mov    0x24(%ecx),%eax
  102036:	39 43 24             	cmp    %eax,0x24(%ebx)
  102039:	7e 1e                	jle    102059 <_ZN14Updatable_heapI8N_puzzleILi4EEE12percolate_upEi+0x91>
  10203b:	8b 45 ec             	mov    -0x14(%ebp),%eax
  10203e:	89 1a                	mov    %ebx,(%edx)
  102040:	89 0e                	mov    %ecx,(%esi)
  102042:	89 41 1c             	mov    %eax,0x1c(%ecx)
  102045:	8b 4f 08             	mov    0x8(%edi),%ecx
  102048:	8b 75 f0             	mov    -0x10(%ebp),%esi
  10204b:	8b 0c 31             	mov    (%ecx,%esi,1),%ecx
  10204e:	8b 75 0c             	mov    0xc(%ebp),%esi
  102051:	89 71 1c             	mov    %esi,0x1c(%ecx)
  102054:	83 f8 01             	cmp    $0x1,%eax
  102057:	75 b3                	jne    10200c <_ZN14Updatable_heapI8N_puzzleILi4EEE12percolate_upEi+0x44>
  102059:	83 c4 08             	add    $0x8,%esp
  10205c:	5b                   	pop    %ebx
  10205d:	5e                   	pop    %esi
  10205e:	5f                   	pop    %edi
  10205f:	5d                   	pop    %ebp
  102060:	c3                   	ret    
  102061:	66 90                	xchg   %ax,%ax
  102063:	90                   	nop

00102064 <_ZN14Updatable_heapI8N_puzzleILi4EEE4pushERKS1_i>:
  102064:	55                   	push   %ebp
  102065:	89 e5                	mov    %esp,%ebp
  102067:	57                   	push   %edi
  102068:	56                   	push   %esi
  102069:	53                   	push   %ebx
  10206a:	83 ec 1c             	sub    $0x1c,%esp
  10206d:	8b 75 08             	mov    0x8(%ebp),%esi
  102070:	8b 5d 0c             	mov    0xc(%ebp),%ebx
  102073:	8b 45 10             	mov    0x10(%ebp),%eax
  102076:	89 45 e4             	mov    %eax,-0x1c(%ebp)
  102079:	8b 3e                	mov    (%esi),%edi
  10207b:	8b 56 04             	mov    0x4(%esi),%edx
  10207e:	89 d9                	mov    %ebx,%ecx
  102080:	89 f8                	mov    %edi,%eax
  102082:	e8 65 f1 ff ff       	call   1011ec <_ZNK14Updatable_heapI8N_puzzleILi4EEE7pointerERKS1_.isra.8>
  102087:	85 c0                	test   %eax,%eax
  102089:	74 29                	je     1020b4 <_ZN14Updatable_heapI8N_puzzleILi4EEE4pushERKS1_i+0x50>
  10208b:	80 78 28 00          	cmpb   $0x0,0x28(%eax)
  10208f:	75 19                	jne    1020aa <_ZN14Updatable_heapI8N_puzzleILi4EEE4pushERKS1_i+0x46>
  102091:	80 38 00             	cmpb   $0x0,(%eax)
  102094:	0f 84 36 01 00 00    	je     1021d0 <_ZN14Updatable_heapI8N_puzzleILi4EEE4pushERKS1_i+0x16c>
  10209a:	0f be 50 03          	movsbl 0x3(%eax),%edx
  10209e:	03 55 e4             	add    -0x1c(%ebp),%edx
  1020a1:	3b 50 24             	cmp    0x24(%eax),%edx
  1020a4:	0f 8c 0a 01 00 00    	jl     1021b4 <_ZN14Updatable_heapI8N_puzzleILi4EEE4pushERKS1_i+0x150>
  1020aa:	8d 65 f4             	lea    -0xc(%ebp),%esp
  1020ad:	5b                   	pop    %ebx
  1020ae:	5e                   	pop    %esi
  1020af:	5f                   	pop    %edi
  1020b0:	5d                   	pop    %ebp
  1020b1:	c3                   	ret    
  1020b2:	66 90                	xchg   %ax,%ax
  1020b4:	8b 46 0c             	mov    0xc(%esi),%eax
  1020b7:	39 f8                	cmp    %edi,%eax
  1020b9:	0f 8f 1b 01 00 00    	jg     1021da <_ZN14Updatable_heapI8N_puzzleILi4EEE4pushERKS1_i+0x176>
  1020bf:	40                   	inc    %eax
  1020c0:	89 46 0c             	mov    %eax,0xc(%esi)
  1020c3:	83 ec 0c             	sub    $0xc,%esp
  1020c6:	6a 30                	push   $0x30
  1020c8:	e8 5f 02 00 00       	call   10232c <bench_alloc>
  1020cd:	8b 7e 0c             	mov    0xc(%esi),%edi
  1020d0:	89 7d dc             	mov    %edi,-0x24(%ebp)
  1020d3:	8b 4e 04             	mov    0x4(%esi),%ecx
  1020d6:	8a 13                	mov    (%ebx),%dl
  1020d8:	88 55 e3             	mov    %dl,-0x1d(%ebp)
  1020db:	83 c4 10             	add    $0x10,%esp
  1020de:	84 d2                	test   %dl,%dl
  1020e0:	0f 85 c6 00 00 00    	jne    1021ac <_ZN14Updatable_heapI8N_puzzleILi4EEE4pushERKS1_i+0x148>
  1020e6:	31 ff                	xor    %edi,%edi
  1020e8:	8b 16                	mov    (%esi),%edx
  1020ea:	4a                   	dec    %edx
  1020eb:	21 fa                	and    %edi,%edx
  1020ed:	8b 3c 91             	mov    (%ecx,%edx,4),%edi
  1020f0:	8a 4d e3             	mov    -0x1d(%ebp),%cl
  1020f3:	88 08                	mov    %cl,(%eax)
  1020f5:	8a 4b 01             	mov    0x1(%ebx),%cl
  1020f8:	88 48 01             	mov    %cl,0x1(%eax)
  1020fb:	8a 4b 02             	mov    0x2(%ebx),%cl
  1020fe:	88 48 02             	mov    %cl,0x2(%eax)
  102101:	8a 4b 03             	mov    0x3(%ebx),%cl
  102104:	88 48 03             	mov    %cl,0x3(%eax)
  102107:	8b 53 14             	mov    0x14(%ebx),%edx
  10210a:	89 50 14             	mov    %edx,0x14(%eax)
  10210d:	31 d2                	xor    %edx,%edx
  10210f:	88 4d e2             	mov    %cl,-0x1e(%ebp)
  102112:	8a 4c 93 04          	mov    0x4(%ebx,%edx,4),%cl
  102116:	88 4c 90 04          	mov    %cl,0x4(%eax,%edx,4)
  10211a:	8a 4c 93 05          	mov    0x5(%ebx,%edx,4),%cl
  10211e:	88 4c 90 05          	mov    %cl,0x5(%eax,%edx,4)
  102122:	8a 4c 93 06          	mov    0x6(%ebx,%edx,4),%cl
  102126:	88 4c 90 06          	mov    %cl,0x6(%eax,%edx,4)
  10212a:	8a 4c 93 07          	mov    0x7(%ebx,%edx,4),%cl
  10212e:	88 4c 90 07          	mov    %cl,0x7(%eax,%edx,4)
  102132:	42                   	inc    %edx
  102133:	83 fa 04             	cmp    $0x4,%edx
  102136:	75 da                	jne    102112 <_ZN14Updatable_heapI8N_puzzleILi4EEE4pushERKS1_i+0xae>
  102138:	0f be 4d e2          	movsbl -0x1e(%ebp),%ecx
  10213c:	89 78 18             	mov    %edi,0x18(%eax)
  10213f:	8b 7d dc             	mov    -0x24(%ebp),%edi
  102142:	89 78 1c             	mov    %edi,0x1c(%eax)
  102145:	8b 7d e4             	mov    -0x1c(%ebp),%edi
  102148:	89 78 20             	mov    %edi,0x20(%eax)
  10214b:	80 7d e3 00          	cmpb   $0x0,-0x1d(%ebp)
  10214f:	75 05                	jne    102156 <_ZN14Updatable_heapI8N_puzzleILi4EEE4pushERKS1_i+0xf2>
  102151:	b9 40 00 00 00       	mov    $0x40,%ecx
  102156:	03 4d e4             	add    -0x1c(%ebp),%ecx
  102159:	89 48 24             	mov    %ecx,0x24(%eax)
  10215c:	c6 40 28 00          	movb   $0x0,0x28(%eax)
  102160:	c7 40 2c 00 00 00 00 	movl   $0x0,0x2c(%eax)
  102167:	8b 4e 04             	mov    0x4(%esi),%ecx
  10216a:	80 3b 00             	cmpb   $0x0,(%ebx)
  10216d:	74 5d                	je     1021cc <_ZN14Updatable_heapI8N_puzzleILi4EEE4pushERKS1_i+0x168>
  10216f:	8b 5b 14             	mov    0x14(%ebx),%ebx
  102172:	8b 3e                	mov    (%esi),%edi
  102174:	8d 57 ff             	lea    -0x1(%edi),%edx
  102177:	21 da                	and    %ebx,%edx
  102179:	89 04 91             	mov    %eax,(%ecx,%edx,4)
  10217c:	8b 56 0c             	mov    0xc(%esi),%edx
  10217f:	8b 4e 08             	mov    0x8(%esi),%ecx
  102182:	89 04 91             	mov    %eax,(%ecx,%edx,4)
  102185:	83 ec 08             	sub    $0x8,%esp
  102188:	52                   	push   %edx
  102189:	56                   	push   %esi
  10218a:	e8 39 fe ff ff       	call   101fc8 <_ZN14Updatable_heapI8N_puzzleILi4EEE12percolate_upEi>
  10218f:	8b 56 0c             	mov    0xc(%esi),%edx
  102192:	8b 46 10             	mov    0x10(%esi),%eax
  102195:	83 c4 10             	add    $0x10,%esp
  102198:	39 d0                	cmp    %edx,%eax
  10219a:	7d 02                	jge    10219e <_ZN14Updatable_heapI8N_puzzleILi4EEE4pushERKS1_i+0x13a>
  10219c:	89 d0                	mov    %edx,%eax
  10219e:	89 46 10             	mov    %eax,0x10(%esi)
  1021a1:	8d 65 f4             	lea    -0xc(%ebp),%esp
  1021a4:	5b                   	pop    %ebx
  1021a5:	5e                   	pop    %esi
  1021a6:	5f                   	pop    %edi
  1021a7:	5d                   	pop    %ebp
  1021a8:	c3                   	ret    
  1021a9:	8d 76 00             	lea    0x0(%esi),%esi
  1021ac:	8b 7b 14             	mov    0x14(%ebx),%edi
  1021af:	e9 34 ff ff ff       	jmp    1020e8 <_ZN14Updatable_heapI8N_puzzleILi4EEE4pushERKS1_i+0x84>
  1021b4:	89 50 24             	mov    %edx,0x24(%eax)
  1021b7:	8b 40 1c             	mov    0x1c(%eax),%eax
  1021ba:	89 45 0c             	mov    %eax,0xc(%ebp)
  1021bd:	89 75 08             	mov    %esi,0x8(%ebp)
  1021c0:	8d 65 f4             	lea    -0xc(%ebp),%esp
  1021c3:	5b                   	pop    %ebx
  1021c4:	5e                   	pop    %esi
  1021c5:	5f                   	pop    %edi
  1021c6:	5d                   	pop    %ebp
  1021c7:	e9 fc fd ff ff       	jmp    101fc8 <_ZN14Updatable_heapI8N_puzzleILi4EEE12percolate_upEi>
  1021cc:	31 db                	xor    %ebx,%ebx
  1021ce:	eb a2                	jmp    102172 <_ZN14Updatable_heapI8N_puzzleILi4EEE4pushERKS1_i+0x10e>
  1021d0:	ba 40 00 00 00       	mov    $0x40,%edx
  1021d5:	e9 c4 fe ff ff       	jmp    10209e <_ZN14Updatable_heapI8N_puzzleILi4EEE4pushERKS1_i+0x3a>
  1021da:	50                   	push   %eax
  1021db:	68 98 00 00 00       	push   $0x98
  1021e0:	68 44 41 10 00       	push   $0x104144
  1021e5:	68 81 41 10 00       	push   $0x104181
  1021ea:	e8 d9 19 00 00       	call   103bc8 <printf>
  1021ef:	c7 04 24 01 00 00 00 	movl   $0x1,(%esp)
  1021f6:	e8 59 16 00 00       	call   103854 <_halt>
  1021fb:	90                   	nop

001021fc <_ZN14Updatable_heapI8N_puzzleILi4EEE14percolate_downEv>:
  1021fc:	55                   	push   %ebp
  1021fd:	89 e5                	mov    %esp,%ebp
  1021ff:	57                   	push   %edi
  102200:	56                   	push   %esi
  102201:	53                   	push   %ebx
  102202:	83 ec 18             	sub    $0x18,%esp
  102205:	ba 01 00 00 00       	mov    $0x1,%edx
  10220a:	66 90                	xchg   %ax,%ax
  10220c:	8d 3c 12             	lea    (%edx,%edx,1),%edi
  10220f:	8b 45 08             	mov    0x8(%ebp),%eax
  102212:	3b 78 0c             	cmp    0xc(%eax),%edi
  102215:	0f 8d 8a 00 00 00    	jge    1022a5 <_ZN14Updatable_heapI8N_puzzleILi4EEE14percolate_downEv+0xa9>
  10221b:	8b 40 08             	mov    0x8(%eax),%eax
  10221e:	8d 1c 95 00 00 00 00 	lea    0x0(,%edx,4),%ebx
  102225:	8d 34 18             	lea    (%eax,%ebx,1),%esi
  102228:	89 75 e8             	mov    %esi,-0x18(%ebp)
  10222b:	8b 0e                	mov    (%esi),%ecx
  10222d:	89 4d e4             	mov    %ecx,-0x1c(%ebp)
  102230:	8b 49 24             	mov    0x24(%ecx),%ecx
  102233:	89 4d f0             	mov    %ecx,-0x10(%ebp)
  102236:	8d 0c d5 00 00 00 00 	lea    0x0(,%edx,8),%ecx
  10223d:	89 4d e0             	mov    %ecx,-0x20(%ebp)
  102240:	89 d9                	mov    %ebx,%ecx
  102242:	01 f1                	add    %esi,%ecx
  102244:	89 4d dc             	mov    %ecx,-0x24(%ebp)
  102247:	8b 19                	mov    (%ecx),%ebx
  102249:	8b 4b 24             	mov    0x24(%ebx),%ecx
  10224c:	8d 34 d5 00 00 00 00 	lea    0x0(,%edx,8),%esi
  102253:	8b 74 30 04          	mov    0x4(%eax,%esi,1),%esi
  102257:	8b 76 24             	mov    0x24(%esi),%esi
  10225a:	89 75 ec             	mov    %esi,-0x14(%ebp)
  10225d:	8b 75 f0             	mov    -0x10(%ebp),%esi
  102260:	39 ce                	cmp    %ecx,%esi
  102262:	7d 50                	jge    1022b4 <_ZN14Updatable_heapI8N_puzzleILi4EEE14percolate_downEv+0xb8>
  102264:	89 f3                	mov    %esi,%ebx
  102266:	8b 75 ec             	mov    -0x14(%ebp),%esi
  102269:	39 f3                	cmp    %esi,%ebx
  10226b:	7c 3f                	jl     1022ac <_ZN14Updatable_heapI8N_puzzleILi4EEE14percolate_downEv+0xb0>
  10226d:	8d 5f 01             	lea    0x1(%edi),%ebx
  102270:	8d 34 9d 00 00 00 00 	lea    0x0(,%ebx,4),%esi
  102277:	01 f0                	add    %esi,%eax
  102279:	8b 38                	mov    (%eax),%edi
  10227b:	8b 4d e4             	mov    -0x1c(%ebp),%ecx
  10227e:	89 08                	mov    %ecx,(%eax)
  102280:	8b 45 e8             	mov    -0x18(%ebp),%eax
  102283:	89 38                	mov    %edi,(%eax)
  102285:	89 57 1c             	mov    %edx,0x1c(%edi)
  102288:	8b 45 08             	mov    0x8(%ebp),%eax
  10228b:	8b 40 08             	mov    0x8(%eax),%eax
  10228e:	8b 04 30             	mov    (%eax,%esi,1),%eax
  102291:	89 58 1c             	mov    %ebx,0x1c(%eax)
  102294:	89 da                	mov    %ebx,%edx
  102296:	8d 3c 12             	lea    (%edx,%edx,1),%edi
  102299:	8b 45 08             	mov    0x8(%ebp),%eax
  10229c:	3b 78 0c             	cmp    0xc(%eax),%edi
  10229f:	0f 8c 76 ff ff ff    	jl     10221b <_ZN14Updatable_heapI8N_puzzleILi4EEE14percolate_downEv+0x1f>
  1022a5:	8b 4d 08             	mov    0x8(%ebp),%ecx
  1022a8:	89 fb                	mov    %edi,%ebx
  1022aa:	74 38                	je     1022e4 <_ZN14Updatable_heapI8N_puzzleILi4EEE14percolate_downEv+0xe8>
  1022ac:	83 c4 18             	add    $0x18,%esp
  1022af:	5b                   	pop    %ebx
  1022b0:	5e                   	pop    %esi
  1022b1:	5f                   	pop    %edi
  1022b2:	5d                   	pop    %ebp
  1022b3:	c3                   	ret    
  1022b4:	89 ce                	mov    %ecx,%esi
  1022b6:	8b 4d ec             	mov    -0x14(%ebp),%ecx
  1022b9:	39 ce                	cmp    %ecx,%esi
  1022bb:	7d b0                	jge    10226d <_ZN14Updatable_heapI8N_puzzleILi4EEE14percolate_downEv+0x71>
  1022bd:	8b 45 dc             	mov    -0x24(%ebp),%eax
  1022c0:	8b 75 e4             	mov    -0x1c(%ebp),%esi
  1022c3:	89 30                	mov    %esi,(%eax)
  1022c5:	8b 45 e8             	mov    -0x18(%ebp),%eax
  1022c8:	89 18                	mov    %ebx,(%eax)
  1022ca:	89 53 1c             	mov    %edx,0x1c(%ebx)
  1022cd:	8b 45 08             	mov    0x8(%ebp),%eax
  1022d0:	8b 40 08             	mov    0x8(%eax),%eax
  1022d3:	8b 55 e0             	mov    -0x20(%ebp),%edx
  1022d6:	8b 04 10             	mov    (%eax,%edx,1),%eax
  1022d9:	89 78 1c             	mov    %edi,0x1c(%eax)
  1022dc:	89 fa                	mov    %edi,%edx
  1022de:	e9 29 ff ff ff       	jmp    10220c <_ZN14Updatable_heapI8N_puzzleILi4EEE14percolate_downEv+0x10>
  1022e3:	90                   	nop
  1022e4:	8b 41 08             	mov    0x8(%ecx),%eax
  1022e7:	8d 3c 90             	lea    (%eax,%edx,4),%edi
  1022ea:	89 7d ec             	mov    %edi,-0x14(%ebp)
  1022ed:	8b 3f                	mov    (%edi),%edi
  1022ef:	89 45 f0             	mov    %eax,-0x10(%ebp)
  1022f2:	8b 34 d0             	mov    (%eax,%edx,8),%esi
  1022f5:	8b 47 24             	mov    0x24(%edi),%eax
  1022f8:	39 46 24             	cmp    %eax,0x24(%esi)
  1022fb:	7d af                	jge    1022ac <_ZN14Updatable_heapI8N_puzzleILi4EEE14percolate_downEv+0xb0>
  1022fd:	8d 34 9d 00 00 00 00 	lea    0x0(,%ebx,4),%esi
  102304:	89 75 e8             	mov    %esi,-0x18(%ebp)
  102307:	8b 45 f0             	mov    -0x10(%ebp),%eax
  10230a:	01 f0                	add    %esi,%eax
  10230c:	8b 30                	mov    (%eax),%esi
  10230e:	89 38                	mov    %edi,(%eax)
  102310:	8b 45 ec             	mov    -0x14(%ebp),%eax
  102313:	89 30                	mov    %esi,(%eax)
  102315:	89 56 1c             	mov    %edx,0x1c(%esi)
  102318:	8b 41 08             	mov    0x8(%ecx),%eax
  10231b:	8b 75 e8             	mov    -0x18(%ebp),%esi
  10231e:	8b 04 30             	mov    (%eax,%esi,1),%eax
  102321:	89 58 1c             	mov    %ebx,0x1c(%eax)
  102324:	83 c4 18             	add    $0x18,%esp
  102327:	5b                   	pop    %ebx
  102328:	5e                   	pop    %esi
  102329:	5f                   	pop    %edi
  10232a:	5d                   	pop    %ebp
  10232b:	c3                   	ret    

0010232c <bench_alloc>:
  10232c:	55                   	push   %ebp
  10232d:	89 e5                	mov    %esp,%ebp
  10232f:	53                   	push   %ebx
  102330:	51                   	push   %ecx
  102331:	8b 45 08             	mov    0x8(%ebp),%eax
  102334:	8d 48 07             	lea    0x7(%eax),%ecx
  102337:	a1 58 49 10 00       	mov    0x104958,%eax
  10233c:	83 e1 f8             	and    $0xfffffff8,%ecx
  10233f:	01 c1                	add    %eax,%ecx
  102341:	89 0d 58 49 10 00    	mov    %ecx,0x104958
  102347:	8b 1d e8 48 10 00    	mov    0x1048e8,%ebx
  10234d:	39 cb                	cmp    %ecx,%ebx
  10234f:	77 35                	ja     102386 <bench_alloc+0x5a>
  102351:	39 0d ec 48 10 00    	cmp    %ecx,0x1048ec
  102357:	76 2d                	jbe    102386 <bench_alloc+0x5a>
  102359:	89 c2                	mov    %eax,%edx
  10235b:	39 c1                	cmp    %eax,%ecx
  10235d:	74 15                	je     102374 <bench_alloc+0x48>
  10235f:	90                   	nop
  102360:	c7 02 00 00 00 00    	movl   $0x0,(%edx)
  102366:	c7 42 04 00 00 00 00 	movl   $0x0,0x4(%edx)
  10236d:	83 c2 08             	add    $0x8,%edx
  102370:	39 d1                	cmp    %edx,%ecx
  102372:	75 ec                	jne    102360 <bench_alloc+0x34>
  102374:	29 d9                	sub    %ebx,%ecx
  102376:	8b 15 88 49 10 00    	mov    0x104988,%edx
  10237c:	3b 4a 04             	cmp    0x4(%edx),%ecx
  10237f:	77 26                	ja     1023a7 <bench_alloc+0x7b>
  102381:	8b 5d fc             	mov    -0x4(%ebp),%ebx
  102384:	c9                   	leave  
  102385:	c3                   	ret    
  102386:	52                   	push   %edx
  102387:	68 8f 00 00 00       	push   $0x8f
  10238c:	68 5c 44 10 00       	push   $0x10445c
  102391:	68 81 41 10 00       	push   $0x104181
  102396:	e8 2d 18 00 00       	call   103bc8 <printf>
  10239b:	c7 04 24 01 00 00 00 	movl   $0x1,(%esp)
  1023a2:	e8 ad 14 00 00       	call   103854 <_halt>
  1023a7:	50                   	push   %eax
  1023a8:	68 93 00 00 00       	push   $0x93
  1023ad:	eb dd                	jmp    10238c <bench_alloc+0x60>
  1023af:	90                   	nop

001023b0 <bench_free>:
  1023b0:	c3                   	ret    
  1023b1:	8d 76 00             	lea    0x0(%esi),%esi

001023b4 <bench_srand>:
  1023b4:	55                   	push   %ebp
  1023b5:	89 e5                	mov    %esp,%ebp
  1023b7:	8b 45 08             	mov    0x8(%ebp),%eax
  1023ba:	25 ff 7f 00 00       	and    $0x7fff,%eax
  1023bf:	a3 20 46 10 00       	mov    %eax,0x104620
  1023c4:	5d                   	pop    %ebp
  1023c5:	c3                   	ret    
  1023c6:	66 90                	xchg   %ax,%ax

001023c8 <bench_rand>:
  1023c8:	8b 15 20 46 10 00    	mov    0x104620,%edx
  1023ce:	8d 04 12             	lea    (%edx,%edx,1),%eax
  1023d1:	01 d0                	add    %edx,%eax
  1023d3:	8d 04 82             	lea    (%edx,%eax,4),%eax
  1023d6:	c1 e0 04             	shl    $0x4,%eax
  1023d9:	01 d0                	add    %edx,%eax
  1023db:	c1 e0 08             	shl    $0x8,%eax
  1023de:	29 d0                	sub    %edx,%eax
  1023e0:	8d 84 82 c3 9e 26 00 	lea    0x269ec3(%edx,%eax,4),%eax
  1023e7:	a3 20 46 10 00       	mov    %eax,0x104620
  1023ec:	c1 e8 10             	shr    $0x10,%eax
  1023ef:	25 ff 7f 00 00       	and    $0x7fff,%eax
  1023f4:	c3                   	ret    
  1023f5:	8d 76 00             	lea    0x0(%esi),%esi

001023f8 <checksum>:
  1023f8:	55                   	push   %ebp
  1023f9:	89 e5                	mov    %esp,%ebp
  1023fb:	57                   	push   %edi
  1023fc:	56                   	push   %esi
  1023fd:	53                   	push   %ebx
  1023fe:	8b 5d 08             	mov    0x8(%ebp),%ebx
  102401:	8b 7d 0c             	mov    0xc(%ebp),%edi
  102404:	b8 c5 9d 1c 81       	mov    $0x811c9dc5,%eax
  102409:	8d 73 04             	lea    0x4(%ebx),%esi
  10240c:	39 fe                	cmp    %edi,%esi
  10240e:	73 2c                	jae    10243c <checksum+0x44>
  102410:	31 c9                	xor    %ecx,%ecx
  102412:	0f b6 14 0b          	movzbl (%ebx,%ecx,1),%edx
  102416:	31 d0                	xor    %edx,%eax
  102418:	89 c2                	mov    %eax,%edx
  10241a:	c1 e2 10             	shl    $0x10,%edx
  10241d:	01 c2                	add    %eax,%edx
  10241f:	01 d2                	add    %edx,%edx
  102421:	01 c2                	add    %eax,%edx
  102423:	8d 14 d0             	lea    (%eax,%edx,8),%edx
  102426:	8d 14 d0             	lea    (%eax,%edx,8),%edx
  102429:	01 d2                	add    %edx,%edx
  10242b:	01 d0                	add    %edx,%eax
  10242d:	41                   	inc    %ecx
  10242e:	83 f9 04             	cmp    $0x4,%ecx
  102431:	75 df                	jne    102412 <checksum+0x1a>
  102433:	89 f3                	mov    %esi,%ebx
  102435:	8d 73 04             	lea    0x4(%ebx),%esi
  102438:	39 fe                	cmp    %edi,%esi
  10243a:	72 d4                	jb     102410 <checksum+0x18>
  10243c:	89 c2                	mov    %eax,%edx
  10243e:	c1 e2 0d             	shl    $0xd,%edx
  102441:	01 c2                	add    %eax,%edx
  102443:	89 d0                	mov    %edx,%eax
  102445:	c1 f8 07             	sar    $0x7,%eax
  102448:	31 d0                	xor    %edx,%eax
  10244a:	8d 14 c0             	lea    (%eax,%eax,8),%edx
  10244d:	89 d0                	mov    %edx,%eax
  10244f:	c1 f8 11             	sar    $0x11,%eax
  102452:	31 d0                	xor    %edx,%eax
  102454:	89 c2                	mov    %eax,%edx
  102456:	c1 e2 05             	shl    $0x5,%edx
  102459:	01 d0                	add    %edx,%eax
  10245b:	5b                   	pop    %ebx
  10245c:	5e                   	pop    %esi
  10245d:	5f                   	pop    %edi
  10245e:	5d                   	pop    %ebp
  10245f:	c3                   	ret    

00102460 <main>:
  102460:	8d 4c 24 04          	lea    0x4(%esp),%ecx
  102464:	83 e4 f0             	and    $0xfffffff0,%esp
  102467:	ff 71 fc             	pushl  -0x4(%ecx)
  10246a:	55                   	push   %ebp
  10246b:	89 e5                	mov    %esp,%ebp
  10246d:	57                   	push   %edi
  10246e:	56                   	push   %esi
  10246f:	53                   	push   %ebx
  102470:	51                   	push   %ecx
  102471:	83 ec 28             	sub    $0x28,%esp
  102474:	8b 19                	mov    (%ecx),%ebx
  102476:	85 db                	test   %ebx,%ebx
  102478:	0f 84 43 02 00 00    	je     1026c1 <main+0x261>
  10247e:	83 ec 08             	sub    $0x8,%esp
  102481:	68 4b 42 10 00       	push   $0x10424b
  102486:	53                   	push   %ebx
  102487:	e8 84 17 00 00       	call   103c10 <strcmp>
  10248c:	83 c4 10             	add    $0x10,%esp
  10248f:	85 c0                	test   %eax,%eax
  102491:	0f 84 2a 02 00 00    	je     1026c1 <main+0x261>
  102497:	83 ec 08             	sub    $0x8,%esp
  10249a:	68 e9 41 10 00       	push   $0x1041e9
  10249f:	53                   	push   %ebx
  1024a0:	e8 6b 17 00 00       	call   103c10 <strcmp>
  1024a5:	89 45 dc             	mov    %eax,-0x24(%ebp)
  1024a8:	83 c4 10             	add    $0x10,%esp
  1024ab:	85 c0                	test   %eax,%eax
  1024ad:	74 1f                	je     1024ce <main+0x6e>
  1024af:	50                   	push   %eax
  1024b0:	50                   	push   %eax
  1024b1:	68 ee 41 10 00       	push   $0x1041ee
  1024b6:	53                   	push   %ebx
  1024b7:	e8 54 17 00 00       	call   103c10 <strcmp>
  1024bc:	83 c4 10             	add    $0x10,%esp
  1024bf:	c7 45 dc 01 00 00 00 	movl   $0x1,-0x24(%ebp)
  1024c6:	85 c0                	test   %eax,%eax
  1024c8:	0f 85 84 02 00 00    	jne    102752 <main+0x2f2>
  1024ce:	e8 a5 13 00 00       	call   103878 <_ioe_init>
  1024d3:	83 ec 08             	sub    $0x8,%esp
  1024d6:	53                   	push   %ebx
  1024d7:	68 cc 43 10 00       	push   $0x1043cc
  1024dc:	e8 e7 16 00 00       	call   103bc8 <printf>
  1024e1:	e8 b6 17 00 00       	call   103c9c <uptime>
  1024e6:	89 45 cc             	mov    %eax,-0x34(%ebp)
  1024e9:	8b 45 dc             	mov    -0x24(%ebp),%eax
  1024ec:	40                   	inc    %eax
  1024ed:	c1 e0 04             	shl    $0x4,%eax
  1024f0:	be 40 46 10 00       	mov    $0x104640,%esi
  1024f5:	8d 48 f0             	lea    -0x10(%eax),%ecx
  1024f8:	89 4d e4             	mov    %ecx,-0x1c(%ebp)
  1024fb:	83 c4 10             	add    $0x10,%esp
  1024fe:	c7 45 d8 01 00 00 00 	movl   $0x1,-0x28(%ebp)
  102505:	c7 45 d4 00 00 00 00 	movl   $0x0,-0x2c(%ebp)
  10250c:	83 c0 04             	add    $0x4,%eax
  10250f:	89 45 e0             	mov    %eax,-0x20(%ebp)
  102512:	89 f7                	mov    %esi,%edi
  102514:	eb 32                	jmp    102548 <main+0xe8>
  102516:	66 90                	xchg   %ax,%ax
  102518:	50                   	push   %eax
  102519:	53                   	push   %ebx
  10251a:	52                   	push   %edx
  10251b:	68 f4 41 10 00       	push   $0x1041f4
  102520:	e8 a3 16 00 00       	call   103bc8 <printf>
  102525:	58                   	pop    %eax
  102526:	5a                   	pop    %edx
  102527:	68 fe 41 10 00       	push   $0x1041fe
  10252c:	68 14 42 10 00       	push   $0x104214
  102531:	e8 92 16 00 00       	call   103bc8 <printf>
  102536:	83 c4 10             	add    $0x10,%esp
  102539:	83 c7 44             	add    $0x44,%edi
  10253c:	81 ff e8 48 10 00    	cmp    $0x1048e8,%edi
  102542:	0f 84 08 01 00 00    	je     102650 <main+0x1f0>
  102548:	89 3d 84 49 10 00    	mov    %edi,0x104984
  10254e:	8b 45 e0             	mov    -0x20(%ebp),%eax
  102551:	01 f8                	add    %edi,%eax
  102553:	a3 88 49 10 00       	mov    %eax,0x104988
  102558:	8b 5f 10             	mov    0x10(%edi),%ebx
  10255b:	8b 57 0c             	mov    0xc(%edi),%edx
  10255e:	a1 ec 48 10 00       	mov    0x1048ec,%eax
  102563:	2b 05 e8 48 10 00    	sub    0x1048e8,%eax
  102569:	8b 4d e4             	mov    -0x1c(%ebp),%ecx
  10256c:	3b 44 0f 18          	cmp    0x18(%edi,%ecx,1),%eax
  102570:	72 a6                	jb     102518 <main+0xb8>
  102572:	51                   	push   %ecx
  102573:	53                   	push   %ebx
  102574:	52                   	push   %edx
  102575:	68 f4 41 10 00       	push   $0x1041f4
  10257a:	e8 49 16 00 00       	call   103bc8 <printf>
  10257f:	a1 e8 48 10 00       	mov    0x1048e8,%eax
  102584:	83 c0 07             	add    $0x7,%eax
  102587:	83 e0 f8             	and    $0xfffffff8,%eax
  10258a:	a3 58 49 10 00       	mov    %eax,0x104958
  10258f:	a1 84 49 10 00       	mov    0x104984,%eax
  102594:	ff 10                	call   *(%eax)
  102596:	e8 01 17 00 00       	call   103c9c <uptime>
  10259b:	89 c6                	mov    %eax,%esi
  10259d:	a1 84 49 10 00       	mov    0x104984,%eax
  1025a2:	ff 50 04             	call   *0x4(%eax)
  1025a5:	e8 f2 16 00 00       	call   103c9c <uptime>
  1025aa:	89 c3                	mov    %eax,%ebx
  1025ac:	a1 84 49 10 00       	mov    0x104984,%eax
  1025b1:	ff 50 08             	call   *0x8(%eax)
  1025b4:	83 c4 10             	add    $0x10,%esp
  1025b7:	85 c0                	test   %eax,%eax
  1025b9:	0f 84 1d 01 00 00    	je     1026dc <main+0x27c>
  1025bf:	89 45 d0             	mov    %eax,-0x30(%ebp)
  1025c2:	83 ec 0c             	sub    $0xc,%esp
  1025c5:	68 20 42 10 00       	push   $0x104220
  1025ca:	e8 f9 15 00 00       	call   103bc8 <printf>
  1025cf:	83 c4 10             	add    $0x10,%esp
  1025d2:	83 65 d0 01          	andl   $0x1,-0x30(%ebp)
  1025d6:	0f 84 10 01 00 00    	je     1026ec <main+0x28c>
  1025dc:	83 ec 0c             	sub    $0xc,%esp
  1025df:	68 22 42 10 00       	push   $0x104222
  1025e4:	e8 df 15 00 00       	call   103bc8 <printf>
  1025e9:	83 c4 10             	add    $0x10,%esp
  1025ec:	8b 55 d0             	mov    -0x30(%ebp),%edx
  1025ef:	21 55 d8             	and    %edx,-0x28(%ebp)
  1025f2:	29 f3                	sub    %esi,%ebx
  1025f4:	0f 84 0f 01 00 00    	je     102709 <main+0x2a9>
  1025fa:	a1 88 49 10 00       	mov    0x104988,%eax
  1025ff:	8b 40 08             	mov    0x8(%eax),%eax
  102602:	8d 04 80             	lea    (%eax,%eax,4),%eax
  102605:	8d 04 80             	lea    (%eax,%eax,4),%eax
  102608:	c1 e0 02             	shl    $0x2,%eax
  10260b:	31 d2                	xor    %edx,%edx
  10260d:	f7 f3                	div    %ebx
  10260f:	89 c6                	mov    %eax,%esi
  102611:	01 45 d4             	add    %eax,-0x2c(%ebp)
  102614:	83 ec 0c             	sub    $0xc,%esp
  102617:	68 4a 42 10 00       	push   $0x10424a
  10261c:	e8 a7 15 00 00       	call   103bc8 <printf>
  102621:	83 c4 10             	add    $0x10,%esp
  102624:	8b 45 dc             	mov    -0x24(%ebp),%eax
  102627:	85 c0                	test   %eax,%eax
  102629:	0f 84 0a ff ff ff    	je     102539 <main+0xd9>
  10262f:	51                   	push   %ecx
  102630:	56                   	push   %esi
  102631:	53                   	push   %ebx
  102632:	68 34 42 10 00       	push   $0x104234
  102637:	e8 8c 15 00 00       	call   103bc8 <printf>
  10263c:	83 c4 10             	add    $0x10,%esp
  10263f:	83 c7 44             	add    $0x44,%edi
  102642:	81 ff e8 48 10 00    	cmp    $0x1048e8,%edi
  102648:	0f 85 fa fe ff ff    	jne    102548 <main+0xe8>
  10264e:	66 90                	xchg   %ax,%ax
  102650:	e8 47 16 00 00       	call   103c9c <uptime>
  102655:	89 c3                	mov    %eax,%ebx
  102657:	83 ec 0c             	sub    $0xc,%esp
  10265a:	68 00 44 10 00       	push   $0x104400
  10265f:	e8 64 15 00 00       	call   103bc8 <printf>
  102664:	83 c4 10             	add    $0x10,%esp
  102667:	8b 55 d8             	mov    -0x28(%ebp),%edx
  10266a:	85 d2                	test   %edx,%edx
  10266c:	0f 85 9e 00 00 00    	jne    102710 <main+0x2b0>
  102672:	b8 e4 41 10 00       	mov    $0x1041e4,%eax
  102677:	83 ec 08             	sub    $0x8,%esp
  10267a:	50                   	push   %eax
  10267b:	68 4c 42 10 00       	push   $0x10424c
  102680:	e8 43 15 00 00       	call   103bc8 <printf>
  102685:	83 c4 10             	add    $0x10,%esp
  102688:	83 7d dc 02          	cmpl   $0x2,-0x24(%ebp)
  10268c:	0f 84 88 00 00 00    	je     10271a <main+0x2ba>
  102692:	83 ec 0c             	sub    $0xc,%esp
  102695:	68 4a 42 10 00       	push   $0x10424a
  10269a:	e8 29 15 00 00       	call   103bc8 <printf>
  10269f:	83 c4 10             	add    $0x10,%esp
  1026a2:	83 ec 08             	sub    $0x8,%esp
  1026a5:	2b 5d cc             	sub    -0x34(%ebp),%ebx
  1026a8:	53                   	push   %ebx
  1026a9:	68 7f 42 10 00       	push   $0x10427f
  1026ae:	e8 15 15 00 00       	call   103bc8 <printf>
  1026b3:	31 c0                	xor    %eax,%eax
  1026b5:	8d 65 f0             	lea    -0x10(%ebp),%esp
  1026b8:	59                   	pop    %ecx
  1026b9:	5b                   	pop    %ebx
  1026ba:	5e                   	pop    %esi
  1026bb:	5f                   	pop    %edi
  1026bc:	5d                   	pop    %ebp
  1026bd:	8d 61 fc             	lea    -0x4(%ecx),%esp
  1026c0:	c3                   	ret    
  1026c1:	83 ec 0c             	sub    $0xc,%esp
  1026c4:	68 6c 43 10 00       	push   $0x10436c
  1026c9:	e8 fa 14 00 00       	call   103bc8 <printf>
  1026ce:	83 c4 10             	add    $0x10,%esp
  1026d1:	bb db 41 10 00       	mov    $0x1041db,%ebx
  1026d6:	e9 bc fd ff ff       	jmp    102497 <main+0x37>
  1026db:	90                   	nop
  1026dc:	83 ec 0c             	sub    $0xc,%esp
  1026df:	68 92 42 10 00       	push   $0x104292
  1026e4:	e8 df 14 00 00       	call   103bc8 <printf>
  1026e9:	83 c4 10             	add    $0x10,%esp
  1026ec:	83 ec 0c             	sub    $0xc,%esp
  1026ef:	68 2b 42 10 00       	push   $0x10422b
  1026f4:	e8 cf 14 00 00       	call   103bc8 <printf>
  1026f9:	83 c4 10             	add    $0x10,%esp
  1026fc:	31 d2                	xor    %edx,%edx
  1026fe:	21 55 d8             	and    %edx,-0x28(%ebp)
  102701:	29 f3                	sub    %esi,%ebx
  102703:	0f 85 f1 fe ff ff    	jne    1025fa <main+0x19a>
  102709:	31 f6                	xor    %esi,%esi
  10270b:	e9 04 ff ff ff       	jmp    102614 <main+0x1b4>
  102710:	b8 df 41 10 00       	mov    $0x1041df,%eax
  102715:	e9 5d ff ff ff       	jmp    102677 <main+0x217>
  10271a:	50                   	push   %eax
  10271b:	50                   	push   %eax
  10271c:	b9 0a 00 00 00       	mov    $0xa,%ecx
  102721:	8b 45 d4             	mov    -0x2c(%ebp),%eax
  102724:	31 d2                	xor    %edx,%edx
  102726:	f7 f1                	div    %ecx
  102728:	50                   	push   %eax
  102729:	68 5a 42 10 00       	push   $0x10425a
  10272e:	e8 95 14 00 00       	call   103bc8 <printf>
  102733:	83 c4 0c             	add    $0xc,%esp
  102736:	68 6c 42 10 00       	push   $0x10426c
  10273b:	68 a0 86 01 00       	push   $0x186a0
  102740:	68 34 44 10 00       	push   $0x104434
  102745:	e8 7e 14 00 00       	call   103bc8 <printf>
  10274a:	83 c4 10             	add    $0x10,%esp
  10274d:	e9 50 ff ff ff       	jmp    1026a2 <main+0x242>
  102752:	57                   	push   %edi
  102753:	57                   	push   %edi
  102754:	68 db 41 10 00       	push   $0x1041db
  102759:	53                   	push   %ebx
  10275a:	e8 b1 14 00 00       	call   103c10 <strcmp>
  10275f:	83 c4 10             	add    $0x10,%esp
  102762:	c7 45 dc 02 00 00 00 	movl   $0x2,-0x24(%ebp)
  102769:	85 c0                	test   %eax,%eax
  10276b:	0f 84 5d fd ff ff    	je     1024ce <main+0x6e>
  102771:	56                   	push   %esi
  102772:	56                   	push   %esi
  102773:	53                   	push   %ebx
  102774:	68 94 43 10 00       	push   $0x104394
  102779:	e8 4a 14 00 00       	call   103bc8 <printf>
  10277e:	c7 04 24 01 00 00 00 	movl   $0x1,(%esp)
  102785:	e8 ca 10 00 00       	call   103854 <_halt>
  10278a:	66 90                	xchg   %ax,%ax

0010278c <myqsort>:
  10278c:	55                   	push   %ebp
  10278d:	89 e5                	mov    %esp,%ebp
  10278f:	57                   	push   %edi
  102790:	56                   	push   %esi
  102791:	53                   	push   %ebx
  102792:	83 ec 2c             	sub    $0x2c,%esp
  102795:	89 45 e0             	mov    %eax,-0x20(%ebp)
  102798:	89 55 d8             	mov    %edx,-0x28(%ebp)
  10279b:	89 4d d0             	mov    %ecx,-0x30(%ebp)
  10279e:	8b 45 d0             	mov    -0x30(%ebp),%eax
  1027a1:	8b 55 d8             	mov    -0x28(%ebp),%edx
  1027a4:	39 d0                	cmp    %edx,%eax
  1027a6:	7e 7b                	jle    102823 <myqsort+0x97>
  1027a8:	8b 5d e0             	mov    -0x20(%ebp),%ebx
  1027ab:	8d 04 83             	lea    (%ebx,%eax,4),%eax
  1027ae:	89 45 dc             	mov    %eax,-0x24(%ebp)
  1027b1:	8b 5d d8             	mov    -0x28(%ebp),%ebx
  1027b4:	8d 04 9d 00 00 00 00 	lea    0x0(,%ebx,4),%eax
  1027bb:	8b 75 e0             	mov    -0x20(%ebp),%esi
  1027be:	8d 0c 06             	lea    (%esi,%eax,1),%ecx
  1027c1:	89 4d d4             	mov    %ecx,-0x2c(%ebp)
  1027c4:	8b 09                	mov    (%ecx),%ecx
  1027c6:	89 4d e4             	mov    %ecx,-0x1c(%ebp)
  1027c9:	8d 53 01             	lea    0x1(%ebx),%edx
  1027cc:	39 55 d0             	cmp    %edx,-0x30(%ebp)
  1027cf:	7e 5b                	jle    10282c <myqsort+0xa0>
  1027d1:	8d 44 06 04          	lea    0x4(%esi,%eax,1),%eax
  1027d5:	89 d9                	mov    %ebx,%ecx
  1027d7:	90                   	nop
  1027d8:	8b 10                	mov    (%eax),%edx
  1027da:	8d 59 01             	lea    0x1(%ecx),%ebx
  1027dd:	3b 55 e4             	cmp    -0x1c(%ebp),%edx
  1027e0:	7d 13                	jge    1027f5 <myqsort+0x69>
  1027e2:	8b 7d e0             	mov    -0x20(%ebp),%edi
  1027e5:	8d 34 9f             	lea    (%edi,%ebx,4),%esi
  1027e8:	8b 3e                	mov    (%esi),%edi
  1027ea:	89 16                	mov    %edx,(%esi)
  1027ec:	89 38                	mov    %edi,(%eax)
  1027ee:	8d 51 02             	lea    0x2(%ecx),%edx
  1027f1:	89 d9                	mov    %ebx,%ecx
  1027f3:	89 d3                	mov    %edx,%ebx
  1027f5:	83 c0 04             	add    $0x4,%eax
  1027f8:	39 45 dc             	cmp    %eax,-0x24(%ebp)
  1027fb:	75 db                	jne    1027d8 <myqsort+0x4c>
  1027fd:	8b 7d e0             	mov    -0x20(%ebp),%edi
  102800:	8d 04 8f             	lea    (%edi,%ecx,4),%eax
  102803:	8b 10                	mov    (%eax),%edx
  102805:	8b 75 d4             	mov    -0x2c(%ebp),%esi
  102808:	8b 36                	mov    (%esi),%esi
  10280a:	89 30                	mov    %esi,(%eax)
  10280c:	8b 75 d4             	mov    -0x2c(%ebp),%esi
  10280f:	89 16                	mov    %edx,(%esi)
  102811:	8b 55 d8             	mov    -0x28(%ebp),%edx
  102814:	89 f8                	mov    %edi,%eax
  102816:	e8 71 ff ff ff       	call   10278c <myqsort>
  10281b:	89 5d d8             	mov    %ebx,-0x28(%ebp)
  10281e:	39 5d d0             	cmp    %ebx,-0x30(%ebp)
  102821:	7f 8e                	jg     1027b1 <myqsort+0x25>
  102823:	83 c4 2c             	add    $0x2c,%esp
  102826:	5b                   	pop    %ebx
  102827:	5e                   	pop    %esi
  102828:	5f                   	pop    %edi
  102829:	5d                   	pop    %ebp
  10282a:	c3                   	ret    
  10282b:	90                   	nop
  10282c:	8b 45 d8             	mov    -0x28(%ebp),%eax
  10282f:	89 45 d0             	mov    %eax,-0x30(%ebp)
  102832:	e9 67 ff ff ff       	jmp    10279e <myqsort+0x12>
  102837:	90                   	nop

00102838 <bench_qsort_prepare>:
  102838:	55                   	push   %ebp
  102839:	89 e5                	mov    %esp,%ebp
  10283b:	56                   	push   %esi
  10283c:	53                   	push   %ebx
  10283d:	83 ec 0c             	sub    $0xc,%esp
  102840:	6a 01                	push   $0x1
  102842:	e8 6d fb ff ff       	call   1023b4 <bench_srand>
  102847:	a1 88 49 10 00       	mov    0x104988,%eax
  10284c:	8b 00                	mov    (%eax),%eax
  10284e:	a3 60 49 10 00       	mov    %eax,0x104960
  102853:	c1 e0 02             	shl    $0x2,%eax
  102856:	89 04 24             	mov    %eax,(%esp)
  102859:	e8 ce fa ff ff       	call   10232c <bench_alloc>
  10285e:	a3 5c 49 10 00       	mov    %eax,0x10495c
  102863:	83 c4 10             	add    $0x10,%esp
  102866:	a1 60 49 10 00       	mov    0x104960,%eax
  10286b:	85 c0                	test   %eax,%eax
  10286d:	7e 27                	jle    102896 <bench_qsort_prepare+0x5e>
  10286f:	31 f6                	xor    %esi,%esi
  102871:	8d 76 00             	lea    0x0(%esi),%esi
  102874:	e8 4f fb ff ff       	call   1023c8 <bench_rand>
  102879:	89 c3                	mov    %eax,%ebx
  10287b:	e8 48 fb ff ff       	call   1023c8 <bench_rand>
  102880:	c1 e3 10             	shl    $0x10,%ebx
  102883:	09 c3                	or     %eax,%ebx
  102885:	a1 5c 49 10 00       	mov    0x10495c,%eax
  10288a:	89 1c b0             	mov    %ebx,(%eax,%esi,4)
  10288d:	46                   	inc    %esi
  10288e:	39 35 60 49 10 00    	cmp    %esi,0x104960
  102894:	7f de                	jg     102874 <bench_qsort_prepare+0x3c>
  102896:	8d 65 f8             	lea    -0x8(%ebp),%esp
  102899:	5b                   	pop    %ebx
  10289a:	5e                   	pop    %esi
  10289b:	5d                   	pop    %ebp
  10289c:	c3                   	ret    
  10289d:	8d 76 00             	lea    0x0(%esi),%esi

001028a0 <bench_qsort_run>:
  1028a0:	8b 0d 60 49 10 00    	mov    0x104960,%ecx
  1028a6:	31 d2                	xor    %edx,%edx
  1028a8:	a1 5c 49 10 00       	mov    0x10495c,%eax
  1028ad:	e9 da fe ff ff       	jmp    10278c <myqsort>
  1028b2:	66 90                	xchg   %ax,%ax

001028b4 <bench_qsort_validate>:
  1028b4:	55                   	push   %ebp
  1028b5:	89 e5                	mov    %esp,%ebp
  1028b7:	83 ec 10             	sub    $0x10,%esp
  1028ba:	a1 5c 49 10 00       	mov    0x10495c,%eax
  1028bf:	8b 15 60 49 10 00    	mov    0x104960,%edx
  1028c5:	8d 14 90             	lea    (%eax,%edx,4),%edx
  1028c8:	52                   	push   %edx
  1028c9:	50                   	push   %eax
  1028ca:	e8 29 fb ff ff       	call   1023f8 <checksum>
  1028cf:	83 c4 10             	add    $0x10,%esp
  1028d2:	8b 15 88 49 10 00    	mov    0x104988,%edx
  1028d8:	39 42 0c             	cmp    %eax,0xc(%edx)
  1028db:	0f 94 c0             	sete   %al
  1028de:	0f b6 c0             	movzbl %al,%eax
  1028e1:	c9                   	leave  
  1028e2:	c3                   	ret    
  1028e3:	90                   	nop

001028e4 <bench_lzip_prepare>:
  1028e4:	55                   	push   %ebp
  1028e5:	89 e5                	mov    %esp,%ebp
  1028e7:	56                   	push   %esi
  1028e8:	53                   	push   %ebx
  1028e9:	a1 88 49 10 00       	mov    0x104988,%eax
  1028ee:	8b 00                	mov    (%eax),%eax
  1028f0:	a3 74 49 10 00       	mov    %eax,0x104974
  1028f5:	83 ec 0c             	sub    $0xc,%esp
  1028f8:	6a 01                	push   $0x1
  1028fa:	e8 b5 fa ff ff       	call   1023b4 <bench_srand>
  1028ff:	c7 04 24 04 88 00 00 	movl   $0x8804,(%esp)
  102906:	e8 21 fa ff ff       	call   10232c <bench_alloc>
  10290b:	a3 70 49 10 00       	mov    %eax,0x104970
  102910:	58                   	pop    %eax
  102911:	ff 35 74 49 10 00    	pushl  0x104974
  102917:	e8 10 fa ff ff       	call   10232c <bench_alloc>
  10291c:	a3 6c 49 10 00       	mov    %eax,0x10496c
  102921:	a1 74 49 10 00       	mov    0x104974,%eax
  102926:	05 90 01 00 00       	add    $0x190,%eax
  10292b:	89 04 24             	mov    %eax,(%esp)
  10292e:	e8 f9 f9 ff ff       	call   10232c <bench_alloc>
  102933:	a3 68 49 10 00       	mov    %eax,0x104968
  102938:	83 c4 10             	add    $0x10,%esp
  10293b:	8b 15 74 49 10 00    	mov    0x104974,%edx
  102941:	85 d2                	test   %edx,%edx
  102943:	7e 24                	jle    102969 <bench_lzip_prepare+0x85>
  102945:	31 db                	xor    %ebx,%ebx
  102947:	be 1a 00 00 00       	mov    $0x1a,%esi
  10294c:	e8 77 fa ff ff       	call   1023c8 <bench_rand>
  102951:	31 d2                	xor    %edx,%edx
  102953:	f7 f6                	div    %esi
  102955:	83 c2 61             	add    $0x61,%edx
  102958:	a1 6c 49 10 00       	mov    0x10496c,%eax
  10295d:	88 14 18             	mov    %dl,(%eax,%ebx,1)
  102960:	43                   	inc    %ebx
  102961:	39 1d 74 49 10 00    	cmp    %ebx,0x104974
  102967:	7f e3                	jg     10294c <bench_lzip_prepare+0x68>
  102969:	8d 65 f8             	lea    -0x8(%ebp),%esp
  10296c:	5b                   	pop    %ebx
  10296d:	5e                   	pop    %esi
  10296e:	5d                   	pop    %ebp
  10296f:	c3                   	ret    

00102970 <bench_lzip_run>:
  102970:	55                   	push   %ebp
  102971:	89 e5                	mov    %esp,%ebp
  102973:	83 ec 08             	sub    $0x8,%esp
  102976:	ff 35 70 49 10 00    	pushl  0x104970
  10297c:	ff 35 74 49 10 00    	pushl  0x104974
  102982:	ff 35 68 49 10 00    	pushl  0x104968
  102988:	ff 35 6c 49 10 00    	pushl  0x10496c
  10298e:	e8 41 01 00 00       	call   102ad4 <qlz_compress>
  102993:	a3 64 49 10 00       	mov    %eax,0x104964
  102998:	83 c4 10             	add    $0x10,%esp
  10299b:	c9                   	leave  
  10299c:	c3                   	ret    
  10299d:	8d 76 00             	lea    0x0(%esi),%esi

001029a0 <bench_lzip_validate>:
  1029a0:	55                   	push   %ebp
  1029a1:	89 e5                	mov    %esp,%ebp
  1029a3:	83 ec 10             	sub    $0x10,%esp
  1029a6:	a1 68 49 10 00       	mov    0x104968,%eax
  1029ab:	8b 15 64 49 10 00    	mov    0x104964,%edx
  1029b1:	01 c2                	add    %eax,%edx
  1029b3:	52                   	push   %edx
  1029b4:	50                   	push   %eax
  1029b5:	e8 3e fa ff ff       	call   1023f8 <checksum>
  1029ba:	83 c4 10             	add    $0x10,%esp
  1029bd:	8b 15 88 49 10 00    	mov    0x104988,%edx
  1029c3:	39 42 0c             	cmp    %eax,0xc(%edx)
  1029c6:	0f 94 c0             	sete   %al
  1029c9:	0f b6 c0             	movzbl %al,%eax
  1029cc:	c9                   	leave  
  1029cd:	c3                   	ret    
  1029ce:	66 90                	xchg   %ax,%ax

001029d0 <bench_memcpy.part.1>:
  1029d0:	55                   	push   %ebp
  1029d1:	89 e5                	mov    %esp,%ebp
  1029d3:	83 ec 0c             	sub    $0xc,%esp
  1029d6:	6a 08                	push   $0x8
  1029d8:	68 98 44 10 00       	push   $0x104498
  1029dd:	68 81 41 10 00       	push   $0x104181
  1029e2:	e8 e1 11 00 00       	call   103bc8 <printf>
  1029e7:	c7 04 24 01 00 00 00 	movl   $0x1,(%esp)
  1029ee:	e8 61 0e 00 00       	call   103854 <_halt>
  1029f3:	90                   	nop

001029f4 <memcpy_up.isra.2>:
  1029f4:	55                   	push   %ebp
  1029f5:	89 e5                	mov    %esp,%ebp
  1029f7:	83 ec 0c             	sub    $0xc,%esp
  1029fa:	68 95 00 00 00       	push   $0x95
  1029ff:	68 d8 44 10 00       	push   $0x1044d8
  102a04:	68 81 41 10 00       	push   $0x104181
  102a09:	e8 ba 11 00 00       	call   103bc8 <printf>
  102a0e:	c7 04 24 01 00 00 00 	movl   $0x1,(%esp)
  102a15:	e8 3a 0e 00 00       	call   103854 <_halt>
  102a1a:	66 90                	xchg   %ax,%ax

00102a1c <qlz_get_setting>:
  102a1c:	55                   	push   %ebp
  102a1d:	89 e5                	mov    %esp,%ebp
  102a1f:	8b 45 08             	mov    0x8(%ebp),%eax
  102a22:	83 f8 09             	cmp    $0x9,%eax
  102a25:	77 09                	ja     102a30 <qlz_get_setting+0x14>
  102a27:	8b 04 85 20 45 10 00 	mov    0x104520(,%eax,4),%eax
  102a2e:	5d                   	pop    %ebp
  102a2f:	c3                   	ret    
  102a30:	b8 ff ff ff ff       	mov    $0xffffffff,%eax
  102a35:	5d                   	pop    %ebp
  102a36:	c3                   	ret    
  102a37:	90                   	nop

00102a38 <qlz_size_decompressed>:
  102a38:	55                   	push   %ebp
  102a39:	89 e5                	mov    %esp,%ebp
  102a3b:	57                   	push   %edi
  102a3c:	56                   	push   %esi
  102a3d:	53                   	push   %ebx
  102a3e:	8b 4d 08             	mov    0x8(%ebp),%ecx
  102a41:	8a 01                	mov    (%ecx),%al
  102a43:	83 e0 02             	and    $0x2,%eax
  102a46:	3c 01                	cmp    $0x1,%al
  102a48:	19 db                	sbb    %ebx,%ebx
  102a4a:	81 e3 00 01 00 00    	and    $0x100,%ebx
  102a50:	4b                   	dec    %ebx
  102a51:	3c 01                	cmp    $0x1,%al
  102a53:	19 d2                	sbb    %edx,%edx
  102a55:	83 e2 fd             	and    $0xfffffffd,%edx
  102a58:	83 c2 05             	add    $0x5,%edx
  102a5b:	3c 01                	cmp    $0x1,%al
  102a5d:	19 c0                	sbb    %eax,%eax
  102a5f:	83 e0 fd             	and    $0xfffffffd,%eax
  102a62:	8d 34 11             	lea    (%ecx,%edx,1),%esi
  102a65:	8d 54 10 04          	lea    0x4(%eax,%edx,1),%edx
  102a69:	01 ca                	add    %ecx,%edx
  102a6b:	31 c9                	xor    %ecx,%ecx
  102a6d:	31 c0                	xor    %eax,%eax
  102a6f:	0f b6 3e             	movzbl (%esi),%edi
  102a72:	d3 e7                	shl    %cl,%edi
  102a74:	09 f8                	or     %edi,%eax
  102a76:	46                   	inc    %esi
  102a77:	83 c1 08             	add    $0x8,%ecx
  102a7a:	39 f2                	cmp    %esi,%edx
  102a7c:	75 f1                	jne    102a6f <qlz_size_decompressed+0x37>
  102a7e:	21 d8                	and    %ebx,%eax
  102a80:	5b                   	pop    %ebx
  102a81:	5e                   	pop    %esi
  102a82:	5f                   	pop    %edi
  102a83:	5d                   	pop    %ebp
  102a84:	c3                   	ret    
  102a85:	8d 76 00             	lea    0x0(%esi),%esi

00102a88 <qlz_size_compressed>:
  102a88:	55                   	push   %ebp
  102a89:	89 e5                	mov    %esp,%ebp
  102a8b:	53                   	push   %ebx
  102a8c:	8b 55 08             	mov    0x8(%ebp),%edx
  102a8f:	0f b6 42 01          	movzbl 0x1(%edx),%eax
  102a93:	f6 02 02             	testb  $0x2,(%edx)
  102a96:	74 21                	je     102ab9 <qlz_size_compressed+0x31>
  102a98:	0f b6 4a 02          	movzbl 0x2(%edx),%ecx
  102a9c:	c1 e1 08             	shl    $0x8,%ecx
  102a9f:	89 cb                	mov    %ecx,%ebx
  102aa1:	09 c3                	or     %eax,%ebx
  102aa3:	0f b6 4a 03          	movzbl 0x3(%edx),%ecx
  102aa7:	89 c8                	mov    %ecx,%eax
  102aa9:	c1 e0 10             	shl    $0x10,%eax
  102aac:	09 d8                	or     %ebx,%eax
  102aae:	89 c1                	mov    %eax,%ecx
  102ab0:	0f b6 42 04          	movzbl 0x4(%edx),%eax
  102ab4:	c1 e0 18             	shl    $0x18,%eax
  102ab7:	09 c8                	or     %ecx,%eax
  102ab9:	5b                   	pop    %ebx
  102aba:	5d                   	pop    %ebp
  102abb:	c3                   	ret    

00102abc <qlz_size_header>:
  102abc:	55                   	push   %ebp
  102abd:	89 e5                	mov    %esp,%ebp
  102abf:	8b 45 08             	mov    0x8(%ebp),%eax
  102ac2:	8a 00                	mov    (%eax),%al
  102ac4:	83 e0 02             	and    $0x2,%eax
  102ac7:	3c 01                	cmp    $0x1,%al
  102ac9:	19 c0                	sbb    %eax,%eax
  102acb:	83 e0 fa             	and    $0xfffffffa,%eax
  102ace:	83 c0 09             	add    $0x9,%eax
  102ad1:	5d                   	pop    %ebp
  102ad2:	c3                   	ret    
  102ad3:	90                   	nop

00102ad4 <qlz_compress>:
  102ad4:	55                   	push   %ebp
  102ad5:	89 e5                	mov    %esp,%ebp
  102ad7:	57                   	push   %edi
  102ad8:	56                   	push   %esi
  102ad9:	53                   	push   %ebx
  102ada:	83 ec 5c             	sub    $0x5c,%esp
  102add:	8b 45 10             	mov    0x10(%ebp),%eax
  102ae0:	48                   	dec    %eax
  102ae1:	89 45 a0             	mov    %eax,-0x60(%ebp)
  102ae4:	3d 6e fe ff ff       	cmp    $0xfffffe6e,%eax
  102ae9:	0f 87 55 04 00 00    	ja     102f44 <qlz_compress+0x470>
  102aef:	81 7d 10 d8 00 00 00 	cmpl   $0xd8,0x10(%ebp)
  102af6:	19 c0                	sbb    %eax,%eax
  102af8:	83 e0 fa             	and    $0xfffffffa,%eax
  102afb:	83 c0 09             	add    $0x9,%eax
  102afe:	89 45 a4             	mov    %eax,-0x5c(%ebp)
  102b01:	8b 45 14             	mov    0x14(%ebp),%eax
  102b04:	05 04 80 00 00       	add    $0x8004,%eax
  102b09:	8b 75 14             	mov    0x14(%ebp),%esi
  102b0c:	8d 96 04 88 00 00    	lea    0x8804(%esi),%edx
  102b12:	66 90                	xchg   %ax,%ax
  102b14:	c6 00 00             	movb   $0x0,(%eax)
  102b17:	40                   	inc    %eax
  102b18:	39 c2                	cmp    %eax,%edx
  102b1a:	75 f8                	jne    102b14 <qlz_compress+0x40>
  102b1c:	8b 7d a4             	mov    -0x5c(%ebp),%edi
  102b1f:	03 7d 0c             	add    0xc(%ebp),%edi
  102b22:	89 7d a8             	mov    %edi,-0x58(%ebp)
  102b25:	8b 75 a0             	mov    -0x60(%ebp),%esi
  102b28:	03 75 08             	add    0x8(%ebp),%esi
  102b2b:	89 75 98             	mov    %esi,-0x68(%ebp)
  102b2e:	8d 47 04             	lea    0x4(%edi),%eax
  102b31:	89 45 e0             	mov    %eax,-0x20(%ebp)
  102b34:	8d 46 f6             	lea    -0xa(%esi),%eax
  102b37:	89 45 b4             	mov    %eax,-0x4c(%ebp)
  102b3a:	39 45 08             	cmp    %eax,0x8(%ebp)
  102b3d:	0f 87 be 04 00 00    	ja     103001 <qlz_compress+0x52d>
  102b43:	8b 45 10             	mov    0x10(%ebp),%eax
  102b46:	d1 e8                	shr    %eax
  102b48:	03 45 08             	add    0x8(%ebp),%eax
  102b4b:	89 45 ac             	mov    %eax,-0x54(%ebp)
  102b4e:	8d 46 fc             	lea    -0x4(%esi),%eax
  102b51:	89 45 b0             	mov    %eax,-0x50(%ebp)
  102b54:	8b 75 08             	mov    0x8(%ebp),%esi
  102b57:	89 7d c0             	mov    %edi,-0x40(%ebp)
  102b5a:	c7 45 e4 00 00 00 80 	movl   $0x80000000,-0x1c(%ebp)
  102b61:	8d 76 00             	lea    0x0(%esi),%esi
  102b64:	8b 45 b0             	mov    -0x50(%ebp),%eax
  102b67:	29 f0                	sub    %esi,%eax
  102b69:	89 45 dc             	mov    %eax,-0x24(%ebp)
  102b6c:	3d fe 00 00 00       	cmp    $0xfe,%eax
  102b71:	7e 07                	jle    102b7a <qlz_compress+0xa6>
  102b73:	c7 45 dc fe 00 00 00 	movl   $0xfe,-0x24(%ebp)
  102b7a:	8b 45 dc             	mov    -0x24(%ebp),%eax
  102b7d:	40                   	inc    %eax
  102b7e:	89 45 b8             	mov    %eax,-0x48(%ebp)
  102b81:	0f b6 46 01          	movzbl 0x1(%esi),%eax
  102b85:	c1 e0 08             	shl    $0x8,%eax
  102b88:	89 c2                	mov    %eax,%edx
  102b8a:	0f b6 46 02          	movzbl 0x2(%esi),%eax
  102b8e:	c1 e0 10             	shl    $0x10,%eax
  102b91:	09 d0                	or     %edx,%eax
  102b93:	0f b6 16             	movzbl (%esi),%edx
  102b96:	09 d0                	or     %edx,%eax
  102b98:	89 c7                	mov    %eax,%edi
  102b9a:	89 45 cc             	mov    %eax,-0x34(%ebp)
  102b9d:	c1 e8 09             	shr    $0x9,%eax
  102ba0:	89 fa                	mov    %edi,%edx
  102ba2:	c1 ea 0d             	shr    $0xd,%edx
  102ba5:	31 d0                	xor    %edx,%eax
  102ba7:	31 f8                	xor    %edi,%eax
  102ba9:	25 ff 07 00 00       	and    $0x7ff,%eax
  102bae:	89 c7                	mov    %eax,%edi
  102bb0:	8b 45 14             	mov    0x14(%ebp),%eax
  102bb3:	8a 8c 38 04 80 00 00 	mov    0x8004(%eax,%edi,1),%cl
  102bba:	88 4d d0             	mov    %cl,-0x30(%ebp)
  102bbd:	89 fa                	mov    %edi,%edx
  102bbf:	c1 e2 04             	shl    $0x4,%edx
  102bc2:	01 c2                	add    %eax,%edx
  102bc4:	8b 42 04             	mov    0x4(%edx),%eax
  102bc7:	8d 5e fe             	lea    -0x2(%esi),%ebx
  102bca:	89 5d c4             	mov    %ebx,-0x3c(%ebp)
  102bcd:	39 d8                	cmp    %ebx,%eax
  102bcf:	0f 83 97 00 00 00    	jae    102c6c <qlz_compress+0x198>
  102bd5:	84 c9                	test   %cl,%cl
  102bd7:	0f 85 8f 02 00 00    	jne    102e6c <qlz_compress+0x398>
  102bdd:	89 72 04             	mov    %esi,0x4(%edx)
  102be0:	8b 45 14             	mov    0x14(%ebp),%eax
  102be3:	c6 84 38 04 80 00 00 	movb   $0x1,0x8004(%eax,%edi,1)
  102bea:	01 
  102beb:	d1 6d e4             	shrl   -0x1c(%ebp)
  102bee:	8b 7d e0             	mov    -0x20(%ebp),%edi
  102bf1:	8a 06                	mov    (%esi),%al
  102bf3:	88 07                	mov    %al,(%edi)
  102bf5:	46                   	inc    %esi
  102bf6:	47                   	inc    %edi
  102bf7:	89 7d e0             	mov    %edi,-0x20(%ebp)
  102bfa:	8b 4d e4             	mov    -0x1c(%ebp),%ecx
  102bfd:	83 e1 01             	and    $0x1,%ecx
  102c00:	39 75 b4             	cmp    %esi,-0x4c(%ebp)
  102c03:	0f 82 11 01 00 00    	jb     102d1a <qlz_compress+0x246>
  102c09:	85 c9                	test   %ecx,%ecx
  102c0b:	0f 84 53 ff ff ff    	je     102b64 <qlz_compress+0x90>
  102c11:	39 75 ac             	cmp    %esi,-0x54(%ebp)
  102c14:	73 1a                	jae    102c30 <qlz_compress+0x15c>
  102c16:	89 f0                	mov    %esi,%eax
  102c18:	2b 45 08             	sub    0x8(%ebp),%eax
  102c1b:	8b 55 e0             	mov    -0x20(%ebp),%edx
  102c1e:	2b 55 a8             	sub    -0x58(%ebp),%edx
  102c21:	89 c1                	mov    %eax,%ecx
  102c23:	c1 f9 05             	sar    $0x5,%ecx
  102c26:	29 c8                	sub    %ecx,%eax
  102c28:	39 c2                	cmp    %eax,%edx
  102c2a:	0f 8f 6e 03 00 00    	jg     102f9e <qlz_compress+0x4ca>
  102c30:	8b 45 e4             	mov    -0x1c(%ebp),%eax
  102c33:	d1 e8                	shr    %eax
  102c35:	0d 00 00 00 80       	or     $0x80000000,%eax
  102c3a:	8b 5d c0             	mov    -0x40(%ebp),%ebx
  102c3d:	89 03                	mov    %eax,(%ebx)
  102c3f:	8b 45 e0             	mov    -0x20(%ebp),%eax
  102c42:	89 45 c0             	mov    %eax,-0x40(%ebp)
  102c45:	83 c0 04             	add    $0x4,%eax
  102c48:	89 45 e0             	mov    %eax,-0x20(%ebp)
  102c4b:	c7 45 e4 00 00 00 80 	movl   $0x80000000,-0x1c(%ebp)
  102c52:	8b 45 b0             	mov    -0x50(%ebp),%eax
  102c55:	29 f0                	sub    %esi,%eax
  102c57:	89 45 dc             	mov    %eax,-0x24(%ebp)
  102c5a:	3d fe 00 00 00       	cmp    $0xfe,%eax
  102c5f:	0f 8e 15 ff ff ff    	jle    102b7a <qlz_compress+0xa6>
  102c65:	e9 09 ff ff ff       	jmp    102b73 <qlz_compress+0x9f>
  102c6a:	66 90                	xchg   %ax,%ax
  102c6c:	31 d2                	xor    %edx,%edx
  102c6e:	0f b6 45 d0          	movzbl -0x30(%ebp),%eax
  102c72:	89 45 d8             	mov    %eax,-0x28(%ebp)
  102c75:	89 f8                	mov    %edi,%eax
  102c77:	c1 e0 04             	shl    $0x4,%eax
  102c7a:	03 45 14             	add    0x14(%ebp),%eax
  102c7d:	89 45 d4             	mov    %eax,-0x2c(%ebp)
  102c80:	c7 45 bc 00 00 00 00 	movl   $0x0,-0x44(%ebp)
  102c87:	b8 01 00 00 00       	mov    $0x1,%eax
  102c8c:	89 7d c8             	mov    %edi,-0x38(%ebp)
  102c8f:	3b 45 d8             	cmp    -0x28(%ebp),%eax
  102c92:	73 19                	jae    102cad <qlz_compress+0x1d9>
  102c94:	8b 5d d4             	mov    -0x2c(%ebp),%ebx
  102c97:	8b 4c 83 04          	mov    0x4(%ebx,%eax,4),%ecx
  102c9b:	8a 1c 11             	mov    (%ecx,%edx,1),%bl
  102c9e:	38 1c 16             	cmp    %bl,(%esi,%edx,1)
  102ca1:	0f 84 4d 01 00 00    	je     102df4 <qlz_compress+0x320>
  102ca7:	40                   	inc    %eax
  102ca8:	83 f8 04             	cmp    $0x4,%eax
  102cab:	75 e2                	jne    102c8f <qlz_compress+0x1bb>
  102cad:	8b 7d c8             	mov    -0x38(%ebp),%edi
  102cb0:	8a 4d d0             	mov    -0x30(%ebp),%cl
  102cb3:	89 c8                	mov    %ecx,%eax
  102cb5:	83 e0 03             	and    $0x3,%eax
  102cb8:	8d 04 b8             	lea    (%eax,%edi,4),%eax
  102cbb:	8b 5d 14             	mov    0x14(%ebp),%ebx
  102cbe:	89 74 83 04          	mov    %esi,0x4(%ebx,%eax,4)
  102cc2:	88 c8                	mov    %cl,%al
  102cc4:	40                   	inc    %eax
  102cc5:	88 84 3b 04 80 00 00 	mov    %al,0x8004(%ebx,%edi,1)
  102ccc:	d1 6d e4             	shrl   -0x1c(%ebp)
  102ccf:	8b 45 e4             	mov    -0x1c(%ebp),%eax
  102cd2:	83 fa 02             	cmp    $0x2,%edx
  102cd5:	0f 86 13 ff ff ff    	jbe    102bee <qlz_compress+0x11a>
  102cdb:	0d 00 00 00 80       	or     $0x80000000,%eax
  102ce0:	89 45 e4             	mov    %eax,-0x1c(%ebp)
  102ce3:	01 d6                	add    %edx,%esi
  102ce5:	89 f8                	mov    %edi,%eax
  102ce7:	c1 e0 05             	shl    $0x5,%eax
  102cea:	0b 45 bc             	or     -0x44(%ebp),%eax
  102ced:	83 fa 09             	cmp    $0x9,%edx
  102cf0:	0f 87 ae 01 00 00    	ja     102ea4 <qlz_compress+0x3d0>
  102cf6:	8d 14 95 f8 ff ff ff 	lea    -0x8(,%edx,4),%edx
  102cfd:	09 d0                	or     %edx,%eax
  102cff:	8b 4d e0             	mov    -0x20(%ebp),%ecx
  102d02:	66 89 01             	mov    %ax,(%ecx)
  102d05:	83 c1 02             	add    $0x2,%ecx
  102d08:	89 4d e0             	mov    %ecx,-0x20(%ebp)
  102d0b:	8b 4d e4             	mov    -0x1c(%ebp),%ecx
  102d0e:	83 e1 01             	and    $0x1,%ecx
  102d11:	39 75 b4             	cmp    %esi,-0x4c(%ebp)
  102d14:	0f 83 ef fe ff ff    	jae    102c09 <qlz_compress+0x135>
  102d1a:	8b 7d e4             	mov    -0x1c(%ebp),%edi
  102d1d:	d1 ef                	shr    %edi
  102d1f:	39 75 98             	cmp    %esi,-0x68(%ebp)
  102d22:	0f 82 a7 01 00 00    	jb     102ecf <qlz_compress+0x3fb>
  102d28:	8b 45 98             	mov    -0x68(%ebp),%eax
  102d2b:	83 e8 03             	sub    $0x3,%eax
  102d2e:	89 45 dc             	mov    %eax,-0x24(%ebp)
  102d31:	8b 45 08             	mov    0x8(%ebp),%eax
  102d34:	03 45 10             	add    0x10(%ebp),%eax
  102d37:	89 45 d8             	mov    %eax,-0x28(%ebp)
  102d3a:	8b 7d e4             	mov    -0x1c(%ebp),%edi
  102d3d:	8b 5d e0             	mov    -0x20(%ebp),%ebx
  102d40:	eb 7a                	jmp    102dbc <qlz_compress+0x2e8>
  102d42:	66 90                	xchg   %ax,%ax
  102d44:	89 c1                	mov    %eax,%ecx
  102d46:	83 e1 01             	and    $0x1,%ecx
  102d49:	89 4d d4             	mov    %ecx,-0x2c(%ebp)
  102d4c:	c1 ef 02             	shr    $0x2,%edi
  102d4f:	89 7d d0             	mov    %edi,-0x30(%ebp)
  102d52:	89 c7                	mov    %eax,%edi
  102d54:	8a 0e                	mov    (%esi),%cl
  102d56:	3b 75 dc             	cmp    -0x24(%ebp),%esi
  102d59:	77 54                	ja     102daf <qlz_compress+0x2db>
  102d5b:	0f b6 46 01          	movzbl 0x1(%esi),%eax
  102d5f:	c1 e0 08             	shl    $0x8,%eax
  102d62:	0f b6 56 02          	movzbl 0x2(%esi),%edx
  102d66:	c1 e2 10             	shl    $0x10,%edx
  102d69:	09 c2                	or     %eax,%edx
  102d6b:	0f b6 c1             	movzbl %cl,%eax
  102d6e:	09 c2                	or     %eax,%edx
  102d70:	89 d0                	mov    %edx,%eax
  102d72:	c1 e8 09             	shr    $0x9,%eax
  102d75:	89 d1                	mov    %edx,%ecx
  102d77:	c1 e9 0d             	shr    $0xd,%ecx
  102d7a:	31 c8                	xor    %ecx,%eax
  102d7c:	31 d0                	xor    %edx,%eax
  102d7e:	25 ff 07 00 00       	and    $0x7ff,%eax
  102d83:	8b 4d 14             	mov    0x14(%ebp),%ecx
  102d86:	8a 94 01 04 80 00 00 	mov    0x8004(%ecx,%eax,1),%dl
  102d8d:	88 55 e4             	mov    %dl,-0x1c(%ebp)
  102d90:	89 d1                	mov    %edx,%ecx
  102d92:	83 e1 03             	and    $0x3,%ecx
  102d95:	8d 0c 81             	lea    (%ecx,%eax,4),%ecx
  102d98:	8b 55 14             	mov    0x14(%ebp),%edx
  102d9b:	89 74 8a 04          	mov    %esi,0x4(%edx,%ecx,4)
  102d9f:	8a 55 e4             	mov    -0x1c(%ebp),%dl
  102da2:	42                   	inc    %edx
  102da3:	8b 4d 14             	mov    0x14(%ebp),%ecx
  102da6:	88 94 01 04 80 00 00 	mov    %dl,0x8004(%ecx,%eax,1)
  102dad:	8a 0e                	mov    (%esi),%cl
  102daf:	88 0b                	mov    %cl,(%ebx)
  102db1:	46                   	inc    %esi
  102db2:	43                   	inc    %ebx
  102db3:	3b 75 d8             	cmp    -0x28(%ebp),%esi
  102db6:	0f 84 07 01 00 00    	je     102ec3 <qlz_compress+0x3ef>
  102dbc:	89 f8                	mov    %edi,%eax
  102dbe:	d1 e8                	shr    %eax
  102dc0:	f7 c7 01 00 00 00    	test   $0x1,%edi
  102dc6:	0f 84 78 ff ff ff    	je     102d44 <qlz_compress+0x270>
  102dcc:	0d 00 00 00 80       	or     $0x80000000,%eax
  102dd1:	8b 7d c0             	mov    -0x40(%ebp),%edi
  102dd4:	89 07                	mov    %eax,(%edi)
  102dd6:	89 5d c0             	mov    %ebx,-0x40(%ebp)
  102dd9:	83 c3 04             	add    $0x4,%ebx
  102ddc:	c7 45 d0 00 00 00 20 	movl   $0x20000000,-0x30(%ebp)
  102de3:	c7 45 d4 00 00 00 00 	movl   $0x0,-0x2c(%ebp)
  102dea:	bf 00 00 00 40       	mov    $0x40000000,%edi
  102def:	e9 60 ff ff ff       	jmp    102d54 <qlz_compress+0x280>
  102df4:	0f b6 59 01          	movzbl 0x1(%ecx),%ebx
  102df8:	89 df                	mov    %ebx,%edi
  102dfa:	c1 e7 08             	shl    $0x8,%edi
  102dfd:	0f b6 59 02          	movzbl 0x2(%ecx),%ebx
  102e01:	c1 e3 10             	shl    $0x10,%ebx
  102e04:	09 fb                	or     %edi,%ebx
  102e06:	0f b6 39             	movzbl (%ecx),%edi
  102e09:	09 fb                	or     %edi,%ebx
  102e0b:	3b 5d cc             	cmp    -0x34(%ebp),%ebx
  102e0e:	0f 85 93 fe ff ff    	jne    102ca7 <qlz_compress+0x1d3>
  102e14:	39 4d c4             	cmp    %ecx,-0x3c(%ebp)
  102e17:	0f 86 8a fe ff ff    	jbe    102ca7 <qlz_compress+0x1d3>
  102e1d:	8a 59 03             	mov    0x3(%ecx),%bl
  102e20:	38 5e 03             	cmp    %bl,0x3(%esi)
  102e23:	0f 85 ce 01 00 00    	jne    102ff7 <qlz_compress+0x523>
  102e29:	83 7d b8 03          	cmpl   $0x3,-0x48(%ebp)
  102e2d:	0f 86 c4 01 00 00    	jbe    102ff7 <qlz_compress+0x523>
  102e33:	bf 03 00 00 00       	mov    $0x3,%edi
  102e38:	89 45 9c             	mov    %eax,-0x64(%ebp)
  102e3b:	eb 0e                	jmp    102e4b <qlz_compress+0x377>
  102e3d:	8d 76 00             	lea    0x0(%esi),%esi
  102e40:	3b 7d dc             	cmp    -0x24(%ebp),%edi
  102e43:	0f 84 f0 00 00 00    	je     102f39 <qlz_compress+0x465>
  102e49:	89 df                	mov    %ebx,%edi
  102e4b:	8d 5f 01             	lea    0x1(%edi),%ebx
  102e4e:	8a 04 1e             	mov    (%esi,%ebx,1),%al
  102e51:	38 04 19             	cmp    %al,(%ecx,%ebx,1)
  102e54:	74 ea                	je     102e40 <qlz_compress+0x36c>
  102e56:	8b 45 9c             	mov    -0x64(%ebp),%eax
  102e59:	39 da                	cmp    %ebx,%edx
  102e5b:	0f 83 46 fe ff ff    	jae    102ca7 <qlz_compress+0x1d3>
  102e61:	89 45 bc             	mov    %eax,-0x44(%ebp)
  102e64:	89 da                	mov    %ebx,%edx
  102e66:	e9 3c fe ff ff       	jmp    102ca7 <qlz_compress+0x1d3>
  102e6b:	90                   	nop
  102e6c:	0f b6 50 01          	movzbl 0x1(%eax),%edx
  102e70:	89 d1                	mov    %edx,%ecx
  102e72:	c1 e1 08             	shl    $0x8,%ecx
  102e75:	0f b6 50 02          	movzbl 0x2(%eax),%edx
  102e79:	c1 e2 10             	shl    $0x10,%edx
  102e7c:	09 ca                	or     %ecx,%edx
  102e7e:	0f b6 08             	movzbl (%eax),%ecx
  102e81:	09 ca                	or     %ecx,%edx
  102e83:	3b 55 cc             	cmp    -0x34(%ebp),%edx
  102e86:	0f 85 e0 fd ff ff    	jne    102c6c <qlz_compress+0x198>
  102e8c:	8a 5e 03             	mov    0x3(%esi),%bl
  102e8f:	38 58 03             	cmp    %bl,0x3(%eax)
  102e92:	0f 84 c4 00 00 00    	je     102f5c <qlz_compress+0x488>
  102e98:	ba 03 00 00 00       	mov    $0x3,%edx
  102e9d:	e9 cc fd ff ff       	jmp    102c6e <qlz_compress+0x19a>
  102ea2:	66 90                	xchg   %ax,%ax
  102ea4:	c1 e2 10             	shl    $0x10,%edx
  102ea7:	09 d0                	or     %edx,%eax
  102ea9:	8b 5d e0             	mov    -0x20(%ebp),%ebx
  102eac:	66 89 03             	mov    %ax,(%ebx)
  102eaf:	c1 e0 08             	shl    $0x8,%eax
  102eb2:	c1 f8 18             	sar    $0x18,%eax
  102eb5:	88 43 02             	mov    %al,0x2(%ebx)
  102eb8:	83 c3 03             	add    $0x3,%ebx
  102ebb:	89 5d e0             	mov    %ebx,-0x20(%ebp)
  102ebe:	e9 37 fd ff ff       	jmp    102bfa <qlz_compress+0x126>
  102ec3:	89 7d e4             	mov    %edi,-0x1c(%ebp)
  102ec6:	89 5d e0             	mov    %ebx,-0x20(%ebp)
  102ec9:	8b 4d d4             	mov    -0x2c(%ebp),%ecx
  102ecc:	8b 7d d0             	mov    -0x30(%ebp),%edi
  102ecf:	85 c9                	test   %ecx,%ecx
  102ed1:	75 14                	jne    102ee7 <qlz_compress+0x413>
  102ed3:	8b 55 e4             	mov    -0x1c(%ebp),%edx
  102ed6:	eb 02                	jmp    102eda <qlz_compress+0x406>
  102ed8:	89 c2                	mov    %eax,%edx
  102eda:	89 d0                	mov    %edx,%eax
  102edc:	d1 e8                	shr    %eax
  102ede:	a8 01                	test   $0x1,%al
  102ee0:	74 f6                	je     102ed8 <qlz_compress+0x404>
  102ee2:	89 d7                	mov    %edx,%edi
  102ee4:	c1 ef 02             	shr    $0x2,%edi
  102ee7:	89 f8                	mov    %edi,%eax
  102ee9:	0d 00 00 00 80       	or     $0x80000000,%eax
  102eee:	8b 75 c0             	mov    -0x40(%ebp),%esi
  102ef1:	89 06                	mov    %eax,(%esi)
  102ef3:	8b 45 e0             	mov    -0x20(%ebp),%eax
  102ef6:	2b 45 a8             	sub    -0x58(%ebp),%eax
  102ef9:	83 f8 09             	cmp    $0x9,%eax
  102efc:	7d 05                	jge    102f03 <qlz_compress+0x42f>
  102efe:	b8 09 00 00 00       	mov    $0x9,%eax
  102f03:	03 45 a4             	add    -0x5c(%ebp),%eax
  102f06:	ba 01 00 00 00       	mov    $0x1,%edx
  102f0b:	8b 75 14             	mov    0x14(%ebp),%esi
  102f0e:	c7 06 00 00 00 00    	movl   $0x0,(%esi)
  102f14:	83 7d a4 03          	cmpl   $0x3,-0x5c(%ebp)
  102f18:	74 34                	je     102f4e <qlz_compress+0x47a>
  102f1a:	83 ca 02             	or     $0x2,%edx
  102f1d:	8b 75 0c             	mov    0xc(%ebp),%esi
  102f20:	89 46 01             	mov    %eax,0x1(%esi)
  102f23:	8b 5d 10             	mov    0x10(%ebp),%ebx
  102f26:	89 5e 05             	mov    %ebx,0x5(%esi)
  102f29:	83 ca 48             	or     $0x48,%edx
  102f2c:	8b 75 0c             	mov    0xc(%ebp),%esi
  102f2f:	88 16                	mov    %dl,(%esi)
  102f31:	83 c4 5c             	add    $0x5c,%esp
  102f34:	5b                   	pop    %ebx
  102f35:	5e                   	pop    %esi
  102f36:	5f                   	pop    %edi
  102f37:	5d                   	pop    %ebp
  102f38:	c3                   	ret    
  102f39:	8b 45 9c             	mov    -0x64(%ebp),%eax
  102f3c:	8b 5d b8             	mov    -0x48(%ebp),%ebx
  102f3f:	e9 15 ff ff ff       	jmp    102e59 <qlz_compress+0x385>
  102f44:	31 c0                	xor    %eax,%eax
  102f46:	83 c4 5c             	add    $0x5c,%esp
  102f49:	5b                   	pop    %ebx
  102f4a:	5e                   	pop    %esi
  102f4b:	5f                   	pop    %edi
  102f4c:	5d                   	pop    %ebp
  102f4d:	c3                   	ret    
  102f4e:	8b 75 0c             	mov    0xc(%ebp),%esi
  102f51:	88 46 01             	mov    %al,0x1(%esi)
  102f54:	8a 5d 10             	mov    0x10(%ebp),%bl
  102f57:	88 5e 02             	mov    %bl,0x2(%esi)
  102f5a:	eb cd                	jmp    102f29 <qlz_compress+0x455>
  102f5c:	8a 58 04             	mov    0x4(%eax),%bl
  102f5f:	38 5e 04             	cmp    %bl,0x4(%esi)
  102f62:	0f 85 b6 00 00 00    	jne    10301e <qlz_compress+0x54a>
  102f68:	83 7d b8 04          	cmpl   $0x4,-0x48(%ebp)
  102f6c:	0f 86 ac 00 00 00    	jbe    10301e <qlz_compress+0x54a>
  102f72:	b9 04 00 00 00       	mov    $0x4,%ecx
  102f77:	8b 5d dc             	mov    -0x24(%ebp),%ebx
  102f7a:	89 5d d8             	mov    %ebx,-0x28(%ebp)
  102f7d:	eb 03                	jmp    102f82 <qlz_compress+0x4ae>
  102f7f:	90                   	nop
  102f80:	89 d1                	mov    %edx,%ecx
  102f82:	8d 51 01             	lea    0x1(%ecx),%edx
  102f85:	8a 1c 16             	mov    (%esi,%edx,1),%bl
  102f88:	38 1c 10             	cmp    %bl,(%eax,%edx,1)
  102f8b:	0f 85 dd fc ff ff    	jne    102c6e <qlz_compress+0x19a>
  102f91:	3b 4d d8             	cmp    -0x28(%ebp),%ecx
  102f94:	75 ea                	jne    102f80 <qlz_compress+0x4ac>
  102f96:	8b 55 b8             	mov    -0x48(%ebp),%edx
  102f99:	e9 d0 fc ff ff       	jmp    102c6e <qlz_compress+0x19a>
  102f9e:	8b 55 a8             	mov    -0x58(%ebp),%edx
  102fa1:	85 d2                	test   %edx,%edx
  102fa3:	0f 84 8f 00 00 00    	je     103038 <qlz_compress+0x564>
  102fa9:	8b 45 08             	mov    0x8(%ebp),%eax
  102fac:	85 c0                	test   %eax,%eax
  102fae:	0f 84 84 00 00 00    	je     103038 <qlz_compress+0x564>
  102fb4:	8b 45 08             	mov    0x8(%ebp),%eax
  102fb7:	03 45 10             	add    0x10(%ebp),%eax
  102fba:	8b 75 a8             	mov    -0x58(%ebp),%esi
  102fbd:	39 c6                	cmp    %eax,%esi
  102fbf:	73 26                	jae    102fe7 <qlz_compress+0x513>
  102fc1:	3b 75 08             	cmp    0x8(%ebp),%esi
  102fc4:	76 21                	jbe    102fe7 <qlz_compress+0x513>
  102fc6:	89 f2                	mov    %esi,%edx
  102fc8:	8b 45 a0             	mov    -0x60(%ebp),%eax
  102fcb:	8b 4d 08             	mov    0x8(%ebp),%ecx
  102fce:	8a 1c 01             	mov    (%ecx,%eax,1),%bl
  102fd1:	88 1c 02             	mov    %bl,(%edx,%eax,1)
  102fd4:	48                   	dec    %eax
  102fd5:	83 f8 ff             	cmp    $0xffffffff,%eax
  102fd8:	75 f4                	jne    102fce <qlz_compress+0x4fa>
  102fda:	8b 45 a4             	mov    -0x5c(%ebp),%eax
  102fdd:	03 45 10             	add    0x10(%ebp),%eax
  102fe0:	31 d2                	xor    %edx,%edx
  102fe2:	e9 24 ff ff ff       	jmp    102f0b <qlz_compress+0x437>
  102fe7:	8b 7d a8             	mov    -0x58(%ebp),%edi
  102fea:	8b 75 08             	mov    0x8(%ebp),%esi
  102fed:	8d 76 00             	lea    0x0(%esi),%esi
  102ff0:	a4                   	movsb  %ds:(%esi),%es:(%edi)
  102ff1:	39 f0                	cmp    %esi,%eax
  102ff3:	75 fb                	jne    102ff0 <qlz_compress+0x51c>
  102ff5:	eb e3                	jmp    102fda <qlz_compress+0x506>
  102ff7:	bb 03 00 00 00       	mov    $0x3,%ebx
  102ffc:	e9 58 fe ff ff       	jmp    102e59 <qlz_compress+0x385>
  103001:	8b 45 98             	mov    -0x68(%ebp),%eax
  103004:	39 45 08             	cmp    %eax,0x8(%ebp)
  103007:	77 1f                	ja     103028 <qlz_compress+0x554>
  103009:	8b 75 08             	mov    0x8(%ebp),%esi
  10300c:	8b 45 a8             	mov    -0x58(%ebp),%eax
  10300f:	89 45 c0             	mov    %eax,-0x40(%ebp)
  103012:	c7 45 e4 00 00 00 80 	movl   $0x80000000,-0x1c(%ebp)
  103019:	e9 0a fd ff ff       	jmp    102d28 <qlz_compress+0x254>
  10301e:	ba 04 00 00 00       	mov    $0x4,%edx
  103023:	e9 46 fc ff ff       	jmp    102c6e <qlz_compress+0x19a>
  103028:	8b 45 a8             	mov    -0x58(%ebp),%eax
  10302b:	89 45 c0             	mov    %eax,-0x40(%ebp)
  10302e:	ba 00 00 00 80       	mov    $0x80000000,%edx
  103033:	e9 a2 fe ff ff       	jmp    102eda <qlz_compress+0x406>
  103038:	e8 93 f9 ff ff       	call   1029d0 <bench_memcpy.part.1>
  10303d:	8d 76 00             	lea    0x0(%esi),%esi

00103040 <qlz_decompress>:
  103040:	55                   	push   %ebp
  103041:	89 e5                	mov    %esp,%ebp
  103043:	57                   	push   %edi
  103044:	56                   	push   %esi
  103045:	53                   	push   %ebx
  103046:	83 ec 38             	sub    $0x38,%esp
  103049:	8b 5d 08             	mov    0x8(%ebp),%ebx
  10304c:	8b 7d 0c             	mov    0xc(%ebp),%edi
  10304f:	53                   	push   %ebx
  103050:	e8 e3 f9 ff ff       	call   102a38 <qlz_size_decompressed>
  103055:	83 c4 10             	add    $0x10,%esp
  103058:	89 45 e4             	mov    %eax,-0x1c(%ebp)
  10305b:	8a 03                	mov    (%ebx),%al
  10305d:	a8 01                	test   $0x1,%al
  10305f:	0f 84 13 01 00 00    	je     103178 <qlz_decompress+0x138>
  103065:	8b 45 10             	mov    0x10(%ebp),%eax
  103068:	05 00 80 00 00       	add    $0x8000,%eax
  10306d:	89 45 e0             	mov    %eax,-0x20(%ebp)
  103070:	89 c2                	mov    %eax,%edx
  103072:	8b 45 10             	mov    0x10(%ebp),%eax
  103075:	05 00 88 00 00       	add    $0x8800,%eax
  10307a:	66 90                	xchg   %ax,%ax
  10307c:	c6 02 00             	movb   $0x0,(%edx)
  10307f:	42                   	inc    %edx
  103080:	39 d0                	cmp    %edx,%eax
  103082:	75 f8                	jne    10307c <qlz_decompress+0x3c>
  103084:	8a 13                	mov    (%ebx),%dl
  103086:	83 e2 02             	and    $0x2,%edx
  103089:	80 fa 01             	cmp    $0x1,%dl
  10308c:	19 d2                	sbb    %edx,%edx
  10308e:	83 e2 fa             	and    $0xfffffffa,%edx
  103091:	8d 5c 13 09          	lea    0x9(%ebx,%edx,1),%ebx
  103095:	89 5d d8             	mov    %ebx,-0x28(%ebp)
  103098:	8b 75 e4             	mov    -0x1c(%ebp),%esi
  10309b:	8d 74 37 ff          	lea    -0x1(%edi,%esi,1),%esi
  10309f:	89 75 dc             	mov    %esi,-0x24(%ebp)
  1030a2:	83 ee 0a             	sub    $0xa,%esi
  1030a5:	89 75 d4             	mov    %esi,-0x2c(%ebp)
  1030a8:	8d 57 ff             	lea    -0x1(%edi),%edx
  1030ab:	31 c9                	xor    %ecx,%ecx
  1030ad:	31 f6                	xor    %esi,%esi
  1030af:	89 55 d0             	mov    %edx,-0x30(%ebp)
  1030b2:	0f b6 13             	movzbl (%ebx),%edx
  1030b5:	d3 e2                	shl    %cl,%edx
  1030b7:	09 d6                	or     %edx,%esi
  1030b9:	43                   	inc    %ebx
  1030ba:	83 c1 08             	add    $0x8,%ecx
  1030bd:	83 f9 20             	cmp    $0x20,%ecx
  1030c0:	75 f0                	jne    1030b2 <qlz_decompress+0x72>
  1030c2:	8b 55 d0             	mov    -0x30(%ebp),%edx
  1030c5:	8b 4d d8             	mov    -0x28(%ebp),%ecx
  1030c8:	83 c1 04             	add    $0x4,%ecx
  1030cb:	f7 c6 01 00 00 00    	test   $0x1,%esi
  1030d1:	0f 85 2d 01 00 00    	jne    103204 <qlz_decompress+0x1c4>
  1030d7:	3b 7d d4             	cmp    -0x2c(%ebp),%edi
  1030da:	0f 82 24 01 00 00    	jb     103204 <qlz_decompress+0x1c4>
  1030e0:	8b 5d e4             	mov    -0x1c(%ebp),%ebx
  1030e3:	01 fb                	add    %edi,%ebx
  1030e5:	3b 7d dc             	cmp    -0x24(%ebp),%edi
  1030e8:	77 2c                	ja     103116 <qlz_decompress+0xd6>
  1030ea:	89 45 d8             	mov    %eax,-0x28(%ebp)
  1030ed:	eb 0d                	jmp    1030fc <qlz_decompress+0xbc>
  1030ef:	90                   	nop
  1030f0:	d1 ee                	shr    %esi
  1030f2:	8a 01                	mov    (%ecx),%al
  1030f4:	88 07                	mov    %al,(%edi)
  1030f6:	47                   	inc    %edi
  1030f7:	41                   	inc    %ecx
  1030f8:	39 df                	cmp    %ebx,%edi
  1030fa:	74 17                	je     103113 <qlz_decompress+0xd3>
  1030fc:	83 fe 01             	cmp    $0x1,%esi
  1030ff:	75 ef                	jne    1030f0 <qlz_decompress+0xb0>
  103101:	83 c1 04             	add    $0x4,%ecx
  103104:	be 00 00 00 40       	mov    $0x40000000,%esi
  103109:	8a 01                	mov    (%ecx),%al
  10310b:	88 07                	mov    %al,(%edi)
  10310d:	47                   	inc    %edi
  10310e:	41                   	inc    %ecx
  10310f:	39 df                	cmp    %ebx,%edi
  103111:	75 e9                	jne    1030fc <qlz_decompress+0xbc>
  103113:	8b 45 d8             	mov    -0x28(%ebp),%eax
  103116:	8b 7d dc             	mov    -0x24(%ebp),%edi
  103119:	83 ef 03             	sub    $0x3,%edi
  10311c:	39 fa                	cmp    %edi,%edx
  10311e:	0f 83 a3 00 00 00    	jae    1031c7 <qlz_decompress+0x187>
  103124:	8b 5d 10             	mov    0x10(%ebp),%ebx
  103127:	89 45 dc             	mov    %eax,-0x24(%ebp)
  10312a:	66 90                	xchg   %ax,%ax
  10312c:	42                   	inc    %edx
  10312d:	0f b6 4a 01          	movzbl 0x1(%edx),%ecx
  103131:	c1 e1 08             	shl    $0x8,%ecx
  103134:	0f b6 42 02          	movzbl 0x2(%edx),%eax
  103138:	c1 e0 10             	shl    $0x10,%eax
  10313b:	09 c1                	or     %eax,%ecx
  10313d:	0f b6 02             	movzbl (%edx),%eax
  103140:	09 c1                	or     %eax,%ecx
  103142:	89 c8                	mov    %ecx,%eax
  103144:	c1 e8 09             	shr    $0x9,%eax
  103147:	89 ce                	mov    %ecx,%esi
  103149:	c1 ee 0d             	shr    $0xd,%esi
  10314c:	31 f0                	xor    %esi,%eax
  10314e:	31 c8                	xor    %ecx,%eax
  103150:	25 ff 07 00 00       	and    $0x7ff,%eax
  103155:	8a 8c 03 00 80 00 00 	mov    0x8000(%ebx,%eax,1),%cl
  10315c:	89 ce                	mov    %ecx,%esi
  10315e:	83 e6 03             	and    $0x3,%esi
  103161:	8d 34 86             	lea    (%esi,%eax,4),%esi
  103164:	89 14 b3             	mov    %edx,(%ebx,%esi,4)
  103167:	41                   	inc    %ecx
  103168:	88 8c 03 00 80 00 00 	mov    %cl,0x8000(%ebx,%eax,1)
  10316f:	39 d7                	cmp    %edx,%edi
  103171:	75 b9                	jne    10312c <qlz_decompress+0xec>
  103173:	8b 45 dc             	mov    -0x24(%ebp),%eax
  103176:	eb 4f                	jmp    1031c7 <qlz_decompress+0x187>
  103178:	83 e0 02             	and    $0x2,%eax
  10317b:	3c 01                	cmp    $0x1,%al
  10317d:	19 c0                	sbb    %eax,%eax
  10317f:	83 e0 fa             	and    $0xfffffffa,%eax
  103182:	8d 74 03 09          	lea    0x9(%ebx,%eax,1),%esi
  103186:	85 ff                	test   %edi,%edi
  103188:	74 75                	je     1031ff <qlz_decompress+0x1bf>
  10318a:	85 f6                	test   %esi,%esi
  10318c:	74 71                	je     1031ff <qlz_decompress+0x1bf>
  10318e:	8b 5d e4             	mov    -0x1c(%ebp),%ebx
  103191:	8d 43 ff             	lea    -0x1(%ebx),%eax
  103194:	8d 14 1e             	lea    (%esi,%ebx,1),%edx
  103197:	39 d7                	cmp    %edx,%edi
  103199:	73 50                	jae    1031eb <qlz_decompress+0x1ab>
  10319b:	39 fe                	cmp    %edi,%esi
  10319d:	73 4c                	jae    1031eb <qlz_decompress+0x1ab>
  10319f:	8b 55 e4             	mov    -0x1c(%ebp),%edx
  1031a2:	85 d2                	test   %edx,%edx
  1031a4:	74 0e                	je     1031b4 <qlz_decompress+0x174>
  1031a6:	66 90                	xchg   %ax,%ax
  1031a8:	8a 1c 06             	mov    (%esi,%eax,1),%bl
  1031ab:	88 1c 07             	mov    %bl,(%edi,%eax,1)
  1031ae:	48                   	dec    %eax
  1031af:	83 f8 ff             	cmp    $0xffffffff,%eax
  1031b2:	75 f4                	jne    1031a8 <qlz_decompress+0x168>
  1031b4:	8b 45 10             	mov    0x10(%ebp),%eax
  1031b7:	05 00 80 00 00       	add    $0x8000,%eax
  1031bc:	89 45 e0             	mov    %eax,-0x20(%ebp)
  1031bf:	8b 45 10             	mov    0x10(%ebp),%eax
  1031c2:	05 00 88 00 00       	add    $0x8800,%eax
  1031c7:	8b 5d 10             	mov    0x10(%ebp),%ebx
  1031ca:	c7 83 00 88 00 00 00 	movl   $0x0,0x8800(%ebx)
  1031d1:	00 00 00 
  1031d4:	8b 55 e0             	mov    -0x20(%ebp),%edx
  1031d7:	90                   	nop
  1031d8:	c6 02 00             	movb   $0x0,(%edx)
  1031db:	42                   	inc    %edx
  1031dc:	39 d0                	cmp    %edx,%eax
  1031de:	75 f8                	jne    1031d8 <qlz_decompress+0x198>
  1031e0:	8b 45 e4             	mov    -0x1c(%ebp),%eax
  1031e3:	8d 65 f4             	lea    -0xc(%ebp),%esp
  1031e6:	5b                   	pop    %ebx
  1031e7:	5e                   	pop    %esi
  1031e8:	5f                   	pop    %edi
  1031e9:	5d                   	pop    %ebp
  1031ea:	c3                   	ret    
  1031eb:	8b 5d e4             	mov    -0x1c(%ebp),%ebx
  1031ee:	8d 04 1f             	lea    (%edi,%ebx,1),%eax
  1031f1:	85 db                	test   %ebx,%ebx
  1031f3:	74 bf                	je     1031b4 <qlz_decompress+0x174>
  1031f5:	8d 76 00             	lea    0x0(%esi),%esi
  1031f8:	a4                   	movsb  %ds:(%esi),%es:(%edi)
  1031f9:	39 c7                	cmp    %eax,%edi
  1031fb:	75 fb                	jne    1031f8 <qlz_decompress+0x1b8>
  1031fd:	eb b5                	jmp    1031b4 <qlz_decompress+0x174>
  1031ff:	e8 cc f7 ff ff       	call   1029d0 <bench_memcpy.part.1>
  103204:	e8 eb f7 ff ff       	call   1029f4 <memcpy_up.isra.2>
  103209:	66 90                	xchg   %ax,%ax
  10320b:	90                   	nop

0010320c <bench_dinic_prepare>:
  10320c:	55                   	push   %ebp
  10320d:	89 e5                	mov    %esp,%ebp
  10320f:	57                   	push   %edi
  103210:	56                   	push   %esi
  103211:	53                   	push   %ebx
  103212:	83 ec 48             	sub    $0x48,%esp
  103215:	a1 88 49 10 00       	mov    0x104988,%eax
  10321a:	8b 00                	mov    (%eax),%eax
  10321c:	a3 80 49 10 00       	mov    %eax,0x104980
  103221:	6a 01                	push   $0x1
  103223:	e8 8c f1 ff ff       	call   1023b4 <bench_srand>
  103228:	a1 80 49 10 00       	mov    0x104980,%eax
  10322d:	01 c0                	add    %eax,%eax
  10322f:	89 45 c4             	mov    %eax,-0x3c(%ebp)
  103232:	40                   	inc    %eax
  103233:	89 45 c8             	mov    %eax,-0x38(%ebp)
  103236:	c7 04 24 2c 00 00 00 	movl   $0x2c,(%esp)
  10323d:	e8 ea f0 ff ff       	call   10232c <bench_alloc>
  103242:	89 c6                	mov    %eax,%esi
  103244:	a3 7c 49 10 00       	mov    %eax,0x10497c
  103249:	a1 80 49 10 00       	mov    0x104980,%eax
  10324e:	8d 7c 00 02          	lea    0x2(%eax,%eax,1),%edi
  103252:	8d 4f fe             	lea    -0x2(%edi),%ecx
  103255:	89 c8                	mov    %ecx,%eax
  103257:	c1 e8 1f             	shr    $0x1f,%eax
  10325a:	01 c8                	add    %ecx,%eax
  10325c:	d1 f8                	sar    %eax
  10325e:	89 c1                	mov    %eax,%ecx
  103260:	0f af c8             	imul   %eax,%ecx
  103263:	01 c0                	add    %eax,%eax
  103265:	01 c8                	add    %ecx,%eax
  103267:	01 c0                	add    %eax,%eax
  103269:	89 45 e4             	mov    %eax,-0x1c(%ebp)
  10326c:	c1 e0 04             	shl    $0x4,%eax
  10326f:	89 04 24             	mov    %eax,(%esp)
  103272:	e8 b5 f0 ff ff       	call   10232c <bench_alloc>
  103277:	89 46 10             	mov    %eax,0x10(%esi)
  10327a:	8d 1c bd 00 00 00 00 	lea    0x0(,%edi,4),%ebx
  103281:	89 1c 24             	mov    %ebx,(%esp)
  103284:	e8 a3 f0 ff ff       	call   10232c <bench_alloc>
  103289:	89 46 14             	mov    %eax,0x14(%esi)
  10328c:	8b 45 e4             	mov    -0x1c(%ebp),%eax
  10328f:	c1 e0 02             	shl    $0x2,%eax
  103292:	89 04 24             	mov    %eax,(%esp)
  103295:	e8 92 f0 ff ff       	call   10232c <bench_alloc>
  10329a:	89 46 18             	mov    %eax,0x18(%esi)
  10329d:	89 3c 24             	mov    %edi,(%esp)
  1032a0:	e8 87 f0 ff ff       	call   10232c <bench_alloc>
  1032a5:	89 46 28             	mov    %eax,0x28(%esi)
  1032a8:	89 1c 24             	mov    %ebx,(%esp)
  1032ab:	e8 7c f0 ff ff       	call   10232c <bench_alloc>
  1032b0:	89 46 1c             	mov    %eax,0x1c(%esi)
  1032b3:	89 1c 24             	mov    %ebx,(%esp)
  1032b6:	e8 71 f0 ff ff       	call   10232c <bench_alloc>
  1032bb:	89 46 20             	mov    %eax,0x20(%esi)
  1032be:	89 1c 24             	mov    %ebx,(%esp)
  1032c1:	e8 66 f0 ff ff       	call   10232c <bench_alloc>
  1032c6:	89 46 24             	mov    %eax,0x24(%esi)
  1032c9:	89 3e                	mov    %edi,(%esi)
  1032cb:	83 c4 10             	add    $0x10,%esp
  1032ce:	85 ff                	test   %edi,%edi
  1032d0:	7e 13                	jle    1032e5 <bench_dinic_prepare+0xd9>
  1032d2:	8b 46 14             	mov    0x14(%esi),%eax
  1032d5:	01 c3                	add    %eax,%ebx
  1032d7:	90                   	nop
  1032d8:	c7 00 ff ff ff ff    	movl   $0xffffffff,(%eax)
  1032de:	83 c0 04             	add    $0x4,%eax
  1032e1:	39 d8                	cmp    %ebx,%eax
  1032e3:	75 f3                	jne    1032d8 <bench_dinic_prepare+0xcc>
  1032e5:	c7 46 04 00 00 00 00 	movl   $0x0,0x4(%esi)
  1032ec:	8b 15 80 49 10 00    	mov    0x104980,%edx
  1032f2:	85 d2                	test   %edx,%edx
  1032f4:	0f 8e 43 02 00 00    	jle    10353d <bench_dinic_prepare+0x331>
  1032fa:	c7 45 d8 00 00 00 00 	movl   $0x0,-0x28(%ebp)
  103301:	8d 76 00             	lea    0x0(%esi),%esi
  103304:	8b 45 d8             	mov    -0x28(%ebp),%eax
  103307:	c1 e0 02             	shl    $0x2,%eax
  10330a:	89 45 cc             	mov    %eax,-0x34(%ebp)
  10330d:	c7 45 e4 00 00 00 00 	movl   $0x0,-0x1c(%ebp)
  103314:	8b 1d 7c 49 10 00    	mov    0x10497c,%ebx
  10331a:	e8 a9 f0 ff ff       	call   1023c8 <bench_rand>
  10331f:	bf 0a 00 00 00       	mov    $0xa,%edi
  103324:	31 d2                	xor    %edx,%edx
  103326:	f7 f7                	div    %edi
  103328:	a1 80 49 10 00       	mov    0x104980,%eax
  10332d:	89 45 e0             	mov    %eax,-0x20(%ebp)
  103330:	85 d2                	test   %edx,%edx
  103332:	0f 84 88 00 00 00    	je     1033c0 <bench_dinic_prepare+0x1b4>
  103338:	8b 7d e4             	mov    -0x1c(%ebp),%edi
  10333b:	01 c7                	add    %eax,%edi
  10333d:	8b 4b 10             	mov    0x10(%ebx),%ecx
  103340:	8b 73 04             	mov    0x4(%ebx),%esi
  103343:	89 f0                	mov    %esi,%eax
  103345:	c1 e0 04             	shl    $0x4,%eax
  103348:	89 4d d4             	mov    %ecx,-0x2c(%ebp)
  10334b:	01 c8                	add    %ecx,%eax
  10334d:	8b 4d d8             	mov    -0x28(%ebp),%ecx
  103350:	89 08                	mov    %ecx,(%eax)
  103352:	89 78 04             	mov    %edi,0x4(%eax)
  103355:	89 50 08             	mov    %edx,0x8(%eax)
  103358:	c7 40 0c 00 00 00 00 	movl   $0x0,0xc(%eax)
  10335f:	8b 43 14             	mov    0x14(%ebx),%eax
  103362:	89 45 dc             	mov    %eax,-0x24(%ebp)
  103365:	8b 45 cc             	mov    -0x34(%ebp),%eax
  103368:	8b 55 dc             	mov    -0x24(%ebp),%edx
  10336b:	8d 0c 02             	lea    (%edx,%eax,1),%ecx
  10336e:	8b 43 18             	mov    0x18(%ebx),%eax
  103371:	89 c2                	mov    %eax,%edx
  103373:	8b 01                	mov    (%ecx),%eax
  103375:	89 55 d0             	mov    %edx,-0x30(%ebp)
  103378:	89 04 b2             	mov    %eax,(%edx,%esi,4)
  10337b:	8b 73 04             	mov    0x4(%ebx),%esi
  10337e:	8d 46 01             	lea    0x1(%esi),%eax
  103381:	89 43 04             	mov    %eax,0x4(%ebx)
  103384:	89 31                	mov    %esi,(%ecx)
  103386:	8b 4b 04             	mov    0x4(%ebx),%ecx
  103389:	89 ce                	mov    %ecx,%esi
  10338b:	c1 e6 04             	shl    $0x4,%esi
  10338e:	03 75 d4             	add    -0x2c(%ebp),%esi
  103391:	89 3e                	mov    %edi,(%esi)
  103393:	8b 45 d8             	mov    -0x28(%ebp),%eax
  103396:	89 46 04             	mov    %eax,0x4(%esi)
  103399:	c7 46 08 00 00 00 00 	movl   $0x0,0x8(%esi)
  1033a0:	c7 46 0c 00 00 00 00 	movl   $0x0,0xc(%esi)
  1033a7:	8b 45 dc             	mov    -0x24(%ebp),%eax
  1033aa:	8d 14 b8             	lea    (%eax,%edi,4),%edx
  1033ad:	8b 32                	mov    (%edx),%esi
  1033af:	8b 45 d0             	mov    -0x30(%ebp),%eax
  1033b2:	89 34 88             	mov    %esi,(%eax,%ecx,4)
  1033b5:	8b 43 04             	mov    0x4(%ebx),%eax
  1033b8:	8d 48 01             	lea    0x1(%eax),%ecx
  1033bb:	89 4b 04             	mov    %ecx,0x4(%ebx)
  1033be:	89 02                	mov    %eax,(%edx)
  1033c0:	ff 45 e4             	incl   -0x1c(%ebp)
  1033c3:	8b 45 e4             	mov    -0x1c(%ebp),%eax
  1033c6:	39 45 e0             	cmp    %eax,-0x20(%ebp)
  1033c9:	0f 8f 45 ff ff ff    	jg     103314 <bench_dinic_prepare+0x108>
  1033cf:	ff 45 d8             	incl   -0x28(%ebp)
  1033d2:	8b 45 d8             	mov    -0x28(%ebp),%eax
  1033d5:	39 45 e0             	cmp    %eax,-0x20(%ebp)
  1033d8:	0f 8f 26 ff ff ff    	jg     103304 <bench_dinic_prepare+0xf8>
  1033de:	8b 45 e0             	mov    -0x20(%ebp),%eax
  1033e1:	85 c0                	test   %eax,%eax
  1033e3:	0f 8e 54 01 00 00    	jle    10353d <bench_dinic_prepare+0x331>
  1033e9:	8b 45 c4             	mov    -0x3c(%ebp),%eax
  1033ec:	c1 e0 02             	shl    $0x2,%eax
  1033ef:	89 45 d4             	mov    %eax,-0x2c(%ebp)
  1033f2:	8b 45 c8             	mov    -0x38(%ebp),%eax
  1033f5:	c1 e0 02             	shl    $0x2,%eax
  1033f8:	89 45 d0             	mov    %eax,-0x30(%ebp)
  1033fb:	31 ff                	xor    %edi,%edi
  1033fd:	89 7d e4             	mov    %edi,-0x1c(%ebp)
  103400:	8b 1d 7c 49 10 00    	mov    0x10497c,%ebx
  103406:	e8 bd ef ff ff       	call   1023c8 <bench_rand>
  10340b:	b9 e8 03 00 00       	mov    $0x3e8,%ecx
  103410:	31 d2                	xor    %edx,%edx
  103412:	f7 f1                	div    %ecx
  103414:	85 d2                	test   %edx,%edx
  103416:	74 7b                	je     103493 <bench_dinic_prepare+0x287>
  103418:	8b 4b 10             	mov    0x10(%ebx),%ecx
  10341b:	8b 73 04             	mov    0x4(%ebx),%esi
  10341e:	89 f0                	mov    %esi,%eax
  103420:	c1 e0 04             	shl    $0x4,%eax
  103423:	89 4d e0             	mov    %ecx,-0x20(%ebp)
  103426:	01 c8                	add    %ecx,%eax
  103428:	8b 4d c4             	mov    -0x3c(%ebp),%ecx
  10342b:	89 08                	mov    %ecx,(%eax)
  10342d:	8b 7d e4             	mov    -0x1c(%ebp),%edi
  103430:	89 78 04             	mov    %edi,0x4(%eax)
  103433:	89 50 08             	mov    %edx,0x8(%eax)
  103436:	c7 40 0c 00 00 00 00 	movl   $0x0,0xc(%eax)
  10343d:	8b 53 14             	mov    0x14(%ebx),%edx
  103440:	8b 45 d4             	mov    -0x2c(%ebp),%eax
  103443:	8d 0c 02             	lea    (%edx,%eax,1),%ecx
  103446:	8b 43 18             	mov    0x18(%ebx),%eax
  103449:	8b 39                	mov    (%ecx),%edi
  10344b:	89 3c b0             	mov    %edi,(%eax,%esi,4)
  10344e:	8b 73 04             	mov    0x4(%ebx),%esi
  103451:	8d 7e 01             	lea    0x1(%esi),%edi
  103454:	89 7b 04             	mov    %edi,0x4(%ebx)
  103457:	89 31                	mov    %esi,(%ecx)
  103459:	8b 4b 04             	mov    0x4(%ebx),%ecx
  10345c:	89 ce                	mov    %ecx,%esi
  10345e:	c1 e6 04             	shl    $0x4,%esi
  103461:	03 75 e0             	add    -0x20(%ebp),%esi
  103464:	8b 7d e4             	mov    -0x1c(%ebp),%edi
  103467:	89 3e                	mov    %edi,(%esi)
  103469:	8b 7d c4             	mov    -0x3c(%ebp),%edi
  10346c:	89 7e 04             	mov    %edi,0x4(%esi)
  10346f:	c7 46 08 00 00 00 00 	movl   $0x0,0x8(%esi)
  103476:	c7 46 0c 00 00 00 00 	movl   $0x0,0xc(%esi)
  10347d:	8b 7d e4             	mov    -0x1c(%ebp),%edi
  103480:	8d 14 ba             	lea    (%edx,%edi,4),%edx
  103483:	8b 32                	mov    (%edx),%esi
  103485:	89 34 88             	mov    %esi,(%eax,%ecx,4)
  103488:	8b 43 04             	mov    0x4(%ebx),%eax
  10348b:	8d 48 01             	lea    0x1(%eax),%ecx
  10348e:	89 4b 04             	mov    %ecx,0x4(%ebx)
  103491:	89 02                	mov    %eax,(%edx)
  103493:	8b 1d 7c 49 10 00    	mov    0x10497c,%ebx
  103499:	e8 2a ef ff ff       	call   1023c8 <bench_rand>
  10349e:	b9 e8 03 00 00       	mov    $0x3e8,%ecx
  1034a3:	31 d2                	xor    %edx,%edx
  1034a5:	f7 f1                	div    %ecx
  1034a7:	a1 80 49 10 00       	mov    0x104980,%eax
  1034ac:	89 45 e0             	mov    %eax,-0x20(%ebp)
  1034af:	85 d2                	test   %edx,%edx
  1034b1:	74 7b                	je     10352e <bench_dinic_prepare+0x322>
  1034b3:	8b 7d e4             	mov    -0x1c(%ebp),%edi
  1034b6:	8d 0c 38             	lea    (%eax,%edi,1),%ecx
  1034b9:	8b 7b 10             	mov    0x10(%ebx),%edi
  1034bc:	8b 73 04             	mov    0x4(%ebx),%esi
  1034bf:	89 f0                	mov    %esi,%eax
  1034c1:	c1 e0 04             	shl    $0x4,%eax
  1034c4:	89 7d dc             	mov    %edi,-0x24(%ebp)
  1034c7:	01 f8                	add    %edi,%eax
  1034c9:	89 08                	mov    %ecx,(%eax)
  1034cb:	8b 7d c8             	mov    -0x38(%ebp),%edi
  1034ce:	89 78 04             	mov    %edi,0x4(%eax)
  1034d1:	89 50 08             	mov    %edx,0x8(%eax)
  1034d4:	c7 40 0c 00 00 00 00 	movl   $0x0,0xc(%eax)
  1034db:	8b 43 14             	mov    0x14(%ebx),%eax
  1034de:	89 45 d8             	mov    %eax,-0x28(%ebp)
  1034e1:	8d 14 88             	lea    (%eax,%ecx,4),%edx
  1034e4:	8b 43 18             	mov    0x18(%ebx),%eax
  1034e7:	8b 3a                	mov    (%edx),%edi
  1034e9:	89 3c b0             	mov    %edi,(%eax,%esi,4)
  1034ec:	8b 73 04             	mov    0x4(%ebx),%esi
  1034ef:	8d 7e 01             	lea    0x1(%esi),%edi
  1034f2:	89 7b 04             	mov    %edi,0x4(%ebx)
  1034f5:	89 32                	mov    %esi,(%edx)
  1034f7:	8b 53 04             	mov    0x4(%ebx),%edx
  1034fa:	89 d6                	mov    %edx,%esi
  1034fc:	c1 e6 04             	shl    $0x4,%esi
  1034ff:	03 75 dc             	add    -0x24(%ebp),%esi
  103502:	8b 7d c8             	mov    -0x38(%ebp),%edi
  103505:	89 3e                	mov    %edi,(%esi)
  103507:	89 4e 04             	mov    %ecx,0x4(%esi)
  10350a:	c7 46 08 00 00 00 00 	movl   $0x0,0x8(%esi)
  103511:	c7 46 0c 00 00 00 00 	movl   $0x0,0xc(%esi)
  103518:	8b 4d d8             	mov    -0x28(%ebp),%ecx
  10351b:	03 4d d0             	add    -0x30(%ebp),%ecx
  10351e:	8b 31                	mov    (%ecx),%esi
  103520:	89 34 90             	mov    %esi,(%eax,%edx,4)
  103523:	8b 43 04             	mov    0x4(%ebx),%eax
  103526:	8d 50 01             	lea    0x1(%eax),%edx
  103529:	89 53 04             	mov    %edx,0x4(%ebx)
  10352c:	89 01                	mov    %eax,(%ecx)
  10352e:	ff 45 e4             	incl   -0x1c(%ebp)
  103531:	8b 45 e4             	mov    -0x1c(%ebp),%eax
  103534:	39 45 e0             	cmp    %eax,-0x20(%ebp)
  103537:	0f 8f c3 fe ff ff    	jg     103400 <bench_dinic_prepare+0x1f4>
  10353d:	8d 65 f4             	lea    -0xc(%ebp),%esp
  103540:	5b                   	pop    %ebx
  103541:	5e                   	pop    %esi
  103542:	5f                   	pop    %edi
  103543:	5d                   	pop    %ebp
  103544:	c3                   	ret    
  103545:	8d 76 00             	lea    0x0(%esi),%esi

00103548 <bench_dinic_run>:
  103548:	55                   	push   %ebp
  103549:	89 e5                	mov    %esp,%ebp
  10354b:	57                   	push   %edi
  10354c:	56                   	push   %esi
  10354d:	53                   	push   %ebx
  10354e:	83 ec 4c             	sub    $0x4c,%esp
  103551:	8b 3d 7c 49 10 00    	mov    0x10497c,%edi
  103557:	a1 80 49 10 00       	mov    0x104980,%eax
  10355c:	8d 0c 00             	lea    (%eax,%eax,1),%ecx
  10355f:	89 4d bc             	mov    %ecx,-0x44(%ebp)
  103562:	89 4f 08             	mov    %ecx,0x8(%edi)
  103565:	8d 41 01             	lea    0x1(%ecx),%eax
  103568:	89 47 0c             	mov    %eax,0xc(%edi)
  10356b:	8d 04 8d 00 00 00 00 	lea    0x0(,%ecx,4),%eax
  103572:	89 45 d0             	mov    %eax,-0x30(%ebp)
  103575:	8b 47 28             	mov    0x28(%edi),%eax
  103578:	89 45 e4             	mov    %eax,-0x1c(%ebp)
  10357b:	8b 5f 24             	mov    0x24(%edi),%ebx
  10357e:	8b 77 1c             	mov    0x1c(%edi),%esi
  103581:	8b 47 14             	mov    0x14(%edi),%eax
  103584:	89 45 dc             	mov    %eax,-0x24(%ebp)
  103587:	c7 45 e0 00 00 00 00 	movl   $0x0,-0x20(%ebp)
  10358e:	66 90                	xchg   %ax,%ax
  103590:	8b 07                	mov    (%edi),%eax
  103592:	85 c0                	test   %eax,%eax
  103594:	7e 0e                	jle    1035a4 <bench_dinic_run+0x5c>
  103596:	8b 55 e4             	mov    -0x1c(%ebp),%edx
  103599:	01 d0                	add    %edx,%eax
  10359b:	90                   	nop
  10359c:	c6 02 00             	movb   $0x0,(%edx)
  10359f:	42                   	inc    %edx
  1035a0:	39 d0                	cmp    %edx,%eax
  1035a2:	75 f8                	jne    10359c <bench_dinic_run+0x54>
  1035a4:	89 0b                	mov    %ecx,(%ebx)
  1035a6:	8b 47 08             	mov    0x8(%edi),%eax
  1035a9:	c7 04 86 00 00 00 00 	movl   $0x0,(%esi,%eax,4)
  1035b0:	8b 47 08             	mov    0x8(%edi),%eax
  1035b3:	8b 55 e4             	mov    -0x1c(%ebp),%edx
  1035b6:	c6 04 02 01          	movb   $0x1,(%edx,%eax,1)
  1035ba:	c7 45 d4 01 00 00 00 	movl   $0x1,-0x2c(%ebp)
  1035c1:	31 c9                	xor    %ecx,%ecx
  1035c3:	90                   	nop
  1035c4:	41                   	inc    %ecx
  1035c5:	8b 44 8b fc          	mov    -0x4(%ebx,%ecx,4),%eax
  1035c9:	c1 e0 02             	shl    $0x2,%eax
  1035cc:	89 45 cc             	mov    %eax,-0x34(%ebp)
  1035cf:	8b 55 dc             	mov    -0x24(%ebp),%edx
  1035d2:	8b 04 02             	mov    (%edx,%eax,1),%eax
  1035d5:	89 45 d8             	mov    %eax,-0x28(%ebp)
  1035d8:	40                   	inc    %eax
  1035d9:	74 6a                	je     103645 <bench_dinic_run+0xfd>
  1035db:	8b 47 10             	mov    0x10(%edi),%eax
  1035de:	89 45 c8             	mov    %eax,-0x38(%ebp)
  1035e1:	8b 47 18             	mov    0x18(%edi),%eax
  1035e4:	89 45 c0             	mov    %eax,-0x40(%ebp)
  1035e7:	89 4d b4             	mov    %ecx,-0x4c(%ebp)
  1035ea:	66 90                	xchg   %ax,%ax
  1035ec:	8b 45 d8             	mov    -0x28(%ebp),%eax
  1035ef:	c1 e0 04             	shl    $0x4,%eax
  1035f2:	03 45 c8             	add    -0x38(%ebp),%eax
  1035f5:	8b 50 04             	mov    0x4(%eax),%edx
  1035f8:	8b 4d e4             	mov    -0x1c(%ebp),%ecx
  1035fb:	89 55 c4             	mov    %edx,-0x3c(%ebp)
  1035fe:	01 d1                	add    %edx,%ecx
  103600:	89 ca                	mov    %ecx,%edx
  103602:	80 39 00             	cmpb   $0x0,(%ecx)
  103605:	75 2c                	jne    103633 <bench_dinic_run+0xeb>
  103607:	8b 48 0c             	mov    0xc(%eax),%ecx
  10360a:	39 48 08             	cmp    %ecx,0x8(%eax)
  10360d:	7e 24                	jle    103633 <bench_dinic_run+0xeb>
  10360f:	c6 02 01             	movb   $0x1,(%edx)
  103612:	8b 4d cc             	mov    -0x34(%ebp),%ecx
  103615:	8b 0c 0e             	mov    (%esi,%ecx,1),%ecx
  103618:	89 4d b8             	mov    %ecx,-0x48(%ebp)
  10361b:	8d 51 01             	lea    0x1(%ecx),%edx
  10361e:	8b 4d c4             	mov    -0x3c(%ebp),%ecx
  103621:	89 14 8e             	mov    %edx,(%esi,%ecx,4)
  103624:	8b 40 04             	mov    0x4(%eax),%eax
  103627:	8b 55 d4             	mov    -0x2c(%ebp),%edx
  10362a:	89 04 93             	mov    %eax,(%ebx,%edx,4)
  10362d:	8d 42 01             	lea    0x1(%edx),%eax
  103630:	89 45 d4             	mov    %eax,-0x2c(%ebp)
  103633:	8b 45 c0             	mov    -0x40(%ebp),%eax
  103636:	8b 55 d8             	mov    -0x28(%ebp),%edx
  103639:	8b 04 90             	mov    (%eax,%edx,4),%eax
  10363c:	89 45 d8             	mov    %eax,-0x28(%ebp)
  10363f:	40                   	inc    %eax
  103640:	75 aa                	jne    1035ec <bench_dinic_run+0xa4>
  103642:	8b 4d b4             	mov    -0x4c(%ebp),%ecx
  103645:	3b 4d d4             	cmp    -0x2c(%ebp),%ecx
  103648:	0f 85 76 ff ff ff    	jne    1035c4 <bench_dinic_run+0x7c>
  10364e:	8b 47 0c             	mov    0xc(%edi),%eax
  103651:	8b 55 e4             	mov    -0x1c(%ebp),%edx
  103654:	80 3c 02 00          	cmpb   $0x0,(%edx,%eax,1)
  103658:	0f 84 de 00 00 00    	je     10373c <bench_dinic_run+0x1f4>
  10365e:	8b 17                	mov    (%edi),%edx
  103660:	85 d2                	test   %edx,%edx
  103662:	7e 1d                	jle    103681 <bench_dinic_run+0x139>
  103664:	8b 57 20             	mov    0x20(%edi),%edx
  103667:	31 c0                	xor    %eax,%eax
  103669:	89 5d d8             	mov    %ebx,-0x28(%ebp)
  10366c:	8b 4d dc             	mov    -0x24(%ebp),%ecx
  10366f:	90                   	nop
  103670:	8b 1c 81             	mov    (%ecx,%eax,4),%ebx
  103673:	89 1c 82             	mov    %ebx,(%edx,%eax,4)
  103676:	40                   	inc    %eax
  103677:	39 07                	cmp    %eax,(%edi)
  103679:	7f f5                	jg     103670 <bench_dinic_run+0x128>
  10367b:	8b 5d d8             	mov    -0x28(%ebp),%ebx
  10367e:	8b 47 0c             	mov    0xc(%edi),%eax
  103681:	39 45 bc             	cmp    %eax,-0x44(%ebp)
  103684:	0f 84 c2 00 00 00    	je     10374c <bench_dinic_run+0x204>
  10368a:	8b 47 20             	mov    0x20(%edi),%eax
  10368d:	8b 55 d0             	mov    -0x30(%ebp),%edx
  103690:	8b 0c 10             	mov    (%eax,%edx,1),%ecx
  103693:	83 f9 ff             	cmp    $0xffffffff,%ecx
  103696:	0f 84 8d 00 00 00    	je     103729 <bench_dinic_run+0x1e1>
  10369c:	c7 45 e4 00 00 00 00 	movl   $0x0,-0x1c(%ebp)
  1036a3:	c7 45 dc 3f 3f 3f 00 	movl   $0x3f3f3f,-0x24(%ebp)
  1036aa:	eb 0b                	jmp    1036b7 <bench_dinic_run+0x16f>
  1036ac:	8b 47 18             	mov    0x18(%edi),%eax
  1036af:	8b 0c 88             	mov    (%eax,%ecx,4),%ecx
  1036b2:	83 f9 ff             	cmp    $0xffffffff,%ecx
  1036b5:	74 5d                	je     103714 <bench_dinic_run+0x1cc>
  1036b7:	89 cb                	mov    %ecx,%ebx
  1036b9:	c1 e3 04             	shl    $0x4,%ebx
  1036bc:	03 5f 10             	add    0x10(%edi),%ebx
  1036bf:	8b 53 04             	mov    0x4(%ebx),%edx
  1036c2:	8b 45 d0             	mov    -0x30(%ebp),%eax
  1036c5:	8b 04 06             	mov    (%esi,%eax,1),%eax
  1036c8:	89 45 d8             	mov    %eax,-0x28(%ebp)
  1036cb:	40                   	inc    %eax
  1036cc:	3b 04 96             	cmp    (%esi,%edx,4),%eax
  1036cf:	75 db                	jne    1036ac <bench_dinic_run+0x164>
  1036d1:	50                   	push   %eax
  1036d2:	8b 43 08             	mov    0x8(%ebx),%eax
  1036d5:	2b 43 0c             	sub    0xc(%ebx),%eax
  1036d8:	8b 75 dc             	mov    -0x24(%ebp),%esi
  1036db:	39 f0                	cmp    %esi,%eax
  1036dd:	7e 02                	jle    1036e1 <bench_dinic_run+0x199>
  1036df:	89 f0                	mov    %esi,%eax
  1036e1:	89 4d d8             	mov    %ecx,-0x28(%ebp)
  1036e4:	50                   	push   %eax
  1036e5:	52                   	push   %edx
  1036e6:	57                   	push   %edi
  1036e7:	e8 84 00 00 00       	call   103770 <_ZN5Dinic3DFSEii>
  1036ec:	83 c4 10             	add    $0x10,%esp
  1036ef:	85 c0                	test   %eax,%eax
  1036f1:	8b 4d d8             	mov    -0x28(%ebp),%ecx
  1036f4:	7e 3e                	jle    103734 <bench_dinic_run+0x1ec>
  1036f6:	01 43 0c             	add    %eax,0xc(%ebx)
  1036f9:	89 ca                	mov    %ecx,%edx
  1036fb:	83 f2 01             	xor    $0x1,%edx
  1036fe:	c1 e2 04             	shl    $0x4,%edx
  103701:	03 57 10             	add    0x10(%edi),%edx
  103704:	29 42 0c             	sub    %eax,0xc(%edx)
  103707:	01 45 e4             	add    %eax,-0x1c(%ebp)
  10370a:	8b 77 1c             	mov    0x1c(%edi),%esi
  10370d:	29 45 dc             	sub    %eax,-0x24(%ebp)
  103710:	75 9a                	jne    1036ac <bench_dinic_run+0x164>
  103712:	66 90                	xchg   %ax,%ax
  103714:	8b 5d e4             	mov    -0x1c(%ebp),%ebx
  103717:	01 5d e0             	add    %ebx,-0x20(%ebp)
  10371a:	8b 47 28             	mov    0x28(%edi),%eax
  10371d:	89 45 e4             	mov    %eax,-0x1c(%ebp)
  103720:	8b 5f 24             	mov    0x24(%edi),%ebx
  103723:	8b 47 14             	mov    0x14(%edi),%eax
  103726:	89 45 dc             	mov    %eax,-0x24(%ebp)
  103729:	8b 4f 08             	mov    0x8(%edi),%ecx
  10372c:	e9 5f fe ff ff       	jmp    103590 <bench_dinic_run+0x48>
  103731:	8d 76 00             	lea    0x0(%esi),%esi
  103734:	8b 77 1c             	mov    0x1c(%edi),%esi
  103737:	e9 70 ff ff ff       	jmp    1036ac <bench_dinic_run+0x164>
  10373c:	8b 45 e0             	mov    -0x20(%ebp),%eax
  10373f:	a3 78 49 10 00       	mov    %eax,0x104978
  103744:	8d 65 f4             	lea    -0xc(%ebp),%esp
  103747:	5b                   	pop    %ebx
  103748:	5e                   	pop    %esi
  103749:	5f                   	pop    %edi
  10374a:	5d                   	pop    %ebp
  10374b:	c3                   	ret    
  10374c:	81 45 e0 3f 3f 3f 00 	addl   $0x3f3f3f,-0x20(%ebp)
  103753:	eb d4                	jmp    103729 <bench_dinic_run+0x1e1>
  103755:	8d 76 00             	lea    0x0(%esi),%esi

00103758 <bench_dinic_validate>:
  103758:	a1 88 49 10 00       	mov    0x104988,%eax
  10375d:	8b 15 78 49 10 00    	mov    0x104978,%edx
  103763:	39 50 0c             	cmp    %edx,0xc(%eax)
  103766:	0f 94 c0             	sete   %al
  103769:	0f b6 c0             	movzbl %al,%eax
  10376c:	c3                   	ret    
  10376d:	66 90                	xchg   %ax,%ax
  10376f:	90                   	nop

00103770 <_ZN5Dinic3DFSEii>:
  103770:	55                   	push   %ebp
  103771:	89 e5                	mov    %esp,%ebp
  103773:	57                   	push   %edi
  103774:	56                   	push   %esi
  103775:	53                   	push   %ebx
  103776:	83 ec 1c             	sub    $0x1c,%esp
  103779:	8b 7d 08             	mov    0x8(%ebp),%edi
  10377c:	8b 45 0c             	mov    0xc(%ebp),%eax
  10377f:	39 47 0c             	cmp    %eax,0xc(%edi)
  103782:	0f 84 a8 00 00 00    	je     103830 <_ZN5Dinic3DFSEii+0xc0>
  103788:	8b 55 10             	mov    0x10(%ebp),%edx
  10378b:	85 d2                	test   %edx,%edx
  10378d:	0f 84 89 00 00 00    	je     10381c <_ZN5Dinic3DFSEii+0xac>
  103793:	c1 e0 02             	shl    $0x2,%eax
  103796:	89 c1                	mov    %eax,%ecx
  103798:	89 45 e0             	mov    %eax,-0x20(%ebp)
  10379b:	8b 47 20             	mov    0x20(%edi),%eax
  10379e:	8b 34 08             	mov    (%eax,%ecx,1),%esi
  1037a1:	c7 45 dc 00 00 00 00 	movl   $0x0,-0x24(%ebp)
  1037a8:	83 fe ff             	cmp    $0xffffffff,%esi
  1037ab:	75 4e                	jne    1037fb <_ZN5Dinic3DFSEii+0x8b>
  1037ad:	8b 45 dc             	mov    -0x24(%ebp),%eax
  1037b0:	8d 65 f4             	lea    -0xc(%ebp),%esp
  1037b3:	5b                   	pop    %ebx
  1037b4:	5e                   	pop    %esi
  1037b5:	5f                   	pop    %edi
  1037b6:	5d                   	pop    %ebp
  1037b7:	c3                   	ret    
  1037b8:	50                   	push   %eax
  1037b9:	8b 43 08             	mov    0x8(%ebx),%eax
  1037bc:	2b 43 0c             	sub    0xc(%ebx),%eax
  1037bf:	3b 45 10             	cmp    0x10(%ebp),%eax
  1037c2:	7e 03                	jle    1037c7 <_ZN5Dinic3DFSEii+0x57>
  1037c4:	8b 45 10             	mov    0x10(%ebp),%eax
  1037c7:	50                   	push   %eax
  1037c8:	51                   	push   %ecx
  1037c9:	57                   	push   %edi
  1037ca:	e8 a1 ff ff ff       	call   103770 <_ZN5Dinic3DFSEii>
  1037cf:	83 c4 10             	add    $0x10,%esp
  1037d2:	85 c0                	test   %eax,%eax
  1037d4:	7e 1a                	jle    1037f0 <_ZN5Dinic3DFSEii+0x80>
  1037d6:	01 43 0c             	add    %eax,0xc(%ebx)
  1037d9:	89 f2                	mov    %esi,%edx
  1037db:	83 f2 01             	xor    $0x1,%edx
  1037de:	c1 e2 04             	shl    $0x4,%edx
  1037e1:	03 57 10             	add    0x10(%edi),%edx
  1037e4:	29 42 0c             	sub    %eax,0xc(%edx)
  1037e7:	01 45 dc             	add    %eax,-0x24(%ebp)
  1037ea:	29 45 10             	sub    %eax,0x10(%ebp)
  1037ed:	74 be                	je     1037ad <_ZN5Dinic3DFSEii+0x3d>
  1037ef:	90                   	nop
  1037f0:	8b 47 18             	mov    0x18(%edi),%eax
  1037f3:	8b 34 b0             	mov    (%eax,%esi,4),%esi
  1037f6:	83 fe ff             	cmp    $0xffffffff,%esi
  1037f9:	74 b2                	je     1037ad <_ZN5Dinic3DFSEii+0x3d>
  1037fb:	89 f3                	mov    %esi,%ebx
  1037fd:	c1 e3 04             	shl    $0x4,%ebx
  103800:	03 5f 10             	add    0x10(%edi),%ebx
  103803:	8b 57 1c             	mov    0x1c(%edi),%edx
  103806:	8b 4b 04             	mov    0x4(%ebx),%ecx
  103809:	8b 45 e0             	mov    -0x20(%ebp),%eax
  10380c:	8b 04 02             	mov    (%edx,%eax,1),%eax
  10380f:	89 45 e4             	mov    %eax,-0x1c(%ebp)
  103812:	40                   	inc    %eax
  103813:	3b 04 8a             	cmp    (%edx,%ecx,4),%eax
  103816:	75 d8                	jne    1037f0 <_ZN5Dinic3DFSEii+0x80>
  103818:	eb 9e                	jmp    1037b8 <_ZN5Dinic3DFSEii+0x48>
  10381a:	66 90                	xchg   %ax,%ax
  10381c:	c7 45 dc 00 00 00 00 	movl   $0x0,-0x24(%ebp)
  103823:	8b 45 dc             	mov    -0x24(%ebp),%eax
  103826:	8d 65 f4             	lea    -0xc(%ebp),%esp
  103829:	5b                   	pop    %ebx
  10382a:	5e                   	pop    %esi
  10382b:	5f                   	pop    %edi
  10382c:	5d                   	pop    %ebp
  10382d:	c3                   	ret    
  10382e:	66 90                	xchg   %ax,%ax
  103830:	8b 45 10             	mov    0x10(%ebp),%eax
  103833:	89 45 dc             	mov    %eax,-0x24(%ebp)
  103836:	8b 45 dc             	mov    -0x24(%ebp),%eax
  103839:	8d 65 f4             	lea    -0xc(%ebp),%esp
  10383c:	5b                   	pop    %ebx
  10383d:	5e                   	pop    %esi
  10383e:	5f                   	pop    %edi
  10383f:	5d                   	pop    %ebp
  103840:	c3                   	ret    
  103841:	66 90                	xchg   %ax,%ax
  103843:	90                   	nop

00103844 <_putc>:
  103844:	55                   	push   %ebp
  103845:	89 e5                	mov    %esp,%ebp
  103847:	8b 45 08             	mov    0x8(%ebp),%eax
  10384a:	ba f8 03 00 00       	mov    $0x3f8,%edx
  10384f:	ee                   	out    %al,(%dx)
  103850:	5d                   	pop    %ebp
  103851:	c3                   	ret    
  103852:	66 90                	xchg   %ax,%ax

00103854 <_halt>:
  103854:	55                   	push   %ebp
  103855:	89 e5                	mov    %esp,%ebp
  103857:	8b 45 08             	mov    0x8(%ebp),%eax
  10385a:	d6                   	(bad)  
  10385b:	eb fe                	jmp    10385b <_halt+0x7>
  10385d:	66 90                	xchg   %ax,%ax
  10385f:	90                   	nop

00103860 <_trm_init>:
  103860:	55                   	push   %ebp
  103861:	89 e5                	mov    %esp,%ebp
  103863:	83 ec 14             	sub    $0x14,%esp
  103866:	68 00 00 00 00       	push   $0x0
  10386b:	e8 f0 eb ff ff       	call   102460 <main>
  103870:	d6                   	(bad)  
  103871:	83 c4 10             	add    $0x10,%esp
  103874:	eb fe                	jmp    103874 <_trm_init+0x14>
  103876:	66 90                	xchg   %ax,%ax

00103878 <_ioe_init>:
  103878:	55                   	push   %ebp
  103879:	89 e5                	mov    %esp,%ebp
  10387b:	83 ec 08             	sub    $0x8,%esp
  10387e:	e8 19 02 00 00       	call   103a9c <__am_vga_init>
  103883:	e8 34 01 00 00       	call   1039bc <__am_timer_init>
  103888:	31 c0                	xor    %eax,%eax
  10388a:	c9                   	leave  
  10388b:	c3                   	ret    

0010388c <_io_read>:
  10388c:	55                   	push   %ebp
  10388d:	89 e5                	mov    %esp,%ebp
  10388f:	53                   	push   %ebx
  103890:	8b 45 08             	mov    0x8(%ebp),%eax
  103893:	8b 55 0c             	mov    0xc(%ebp),%edx
  103896:	8b 4d 10             	mov    0x10(%ebp),%ecx
  103899:	8b 5d 14             	mov    0x14(%ebp),%ebx
  10389c:	3d 03 ac 00 00       	cmp    $0xac03,%eax
  1038a1:	74 15                	je     1038b8 <_io_read+0x2c>
  1038a3:	3d 04 ac 00 00       	cmp    $0xac04,%eax
  1038a8:	74 2e                	je     1038d8 <_io_read+0x4c>
  1038aa:	3d 02 ac 00 00       	cmp    $0xac02,%eax
  1038af:	74 17                	je     1038c8 <_io_read+0x3c>
  1038b1:	31 c0                	xor    %eax,%eax
  1038b3:	5b                   	pop    %ebx
  1038b4:	5d                   	pop    %ebp
  1038b5:	c3                   	ret    
  1038b6:	66 90                	xchg   %ax,%ax
  1038b8:	89 5d 10             	mov    %ebx,0x10(%ebp)
  1038bb:	89 4d 0c             	mov    %ecx,0xc(%ebp)
  1038be:	89 55 08             	mov    %edx,0x8(%ebp)
  1038c1:	5b                   	pop    %ebx
  1038c2:	5d                   	pop    %ebp
  1038c3:	e9 90 00 00 00       	jmp    103958 <__am_timer_read>
  1038c8:	89 5d 10             	mov    %ebx,0x10(%ebp)
  1038cb:	89 4d 0c             	mov    %ecx,0xc(%ebp)
  1038ce:	89 55 08             	mov    %edx,0x8(%ebp)
  1038d1:	5b                   	pop    %ebx
  1038d2:	5d                   	pop    %ebp
  1038d3:	e9 3c 00 00 00       	jmp    103914 <__am_input_read>
  1038d8:	89 5d 10             	mov    %ebx,0x10(%ebp)
  1038db:	89 4d 0c             	mov    %ecx,0xc(%ebp)
  1038de:	89 55 08             	mov    %edx,0x8(%ebp)
  1038e1:	5b                   	pop    %ebx
  1038e2:	5d                   	pop    %ebp
  1038e3:	e9 e0 00 00 00       	jmp    1039c8 <__am_video_read>

001038e8 <_io_write>:
  1038e8:	55                   	push   %ebp
  1038e9:	89 e5                	mov    %esp,%ebp
  1038eb:	8b 45 0c             	mov    0xc(%ebp),%eax
  1038ee:	8b 55 10             	mov    0x10(%ebp),%edx
  1038f1:	8b 4d 14             	mov    0x14(%ebp),%ecx
  1038f4:	81 7d 08 04 ac 00 00 	cmpl   $0xac04,0x8(%ebp)
  1038fb:	74 07                	je     103904 <_io_write+0x1c>
  1038fd:	31 c0                	xor    %eax,%eax
  1038ff:	5d                   	pop    %ebp
  103900:	c3                   	ret    
  103901:	8d 76 00             	lea    0x0(%esi),%esi
  103904:	89 4d 10             	mov    %ecx,0x10(%ebp)
  103907:	89 55 0c             	mov    %edx,0xc(%ebp)
  10390a:	89 45 08             	mov    %eax,0x8(%ebp)
  10390d:	5d                   	pop    %ebp
  10390e:	e9 dd 00 00 00       	jmp    1039f0 <__am_video_write>
  103913:	90                   	nop

00103914 <__am_input_read>:
  103914:	55                   	push   %ebp
  103915:	89 e5                	mov    %esp,%ebp
  103917:	83 7d 08 01          	cmpl   $0x1,0x8(%ebp)
  10391b:	74 07                	je     103924 <__am_input_read+0x10>
  10391d:	31 c0                	xor    %eax,%eax
  10391f:	5d                   	pop    %ebp
  103920:	c3                   	ret    
  103921:	8d 76 00             	lea    0x0(%esi),%esi
  103924:	ba 60 00 00 00       	mov    $0x60,%edx
  103929:	ed                   	in     (%dx),%eax
  10392a:	8b 4d 0c             	mov    0xc(%ebp),%ecx
  10392d:	89 41 04             	mov    %eax,0x4(%ecx)
  103930:	f6 c4 80             	test   $0x80,%ah
  103933:	74 13                	je     103948 <__am_input_read+0x34>
  103935:	80 f4 80             	xor    $0x80,%ah
  103938:	89 41 04             	mov    %eax,0x4(%ecx)
  10393b:	c7 01 01 00 00 00    	movl   $0x1,(%ecx)
  103941:	b8 08 00 00 00       	mov    $0x8,%eax
  103946:	5d                   	pop    %ebp
  103947:	c3                   	ret    
  103948:	8b 45 0c             	mov    0xc(%ebp),%eax
  10394b:	c7 00 00 00 00 00    	movl   $0x0,(%eax)
  103951:	b8 08 00 00 00       	mov    $0x8,%eax
  103956:	5d                   	pop    %ebp
  103957:	c3                   	ret    

00103958 <__am_timer_read>:
  103958:	55                   	push   %ebp
  103959:	89 e5                	mov    %esp,%ebp
  10395b:	8b 45 08             	mov    0x8(%ebp),%eax
  10395e:	8b 4d 0c             	mov    0xc(%ebp),%ecx
  103961:	83 f8 01             	cmp    $0x1,%eax
  103964:	74 3a                	je     1039a0 <__am_timer_read+0x48>
  103966:	83 f8 02             	cmp    $0x2,%eax
  103969:	75 31                	jne    10399c <__am_timer_read+0x44>
  10396b:	c7 41 14 00 00 00 00 	movl   $0x0,0x14(%ecx)
  103972:	c7 41 10 00 00 00 00 	movl   $0x0,0x10(%ecx)
  103979:	c7 41 0c 00 00 00 00 	movl   $0x0,0xc(%ecx)
  103980:	c7 41 08 00 00 00 00 	movl   $0x0,0x8(%ecx)
  103987:	c7 41 04 00 00 00 00 	movl   $0x0,0x4(%ecx)
  10398e:	c7 01 d0 07 00 00    	movl   $0x7d0,(%ecx)
  103994:	b8 18 00 00 00       	mov    $0x18,%eax
  103999:	5d                   	pop    %ebp
  10399a:	c3                   	ret    
  10399b:	90                   	nop
  10399c:	31 c0                	xor    %eax,%eax
  10399e:	5d                   	pop    %ebp
  10399f:	c3                   	ret    
  1039a0:	c7 01 00 00 00 00    	movl   $0x0,(%ecx)
  1039a6:	ba 48 00 00 00       	mov    $0x48,%edx
  1039ab:	ed                   	in     (%dx),%eax
  1039ac:	2b 05 8c 49 10 00    	sub    0x10498c,%eax
  1039b2:	89 41 04             	mov    %eax,0x4(%ecx)
  1039b5:	b8 08 00 00 00       	mov    $0x8,%eax
  1039ba:	5d                   	pop    %ebp
  1039bb:	c3                   	ret    

001039bc <__am_timer_init>:
  1039bc:	ba 48 00 00 00       	mov    $0x48,%edx
  1039c1:	ed                   	in     (%dx),%eax
  1039c2:	a3 8c 49 10 00       	mov    %eax,0x10498c
  1039c7:	c3                   	ret    

001039c8 <__am_video_read>:
  1039c8:	55                   	push   %ebp
  1039c9:	89 e5                	mov    %esp,%ebp
  1039cb:	83 7d 08 01          	cmpl   $0x1,0x8(%ebp)
  1039cf:	74 07                	je     1039d8 <__am_video_read+0x10>
  1039d1:	31 c0                	xor    %eax,%eax
  1039d3:	5d                   	pop    %ebp
  1039d4:	c3                   	ret    
  1039d5:	8d 76 00             	lea    0x0(%esi),%esi
  1039d8:	8b 45 0c             	mov    0xc(%ebp),%eax
  1039db:	c7 00 90 01 00 00    	movl   $0x190,(%eax)
  1039e1:	c7 40 04 2c 01 00 00 	movl   $0x12c,0x4(%eax)
  1039e8:	b8 08 00 00 00       	mov    $0x8,%eax
  1039ed:	5d                   	pop    %ebp
  1039ee:	c3                   	ret    
  1039ef:	90                   	nop

001039f0 <__am_video_write>:
  1039f0:	55                   	push   %ebp
  1039f1:	89 e5                	mov    %esp,%ebp
  1039f3:	57                   	push   %edi
  1039f4:	56                   	push   %esi
  1039f5:	53                   	push   %ebx
  1039f6:	83 ec 1c             	sub    $0x1c,%esp
  1039f9:	83 7d 08 02          	cmpl   $0x2,0x8(%ebp)
  1039fd:	74 0d                	je     103a0c <__am_video_write+0x1c>
  1039ff:	31 c0                	xor    %eax,%eax
  103a01:	8d 65 f4             	lea    -0xc(%ebp),%esp
  103a04:	5b                   	pop    %ebx
  103a05:	5e                   	pop    %esi
  103a06:	5f                   	pop    %edi
  103a07:	5d                   	pop    %ebp
  103a08:	c3                   	ret    
  103a09:	8d 76 00             	lea    0x0(%esi),%esi
  103a0c:	8b 45 0c             	mov    0xc(%ebp),%eax
  103a0f:	8b 08                	mov    (%eax),%ecx
  103a11:	8b 50 04             	mov    0x4(%eax),%edx
  103a14:	8b 40 10             	mov    0x10(%eax),%eax
  103a17:	8b 5d 0c             	mov    0xc(%ebp),%ebx
  103a1a:	8b 73 08             	mov    0x8(%ebx),%esi
  103a1d:	8b 5b 0c             	mov    0xc(%ebx),%ebx
  103a20:	89 5d e4             	mov    %ebx,-0x1c(%ebp)
  103a23:	c1 e3 02             	shl    $0x2,%ebx
  103a26:	85 c0                	test   %eax,%eax
  103a28:	7e 47                	jle    103a71 <__am_video_write+0x81>
  103a2a:	89 55 e4             	mov    %edx,-0x1c(%ebp)
  103a2d:	8d 14 92             	lea    (%edx,%edx,4),%edx
  103a30:	8d 14 92             	lea    (%edx,%edx,4),%edx
  103a33:	c1 e2 04             	shl    $0x4,%edx
  103a36:	01 ca                	add    %ecx,%edx
  103a38:	8d 3c 95 00 00 00 a0 	lea    -0x60000000(,%edx,4),%edi
  103a3f:	03 45 e4             	add    -0x1c(%ebp),%eax
  103a42:	8d 04 80             	lea    (%eax,%eax,4),%eax
  103a45:	8d 04 80             	lea    (%eax,%eax,4),%eax
  103a48:	c1 e0 04             	shl    $0x4,%eax
  103a4b:	8d 84 01 00 00 00 28 	lea    0x28000000(%ecx,%eax,1),%eax
  103a52:	c1 e0 02             	shl    $0x2,%eax
  103a55:	89 45 e4             	mov    %eax,-0x1c(%ebp)
  103a58:	52                   	push   %edx
  103a59:	53                   	push   %ebx
  103a5a:	56                   	push   %esi
  103a5b:	57                   	push   %edi
  103a5c:	e8 13 02 00 00       	call   103c74 <memcpy>
  103a61:	01 de                	add    %ebx,%esi
  103a63:	81 c7 40 06 00 00    	add    $0x640,%edi
  103a69:	83 c4 10             	add    $0x10,%esp
  103a6c:	3b 7d e4             	cmp    -0x1c(%ebp),%edi
  103a6f:	75 e7                	jne    103a58 <__am_video_write+0x68>
  103a71:	8b 45 0c             	mov    0xc(%ebp),%eax
  103a74:	8b 40 14             	mov    0x14(%eax),%eax
  103a77:	85 c0                	test   %eax,%eax
  103a79:	74 15                	je     103a90 <__am_video_write+0xa0>
  103a7b:	31 c0                	xor    %eax,%eax
  103a7d:	ba 04 01 00 00       	mov    $0x104,%edx
  103a82:	ef                   	out    %eax,(%dx)
  103a83:	8b 45 10             	mov    0x10(%ebp),%eax
  103a86:	8d 65 f4             	lea    -0xc(%ebp),%esp
  103a89:	5b                   	pop    %ebx
  103a8a:	5e                   	pop    %esi
  103a8b:	5f                   	pop    %edi
  103a8c:	5d                   	pop    %ebp
  103a8d:	c3                   	ret    
  103a8e:	66 90                	xchg   %ax,%ax
  103a90:	8b 45 10             	mov    0x10(%ebp),%eax
  103a93:	8d 65 f4             	lea    -0xc(%ebp),%esp
  103a96:	5b                   	pop    %ebx
  103a97:	5e                   	pop    %esi
  103a98:	5f                   	pop    %edi
  103a99:	5d                   	pop    %ebp
  103a9a:	c3                   	ret    
  103a9b:	90                   	nop

00103a9c <__am_vga_init>:
  103a9c:	55                   	push   %ebp
  103a9d:	89 e5                	mov    %esp,%ebp
  103a9f:	53                   	push   %ebx
  103aa0:	52                   	push   %edx
  103aa1:	e8 5e 02 00 00       	call   103d04 <screen_width>
  103aa6:	89 c3                	mov    %eax,%ebx
  103aa8:	e8 77 02 00 00       	call   103d24 <screen_height>
  103aad:	0f af c3             	imul   %ebx,%eax
  103ab0:	85 c0                	test   %eax,%eax
  103ab2:	7e 19                	jle    103acd <__am_vga_init+0x31>
  103ab4:	8d 14 85 00 00 00 a0 	lea    -0x60000000(,%eax,4),%edx
  103abb:	b8 00 00 00 a0       	mov    $0xa0000000,%eax
  103ac0:	c7 00 00 00 00 00    	movl   $0x0,(%eax)
  103ac6:	83 c0 04             	add    $0x4,%eax
  103ac9:	39 d0                	cmp    %edx,%eax
  103acb:	75 f3                	jne    103ac0 <__am_vga_init+0x24>
  103acd:	58                   	pop    %eax
  103ace:	5b                   	pop    %ebx
  103acf:	5d                   	pop    %ebp
  103ad0:	e9 e7 01 00 00       	jmp    103cbc <draw_sync>
  103ad5:	66 90                	xchg   %ax,%ax
  103ad7:	90                   	nop

00103ad8 <vsprintf>:
  103ad8:	55                   	push   %ebp
  103ad9:	89 e5                	mov    %esp,%ebp
  103adb:	57                   	push   %edi
  103adc:	56                   	push   %esi
  103add:	53                   	push   %ebx
  103ade:	83 ec 0c             	sub    $0xc,%esp
  103ae1:	8b 7d 08             	mov    0x8(%ebp),%edi
  103ae4:	8b 45 10             	mov    0x10(%ebp),%eax
  103ae7:	8b 75 0c             	mov    0xc(%ebp),%esi
  103aea:	8a 16                	mov    (%esi),%dl
  103aec:	84 d2                	test   %dl,%dl
  103aee:	75 19                	jne    103b09 <vsprintf+0x31>
  103af0:	eb 59                	jmp    103b4b <vsprintf+0x73>
  103af2:	66 90                	xchg   %ax,%ax
  103af4:	88 17                	mov    %dl,(%edi)
  103af6:	47                   	inc    %edi
  103af7:	89 f2                	mov    %esi,%edx
  103af9:	8b 75 0c             	mov    0xc(%ebp),%esi
  103afc:	89 55 0c             	mov    %edx,0xc(%ebp)
  103aff:	c6 07 00             	movb   $0x0,(%edi)
  103b02:	8a 56 01             	mov    0x1(%esi),%dl
  103b05:	84 d2                	test   %dl,%dl
  103b07:	74 42                	je     103b4b <vsprintf+0x73>
  103b09:	8b 75 0c             	mov    0xc(%ebp),%esi
  103b0c:	46                   	inc    %esi
  103b0d:	80 fa 25             	cmp    $0x25,%dl
  103b10:	75 e2                	jne    103af4 <vsprintf+0x1c>
  103b12:	8b 5d 0c             	mov    0xc(%ebp),%ebx
  103b15:	8a 53 01             	mov    0x1(%ebx),%dl
  103b18:	83 45 0c 02          	addl   $0x2,0xc(%ebp)
  103b1c:	80 fa 64             	cmp    $0x64,%dl
  103b1f:	74 37                	je     103b58 <vsprintf+0x80>
  103b21:	80 fa 73             	cmp    $0x73,%dl
  103b24:	75 d9                	jne    103aff <vsprintf+0x27>
  103b26:	8d 50 04             	lea    0x4(%eax),%edx
  103b29:	8b 08                	mov    (%eax),%ecx
  103b2b:	8a 01                	mov    (%ecx),%al
  103b2d:	84 c0                	test   %al,%al
  103b2f:	74 0d                	je     103b3e <vsprintf+0x66>
  103b31:	8d 76 00             	lea    0x0(%esi),%esi
  103b34:	88 07                	mov    %al,(%edi)
  103b36:	41                   	inc    %ecx
  103b37:	47                   	inc    %edi
  103b38:	8a 01                	mov    (%ecx),%al
  103b3a:	84 c0                	test   %al,%al
  103b3c:	75 f6                	jne    103b34 <vsprintf+0x5c>
  103b3e:	47                   	inc    %edi
  103b3f:	89 d0                	mov    %edx,%eax
  103b41:	c6 07 00             	movb   $0x0,(%edi)
  103b44:	8a 56 01             	mov    0x1(%esi),%dl
  103b47:	84 d2                	test   %dl,%dl
  103b49:	75 be                	jne    103b09 <vsprintf+0x31>
  103b4b:	31 c0                	xor    %eax,%eax
  103b4d:	83 c4 0c             	add    $0xc,%esp
  103b50:	5b                   	pop    %ebx
  103b51:	5e                   	pop    %esi
  103b52:	5f                   	pop    %edi
  103b53:	5d                   	pop    %ebp
  103b54:	c3                   	ret    
  103b55:	8d 76 00             	lea    0x0(%esi),%esi
  103b58:	8d 58 04             	lea    0x4(%eax),%ebx
  103b5b:	89 5d f0             	mov    %ebx,-0x10(%ebp)
  103b5e:	8b 08                	mov    (%eax),%ecx
  103b60:	85 c9                	test   %ecx,%ecx
  103b62:	75 0c                	jne    103b70 <vsprintf+0x98>
  103b64:	c6 07 30             	movb   $0x30,(%edi)
  103b67:	47                   	inc    %edi
  103b68:	8b 45 f0             	mov    -0x10(%ebp),%eax
  103b6b:	eb 92                	jmp    103aff <vsprintf+0x27>
  103b6d:	8d 76 00             	lea    0x0(%esi),%esi
  103b70:	89 cb                	mov    %ecx,%ebx
  103b72:	31 c0                	xor    %eax,%eax
  103b74:	89 75 e8             	mov    %esi,-0x18(%ebp)
  103b77:	89 c6                	mov    %eax,%esi
  103b79:	8d 76 00             	lea    0x0(%esi),%esi
  103b7c:	46                   	inc    %esi
  103b7d:	b8 67 66 66 66       	mov    $0x66666667,%eax
  103b82:	f7 eb                	imul   %ebx
  103b84:	89 d0                	mov    %edx,%eax
  103b86:	c1 f8 02             	sar    $0x2,%eax
  103b89:	c1 fb 1f             	sar    $0x1f,%ebx
  103b8c:	29 d8                	sub    %ebx,%eax
  103b8e:	89 c3                	mov    %eax,%ebx
  103b90:	75 ea                	jne    103b7c <vsprintf+0xa4>
  103b92:	89 f3                	mov    %esi,%ebx
  103b94:	89 75 ec             	mov    %esi,-0x14(%ebp)
  103b97:	8b 75 e8             	mov    -0x18(%ebp),%esi
  103b9a:	66 90                	xchg   %ax,%ax
  103b9c:	b8 67 66 66 66       	mov    $0x66666667,%eax
  103ba1:	f7 e9                	imul   %ecx
  103ba3:	89 d0                	mov    %edx,%eax
  103ba5:	c1 f8 02             	sar    $0x2,%eax
  103ba8:	89 ca                	mov    %ecx,%edx
  103baa:	c1 fa 1f             	sar    $0x1f,%edx
  103bad:	29 d0                	sub    %edx,%eax
  103baf:	8d 14 80             	lea    (%eax,%eax,4),%edx
  103bb2:	01 d2                	add    %edx,%edx
  103bb4:	29 d1                	sub    %edx,%ecx
  103bb6:	83 c1 30             	add    $0x30,%ecx
  103bb9:	88 4c 1f ff          	mov    %cl,-0x1(%edi,%ebx,1)
  103bbd:	89 c1                	mov    %eax,%ecx
  103bbf:	4b                   	dec    %ebx
  103bc0:	75 da                	jne    103b9c <vsprintf+0xc4>
  103bc2:	03 7d ec             	add    -0x14(%ebp),%edi
  103bc5:	eb a1                	jmp    103b68 <vsprintf+0x90>
  103bc7:	90                   	nop

00103bc8 <printf>:
  103bc8:	55                   	push   %ebp
  103bc9:	89 e5                	mov    %esp,%ebp
  103bcb:	53                   	push   %ebx
  103bcc:	81 ec 04 04 00 00    	sub    $0x404,%esp
  103bd2:	8d 45 0c             	lea    0xc(%ebp),%eax
  103bd5:	50                   	push   %eax
  103bd6:	ff 75 08             	pushl  0x8(%ebp)
  103bd9:	8d 9d f8 fb ff ff    	lea    -0x408(%ebp),%ebx
  103bdf:	53                   	push   %ebx
  103be0:	e8 f3 fe ff ff       	call   103ad8 <vsprintf>
  103be5:	0f be 85 f8 fb ff ff 	movsbl -0x408(%ebp),%eax
  103bec:	83 c4 0c             	add    $0xc,%esp
  103bef:	84 c0                	test   %al,%al
  103bf1:	74 15                	je     103c08 <printf+0x40>
  103bf3:	90                   	nop
  103bf4:	83 ec 0c             	sub    $0xc,%esp
  103bf7:	50                   	push   %eax
  103bf8:	e8 47 fc ff ff       	call   103844 <_putc>
  103bfd:	43                   	inc    %ebx
  103bfe:	0f be 03             	movsbl (%ebx),%eax
  103c01:	83 c4 10             	add    $0x10,%esp
  103c04:	84 c0                	test   %al,%al
  103c06:	75 ec                	jne    103bf4 <printf+0x2c>
  103c08:	31 c0                	xor    %eax,%eax
  103c0a:	8b 5d fc             	mov    -0x4(%ebp),%ebx
  103c0d:	c9                   	leave  
  103c0e:	c3                   	ret    
  103c0f:	90                   	nop

00103c10 <strcmp>:
  103c10:	55                   	push   %ebp
  103c11:	89 e5                	mov    %esp,%ebp
  103c13:	56                   	push   %esi
  103c14:	53                   	push   %ebx
  103c15:	8b 5d 08             	mov    0x8(%ebp),%ebx
  103c18:	8b 75 0c             	mov    0xc(%ebp),%esi
  103c1b:	8a 13                	mov    (%ebx),%dl
  103c1d:	8a 06                	mov    (%esi),%al
  103c1f:	84 d2                	test   %dl,%dl
  103c21:	74 28                	je     103c4b <strcmp+0x3b>
  103c23:	84 c0                	test   %al,%al
  103c25:	74 35                	je     103c5c <strcmp+0x4c>
  103c27:	38 c2                	cmp    %al,%dl
  103c29:	7f 31                	jg     103c5c <strcmp+0x4c>
  103c2b:	7c 3b                	jl     103c68 <strcmp+0x58>
  103c2d:	ba 01 00 00 00       	mov    $0x1,%edx
  103c32:	eb 0d                	jmp    103c41 <strcmp+0x31>
  103c34:	84 c0                	test   %al,%al
  103c36:	74 24                	je     103c5c <strcmp+0x4c>
  103c38:	38 c1                	cmp    %al,%cl
  103c3a:	7f 20                	jg     103c5c <strcmp+0x4c>
  103c3c:	42                   	inc    %edx
  103c3d:	38 c1                	cmp    %al,%cl
  103c3f:	7c 27                	jl     103c68 <strcmp+0x58>
  103c41:	8a 0c 13             	mov    (%ebx,%edx,1),%cl
  103c44:	8a 04 16             	mov    (%esi,%edx,1),%al
  103c47:	84 c9                	test   %cl,%cl
  103c49:	75 e9                	jne    103c34 <strcmp+0x24>
  103c4b:	84 c0                	test   %al,%al
  103c4d:	0f 95 c0             	setne  %al
  103c50:	0f b6 c0             	movzbl %al,%eax
  103c53:	f7 d8                	neg    %eax
  103c55:	5b                   	pop    %ebx
  103c56:	5e                   	pop    %esi
  103c57:	5d                   	pop    %ebp
  103c58:	c3                   	ret    
  103c59:	8d 76 00             	lea    0x0(%esi),%esi
  103c5c:	b8 01 00 00 00       	mov    $0x1,%eax
  103c61:	5b                   	pop    %ebx
  103c62:	5e                   	pop    %esi
  103c63:	5d                   	pop    %ebp
  103c64:	c3                   	ret    
  103c65:	8d 76 00             	lea    0x0(%esi),%esi
  103c68:	b8 ff ff ff ff       	mov    $0xffffffff,%eax
  103c6d:	5b                   	pop    %ebx
  103c6e:	5e                   	pop    %esi
  103c6f:	5d                   	pop    %ebp
  103c70:	c3                   	ret    
  103c71:	66 90                	xchg   %ax,%ax
  103c73:	90                   	nop

00103c74 <memcpy>:
  103c74:	55                   	push   %ebp
  103c75:	89 e5                	mov    %esp,%ebp
  103c77:	56                   	push   %esi
  103c78:	53                   	push   %ebx
  103c79:	8b 75 08             	mov    0x8(%ebp),%esi
  103c7c:	8b 4d 0c             	mov    0xc(%ebp),%ecx
  103c7f:	8b 5d 10             	mov    0x10(%ebp),%ebx
  103c82:	85 db                	test   %ebx,%ebx
  103c84:	74 10                	je     103c96 <memcpy+0x22>
  103c86:	01 f3                	add    %esi,%ebx
  103c88:	89 f2                	mov    %esi,%edx
  103c8a:	66 90                	xchg   %ax,%ax
  103c8c:	8a 01                	mov    (%ecx),%al
  103c8e:	88 02                	mov    %al,(%edx)
  103c90:	42                   	inc    %edx
  103c91:	41                   	inc    %ecx
  103c92:	39 da                	cmp    %ebx,%edx
  103c94:	75 f6                	jne    103c8c <memcpy+0x18>
  103c96:	89 f0                	mov    %esi,%eax
  103c98:	5b                   	pop    %ebx
  103c99:	5e                   	pop    %esi
  103c9a:	5d                   	pop    %ebp
  103c9b:	c3                   	ret    

00103c9c <uptime>:
  103c9c:	55                   	push   %ebp
  103c9d:	89 e5                	mov    %esp,%ebp
  103c9f:	83 ec 18             	sub    $0x18,%esp
  103ca2:	6a 08                	push   $0x8
  103ca4:	8d 45 f0             	lea    -0x10(%ebp),%eax
  103ca7:	50                   	push   %eax
  103ca8:	6a 01                	push   $0x1
  103caa:	68 03 ac 00 00       	push   $0xac03
  103caf:	e8 d8 fb ff ff       	call   10388c <_io_read>
  103cb4:	8b 45 f4             	mov    -0xc(%ebp),%eax
  103cb7:	c9                   	leave  
  103cb8:	c3                   	ret    
  103cb9:	66 90                	xchg   %ax,%ax
  103cbb:	90                   	nop

00103cbc <draw_sync>:
  103cbc:	55                   	push   %ebp
  103cbd:	89 e5                	mov    %esp,%ebp
  103cbf:	83 ec 28             	sub    $0x28,%esp
  103cc2:	c7 45 e8 00 00 00 00 	movl   $0x0,-0x18(%ebp)
  103cc9:	c7 45 f0 00 00 00 00 	movl   $0x0,-0x10(%ebp)
  103cd0:	c7 45 ec 00 00 00 00 	movl   $0x0,-0x14(%ebp)
  103cd7:	c7 45 e4 00 00 00 00 	movl   $0x0,-0x1c(%ebp)
  103cde:	c7 45 e0 00 00 00 00 	movl   $0x0,-0x20(%ebp)
  103ce5:	c7 45 f4 01 00 00 00 	movl   $0x1,-0xc(%ebp)
  103cec:	6a 18                	push   $0x18
  103cee:	8d 45 e0             	lea    -0x20(%ebp),%eax
  103cf1:	50                   	push   %eax
  103cf2:	6a 02                	push   $0x2
  103cf4:	68 04 ac 00 00       	push   $0xac04
  103cf9:	e8 ea fb ff ff       	call   1038e8 <_io_write>
  103cfe:	83 c4 10             	add    $0x10,%esp
  103d01:	c9                   	leave  
  103d02:	c3                   	ret    
  103d03:	90                   	nop

00103d04 <screen_width>:
  103d04:	55                   	push   %ebp
  103d05:	89 e5                	mov    %esp,%ebp
  103d07:	83 ec 18             	sub    $0x18,%esp
  103d0a:	6a 08                	push   $0x8
  103d0c:	8d 45 f0             	lea    -0x10(%ebp),%eax
  103d0f:	50                   	push   %eax
  103d10:	6a 01                	push   $0x1
  103d12:	68 04 ac 00 00       	push   $0xac04
  103d17:	e8 70 fb ff ff       	call   10388c <_io_read>
  103d1c:	8b 45 f0             	mov    -0x10(%ebp),%eax
  103d1f:	c9                   	leave  
  103d20:	c3                   	ret    
  103d21:	66 90                	xchg   %ax,%ax
  103d23:	90                   	nop

00103d24 <screen_height>:
  103d24:	55                   	push   %ebp
  103d25:	89 e5                	mov    %esp,%ebp
  103d27:	83 ec 18             	sub    $0x18,%esp
  103d2a:	6a 08                	push   $0x8
  103d2c:	8d 45 f0             	lea    -0x10(%ebp),%eax
  103d2f:	50                   	push   %eax
  103d30:	6a 01                	push   $0x1
  103d32:	68 04 ac 00 00       	push   $0xac04
  103d37:	e8 50 fb ff ff       	call   10388c <_io_read>
  103d3c:	8b 45 f4             	mov    -0xc(%ebp),%eax
  103d3f:	c9                   	leave  
  103d40:	c3                   	ret    
